(dp0
S'ALG_CREATOR'
p1
VFilipe S. Dias
p2
sS'field'
p3
VVector's field
p4
sS'ALG_DESC'
p5
VThis tool created a table of counts for a given field, using the function "table()".
p6
sS'layer'
p7
VVector layer
p8
s.