(dp0
S'ALG_CREATOR'
p1
VVictor Olaya, volayaf(at)gmail.com
p2
sS'ALG_DESC'
p3
VThe script creates a raster histogram.
p4
sS'Layer '
p5
VAn input raster.
p6
sS'RPLOTS'
p7
VHistogram
p8
sS'ALG_HELP_CREATOR'
p9
VFilipe S. Dias, filipesdias(at)gmail.co
p10
s.
