(dp0
S'ALG_CREATOR'
p1
VVictor Olaya, volayaf(at)gmail.com
p2
sS'Output'
p3
VRiplay-Rasson estimate of the spatial domain.
p4
sS'ALG_DESC'
p5
VThis script computes the Ripley-Rasson estimate of the spatial domain from which an observed pattern of points came.\u000a\u000aR dependencies: library "maptools" and "spatstat"
p6
sS'Layer'
p7
VA vector layer contain a point pattern.
p8
sS'ALG_HELP_CREATOR'
p9
VFilipe S. Dias, filipesdias(at)gmail.com
p10
s.
