(dp0
S'ALG_CREATOR'
p1
VFilipe S. Dias
p2
sS'Field'
p3
VA numeric field.
p4
sS'ALG_DESC'
p5
VThis tool creates a dotplot of the input numeric field using the function dotchart().\u000a
p6
sS'Layer'
p7
VA vector layer with a numeric field.
p8
sS'ALG_HELP_CREATOR'
p9
VFilipe S. Dias
p10
s.
