(dp0
S'ALG_DESC'
p1
VThis tool builds a frequency table using the table() function.
p2
sS'R_CONSOLE_OUTPUT'
p3
VFrequency table.
p4
sS'ALG_CREATOR'
p5
VFilipe S. Dias, filipesdias(at)gmail.com 
p6
sS'Layer'
p7
VA vector layer with a numeric or string field.
p8
sS'Field'
p9
VA string or numeric field.
p10
sS'ALG_HELP_CREATOR'
p11
VFilipe S. Dias, filipesdias(at)gmail.com  
p12
s.
