(dp0
S'ALG_DESC'
p1
VThis scripts samples point location within a given polygon(s) using a random sampling method. The  used methods assume that the geometry used is not spherical, so objects should be in planar coordinates.\u000a\u000a
p2
sS'ALG_CREATOR'
p3
VVictor Olaya
p4
sS'Layer'
p5
VA vector layer containing polygons.
p6
sS'ALG_HELP_CREATOR'
p7
VFilipe Dias
p8
sS'Output'
p9
VRandomly generated random points.
p10
sS'Size'
p11
VNumber of sample points to be randomly generated
p12
s.
