(dp0
S'Output'
p1
VSampled points
p2
sS'ALG_DESC'
p3
VThis scripts samples point location within a given polygon(s) using a regular (systematically aligned) sampling method. The methods  used assume that the geometry used is not spherical, so objects should be in planar coordinates.
p4
sS'Layer'
p5
VA vector layer containing polygons.\u000a
p6
sS'Size'
p7
VNumber of sample points to be generated.\u000a
p8
s.
