libqgis_analysis.so.{QGIS_ABI} libqgis{QGIS_ABI} #MINVER#
 _ZN10QByteArray4dataEv@Base {QGIS_ABI}
 _ZN10QByteArrayD1Ev@Base {QGIS_ABI}
 _ZN12TriDecorator10calcNormalEddP8Vector3D@Base {QGIS_ABI}
 _ZN12TriDecorator11getTriangleEddP7Point3DPiS1_S2_S1_S2_@Base {QGIS_ABI}
 _ZN12TriDecorator11getTriangleEddP7Point3DS1_S1_@Base {QGIS_ABI}
 _ZN12TriDecorator11pointInsideEdd@Base {QGIS_ABI}
 _ZN12TriDecorator12setEdgeColorEiii@Base {QGIS_ABI}
 _ZN12TriDecorator16addTriangulationEP13Triangulation@Base {QGIS_ABI}
 _ZN12TriDecorator16getOppositePointEii@Base {QGIS_ABI}
 _ZN12TriDecorator17ruppertRefinementEv@Base {QGIS_ABI}
 _ZN12TriDecorator17setBreakEdgeColorEiii@Base {QGIS_ABI}
 _ZN12TriDecorator18setForcedEdgeColorEiii@Base {QGIS_ABI}
 _ZN12TriDecorator19getPointsAroundEdgeEdd@Base {QGIS_ABI}
 _ZN12TriDecorator22performConsistencyTestEv@Base {QGIS_ABI}
 _ZN12TriDecorator23getSurroundingTrianglesEi@Base {QGIS_ABI}
 _ZN12TriDecorator23setForcedCrossBehaviourEN13Triangulation20forcedCrossBehaviourE@Base {QGIS_ABI}
 _ZN12TriDecorator23setTriangleInterpolatorEP20TriangleInterpolator@Base {QGIS_ABI}
 _ZN12TriDecorator28eliminateHorizontalTrianglesEv@Base {QGIS_ABI}
 _ZN12TriDecorator7addLineEP6Line3Db@Base {QGIS_ABI}
 _ZN12TriDecorator8addPointEP7Point3D@Base {QGIS_ABI}
 _ZN12TriDecorator8swapEdgeEdd@Base {QGIS_ABI}
 _ZN12TriDecorator9calcPointEddP7Point3D@Base {QGIS_ABI}
 _ZN12TriDecoratorD0Ev@Base {QGIS_ABI}
 _ZN12TriDecoratorD1Ev@Base {QGIS_ABI}
 _ZN13TriangulationD0Ev@Base {QGIS_ABI}
 _ZN13TriangulationD1Ev@Base {QGIS_ABI}
 _ZN14ParametricLine10calcSecDerEfP8Vector3D@Base {QGIS_ABI}
 _ZN14ParametricLine12calcFirstDerEfP8Vector3D@Base {QGIS_ABI}
 _ZN14ParametricLine14setControlPolyEP7QVectorIP7Point3DE@Base {QGIS_ABI}
 _ZN14ParametricLine3addEPS_@Base {QGIS_ABI}
 _ZN14ParametricLine6removeEi@Base {QGIS_ABI}
 _ZN14ParametricLine9calcPointEfP7Point3D@Base {QGIS_ABI}
 _ZN14ParametricLine9setParentEPS_@Base {QGIS_ABI}
 _ZN14ParametricLineD0Ev@Base {QGIS_ABI}
 _ZN14ParametricLineD1Ev@Base {QGIS_ABI}
 _ZN14QgsSlopeFilter21processNineCellWindowEPfS0_S0_S0_S0_S0_S0_S0_S0_@Base {QGIS_ABI}
 _ZN14QgsSlopeFilterC1ERK7QStringS2_S2_@Base {QGIS_ABI}
 _ZN14QgsSlopeFilterC2ERK7QStringS2_S2_@Base {QGIS_ABI}
 _ZN14QgsSlopeFilterD0Ev@Base {QGIS_ABI}
 _ZN14QgsSlopeFilterD1Ev@Base {QGIS_ABI}
 _ZN14QgsSlopeFilterD2Ev@Base {QGIS_ABI}
 _ZN15QgsAspectFilter21processNineCellWindowEPfS0_S0_S0_S0_S0_S0_S0_S0_@Base {QGIS_ABI}
 _ZN15QgsAspectFilterC1ERK7QStringS2_S2_@Base {QGIS_ABI}
 _ZN15QgsAspectFilterC2ERK7QStringS2_S2_@Base {QGIS_ABI}
 _ZN15QgsAspectFilterD0Ev@Base {QGIS_ABI}
 _ZN15QgsAspectFilterD1Ev@Base {QGIS_ABI}
 _ZN15QgsAspectFilterD2Ev@Base {QGIS_ABI}
 _ZN15QgsInterpolator13cacheBaseDataEv@Base {QGIS_ABI}
 _ZN15QgsInterpolator18addVerticesToCacheEP11QgsGeometrybd@Base {QGIS_ABI}
 _ZN15QgsInterpolatorC1ERK5QListINS_9LayerDataEE@Base {QGIS_ABI}
 _ZN15QgsInterpolatorC1Ev@Base {QGIS_ABI}
 _ZN15QgsInterpolatorC2ERK5QListINS_9LayerDataEE@Base {QGIS_ABI}
 _ZN15QgsInterpolatorC2Ev@Base {QGIS_ABI}
 _ZN15QgsInterpolatorD0Ev@Base {QGIS_ABI}
 _ZN15QgsInterpolatorD1Ev@Base {QGIS_ABI}
 _ZN15QgsInterpolatorD2Ev@Base {QGIS_ABI}
 _ZN16NormVecDecorator10calcNormalEddP8Vector3D@Base {QGIS_ABI}
 _ZN16NormVecDecorator11getTriangleEddP7Point3DP8Vector3DS1_S3_S1_S3_@Base {QGIS_ABI}
 _ZN16NormVecDecorator11getTriangleEddP7Point3DPiP8Vector3DPNS_10pointStateES1_S2_S4_S6_S1_S2_S4_S6_@Base {QGIS_ABI}
 _ZN16NormVecDecorator18calcNormalForPointEddiP8Vector3D@Base {QGIS_ABI}
 _ZN16NormVecDecorator23estimateFirstDerivativeEi@Base {QGIS_ABI}
 _ZN16NormVecDecorator23setTriangleInterpolatorEP20TriangleInterpolator@Base {QGIS_ABI}
 _ZN16NormVecDecorator24estimateFirstDerivativesEP15QProgressDialog@Base {QGIS_ABI}
 _ZN16NormVecDecorator24estimateFirstDerivativesEv@Base {QGIS_ABI}
 _ZN16NormVecDecorator28eliminateHorizontalTrianglesEv@Base {QGIS_ABI}
 _ZN16NormVecDecorator8addPointEP7Point3D@Base {QGIS_ABI}
 _ZN16NormVecDecorator8setStateEiNS_10pointStateE@Base {QGIS_ABI}
 _ZN16NormVecDecorator8swapEdgeEdd@Base {QGIS_ABI}
 _ZN16NormVecDecorator9calcPointEddP7Point3D@Base {QGIS_ABI}
 _ZN16NormVecDecoratorD0Ev@Base {QGIS_ABI}
 _ZN16NormVecDecoratorD1Ev@Base {QGIS_ABI}
 _ZN16NormVecDecoratorD2Ev@Base {QGIS_ABI}
 _ZN17QgsGridFileWriter11writeHeaderER11QTextStream@Base {QGIS_ABI}
 _ZN17QgsGridFileWriter9writeFileEb@Base {QGIS_ABI}
 _ZN17QgsGridFileWriterC1EP15QgsInterpolator7QString12QgsRectangleiidd@Base {QGIS_ABI}
 _ZN17QgsGridFileWriterC1Ev@Base {QGIS_ABI}
 _ZN17QgsGridFileWriterC2EP15QgsInterpolator7QString12QgsRectangleiidd@Base {QGIS_ABI}
 _ZN17QgsGridFileWriterC2Ev@Base {QGIS_ABI}
 _ZN17QgsGridFileWriterD1Ev@Base {QGIS_ABI}
 _ZN17QgsGridFileWriterD2Ev@Base {QGIS_ABI}
 _ZN17QgsNineCellFilter13openInputFileERiS0_@Base {QGIS_ABI}
 _ZN17QgsNineCellFilter13processRasterEP15QProgressDialog@Base {QGIS_ABI}
 _ZN17QgsNineCellFilter14openOutputFileEPvS0_@Base {QGIS_ABI}
 _ZN17QgsNineCellFilter16openOutputDriverEv@Base {QGIS_ABI}
 _ZN17QgsNineCellFilterC1ERK7QStringS2_S2_@Base {QGIS_ABI}
 _ZN17QgsNineCellFilterC1Ev@Base {QGIS_ABI}
 _ZN17QgsNineCellFilterC2ERK7QStringS2_S2_@Base {QGIS_ABI}
 _ZN17QgsNineCellFilterC2Ev@Base {QGIS_ABI}
 _ZN17QgsNineCellFilterD0Ev@Base {QGIS_ABI}
 _ZN17QgsNineCellFilterD1Ev@Base {QGIS_ABI}
 _ZN17QgsNineCellFilterD2Ev@Base {QGIS_ABI}
 _ZN18QgsIDWInterpolator16interpolatePointEddRd@Base {QGIS_ABI}
 _ZN18QgsIDWInterpolatorC1ERK5QListIN15QgsInterpolator9LayerDataEE@Base {QGIS_ABI}
 _ZN18QgsIDWInterpolatorC1Ev@Base {QGIS_ABI}
 _ZN18QgsIDWInterpolatorC2ERK5QListIN15QgsInterpolator9LayerDataEE@Base {QGIS_ABI}
 _ZN18QgsIDWInterpolatorC2Ev@Base {QGIS_ABI}
 _ZN18QgsIDWInterpolatorD0Ev@Base {QGIS_ABI}
 _ZN18QgsIDWInterpolatorD1Ev@Base {QGIS_ABI}
 _ZN18QgsIDWInterpolatorD2Ev@Base {QGIS_ABI}
 _ZN18QgsOverlayAnalyzer12intersectionEP14QgsVectorLayerS1_RK7QStringbP15QProgressDialog@Base {QGIS_ABI}
 _ZN18QgsOverlayAnalyzer16intersectFeatureER10QgsFeatureP19QgsVectorFileWriterP14QgsVectorLayerP15QgsSpatialIndex@Base {QGIS_ABI}
 _ZN18QgsOverlayAnalyzer17combineFieldListsER4QMapIi8QgsFieldES2_@Base {QGIS_ABI}
 _ZN18QgsOverlayAnalyzer20combineAttributeMapsER4QMapIi8QVariantES2_@Base {QGIS_ABI}
 _ZN18QgsTINInterpolator10initializeEv@Base {QGIS_ABI}
 _ZN18QgsTINInterpolator10insertDataEP10QgsFeaturebiN15QgsInterpolator9InputTypeE@Base {QGIS_ABI}
 _ZN18QgsTINInterpolator16interpolatePointEddRd@Base {QGIS_ABI}
 _ZN18QgsTINInterpolatorC1ERK5QListIN15QgsInterpolator9LayerDataEENS_17TIN_INTERPOLATIONEb@Base {QGIS_ABI}
 _ZN18QgsTINInterpolatorC1ERK5QListIN15QgsInterpolator9LayerDataEEb@Base {QGIS_ABI}
 _ZN18QgsTINInterpolatorC2ERK5QListIN15QgsInterpolator9LayerDataEENS_17TIN_INTERPOLATIONEb@Base {QGIS_ABI}
 _ZN18QgsTINInterpolatorC2ERK5QListIN15QgsInterpolator9LayerDataEEb@Base {QGIS_ABI}
 _ZN18QgsTINInterpolatorD0Ev@Base {QGIS_ABI}
 _ZN18QgsTINInterpolatorD1Ev@Base {QGIS_ABI}
 _ZN18QgsTINInterpolatorD2Ev@Base {QGIS_ABI}
 _ZN18QgsZonalStatistics19calculateStatisticsEP15QProgressDialog@Base {QGIS_ABI}
 _ZN18QgsZonalStatisticsC1EP14QgsVectorLayerRK7QStringS4_i@Base {QGIS_ABI}
 _ZN18QgsZonalStatisticsC1Ev@Base {QGIS_ABI}
 _ZN18QgsZonalStatisticsC2EP14QgsVectorLayerRK7QStringS4_i@Base {QGIS_ABI}
 _ZN18QgsZonalStatisticsC2Ev@Base {QGIS_ABI}
 _ZN18QgsZonalStatisticsD1Ev@Base {QGIS_ABI}
 _ZN18QgsZonalStatisticsD2Ev@Base {QGIS_ABI}
 _ZN19QgsDerivativeFilter13calcFirstDerXEPfS0_S0_S0_S0_S0_S0_S0_S0_@Base {QGIS_ABI}
 _ZN19QgsDerivativeFilter13calcFirstDerYEPfS0_S0_S0_S0_S0_S0_S0_S0_@Base {QGIS_ABI}
 _ZN19QgsDerivativeFilterC1ERK7QStringS2_S2_@Base {QGIS_ABI}
 _ZN19QgsDerivativeFilterC2ERK7QStringS2_S2_@Base {QGIS_ABI}
 _ZN19QgsDerivativeFilterD0Ev@Base {QGIS_ABI}
 _ZN19QgsDerivativeFilterD1Ev@Base {QGIS_ABI}
 _ZN19QgsDerivativeFilterD2Ev@Base {QGIS_ABI}
 _ZN19QgsGeometryAnalyzer10convexHullEP14QgsVectorLayerRK7QStringbiP15QProgressDialog@Base {QGIS_ABI}
 _ZN19QgsGeometryAnalyzer11layerExtentEP14QgsVectorLayerRK7QStringS4_@Base {QGIS_ABI}
 _ZN19QgsGeometryAnalyzer12extractLinesEP11QgsGeometry@Base {QGIS_ABI}
 _ZN19QgsGeometryAnalyzer12extractNodesEP14QgsVectorLayerRK7QStringS4_@Base {QGIS_ABI}
 _ZN19QgsGeometryAnalyzer13bufferFeatureER10QgsFeatureiP19QgsVectorFileWriterbPP11QgsGeometrydi@Base {QGIS_ABI}
 _ZN19QgsGeometryAnalyzer13convexFeatureER10QgsFeatureiPP11QgsGeometry@Base {QGIS_ABI}
 _ZN19QgsGeometryAnalyzer13extractPointsEP11QgsGeometry@Base {QGIS_ABI}
 _ZN19QgsGeometryAnalyzer13simpleMeasureEP11QgsGeometry@Base {QGIS_ABI}
 _ZN19QgsGeometryAnalyzer14extractAsMultiEP11QgsGeometry@Base {QGIS_ABI}
 _ZN19QgsGeometryAnalyzer15centroidFeatureER10QgsFeatureP19QgsVectorFileWriter@Base {QGIS_ABI}
 _ZN19QgsGeometryAnalyzer15convertGeometryEP11QgsGeometry@Base {QGIS_ABI}
 _ZN19QgsGeometryAnalyzer15dissolveFeatureER10QgsFeatureiPP11QgsGeometry@Base {QGIS_ABI}
 _ZN19QgsGeometryAnalyzer15extractAsSingleEP11QgsGeometry@Base {QGIS_ABI}
 _ZN19QgsGeometryAnalyzer15polygonsToLinesEP14QgsVectorLayerRK7QStringS4_@Base {QGIS_ABI}
 _ZN19QgsGeometryAnalyzer15simplifyFeatureER10QgsFeatureP19QgsVectorFileWriterd@Base {QGIS_ABI}
 _ZN19QgsGeometryAnalyzer16perimeterMeasureEP11QgsGeometryR15QgsDistanceArea@Base {QGIS_ABI}
 _ZN19QgsGeometryAnalyzer16polygonCentroidsEP14QgsVectorLayerRK7QStringS4_@Base {QGIS_ABI}
 _ZN19QgsGeometryAnalyzer16simplifyGeometryEP14QgsVectorLayer7QStringS2_d@Base {QGIS_ABI}
 _ZN19QgsGeometryAnalyzer19checkGeometryFieldsEP14QgsVectorLayerRiS2_@Base {QGIS_ABI}
 _ZN19QgsGeometryAnalyzer22multipartToSinglepartsEP14QgsVectorLayerRK7QStringS4_@Base {QGIS_ABI}
 _ZN19QgsGeometryAnalyzer22singlepartsToMultipartEP14QgsVectorLayerRK7QStringS4_i@Base {QGIS_ABI}
 _ZN19QgsGeometryAnalyzer25exportGeometryInformationEP14QgsVectorLayerRK7QStringS4_@Base {QGIS_ABI}
 _ZN19QgsGeometryAnalyzer6bufferEP14QgsVectorLayerRK7QStringdbbiP15QProgressDialog@Base {QGIS_ABI}
 _ZN19QgsGeometryAnalyzer6extentEP14QgsVectorLayerRK7QStringbP15QProgressDialog@Base {QGIS_ABI}
 _ZN19QgsGeometryAnalyzer8dissolveEP14QgsVectorLayerRK7QStringbiP15QProgressDialog@Base {QGIS_ABI}
 _ZN19QgsGeometryAnalyzer8simplifyEP14QgsVectorLayerRK7QStringdbP15QProgressDialog@Base {QGIS_ABI}
 _ZN19QgsGeometryAnalyzer9centroidsEP14QgsVectorLayerRK7QStringbP15QProgressDialog@Base {QGIS_ABI}
 _ZN19QgsRuggednessFilter21processNineCellWindowEPfS0_S0_S0_S0_S0_S0_S0_S0_@Base {QGIS_ABI}
 _ZN19QgsRuggednessFilterC1ERK7QStringS2_S2_@Base {QGIS_ABI}
 _ZN19QgsRuggednessFilterC1Ev@Base {QGIS_ABI}
 _ZN19QgsRuggednessFilterC2ERK7QStringS2_S2_@Base {QGIS_ABI}
 _ZN19QgsRuggednessFilterC2Ev@Base {QGIS_ABI}
 _ZN19QgsRuggednessFilterD0Ev@Base {QGIS_ABI}
 _ZN19QgsRuggednessFilterD1Ev@Base {QGIS_ABI}
 _ZN19QgsRuggednessFilterD2Ev@Base {QGIS_ABI}
 _ZN20TriangleInterpolatorD0Ev@Base {QGIS_ABI}
 _ZN20TriangleInterpolatorD1Ev@Base {QGIS_ABI}
 _ZN21DualEdgeTriangulation10calcNormalEddP8Vector3D@Base {QGIS_ABI}
 _ZN21DualEdgeTriangulation10doOnlySwapEj@Base {QGIS_ABI}
 _ZN21DualEdgeTriangulation10insertEdgeEiiibb@Base {QGIS_ABI}
 _ZN21DualEdgeTriangulation11getTriangleEddP7Point3DPiS1_S2_S1_S2_@Base {QGIS_ABI}
 _ZN21DualEdgeTriangulation11getTriangleEddP7Point3DS1_S1_@Base {QGIS_ABI}
 _ZN21DualEdgeTriangulation11pointInsideEdd@Base {QGIS_ABI}
 _ZN21DualEdgeTriangulation12setEdgeColorEiii@Base {QGIS_ABI}
 _ZN21DualEdgeTriangulation12swapPossibleEj@Base {QGIS_ABI}
 _ZN21DualEdgeTriangulation13splitHalfEdgeEif@Base {QGIS_ABI}
 _ZN21DualEdgeTriangulation15baseEdgeOfPointEi@Base {QGIS_ABI}
 _ZN21DualEdgeTriangulation16edgeOnConvexHullEi@Base {QGIS_ABI}
 _ZN21DualEdgeTriangulation16getOppositePointEii@Base {QGIS_ABI}
 _ZN21DualEdgeTriangulation17ruppertRefinementEv@Base {QGIS_ABI}
 _ZN21DualEdgeTriangulation17setBreakEdgeColorEiii@Base {QGIS_ABI}
 _ZN21DualEdgeTriangulation18baseEdgeOfTriangleEP7Point3D@Base {QGIS_ABI}
 _ZN21DualEdgeTriangulation18setForcedEdgeColorEiii@Base {QGIS_ABI}
 _ZN21DualEdgeTriangulation18triangulatePolygonEP5QListIiES2_i@Base {QGIS_ABI}
 _ZN21DualEdgeTriangulation19getPointsAroundEdgeEdd@Base {QGIS_ABI}
 _ZN21DualEdgeTriangulation19insertForcedSegmentEiib@Base {QGIS_ABI}
 _ZN21DualEdgeTriangulation22performConsistencyTestEv@Base {QGIS_ABI}
 _ZN21DualEdgeTriangulation23evaluateInfluenceRegionEP7Point3DiPSt3setIiSt4lessIiESaIiEE@Base {QGIS_ABI}
 _ZN21DualEdgeTriangulation23getSurroundingTrianglesEi@Base {QGIS_ABI}
 _ZN21DualEdgeTriangulation23setForcedCrossBehaviourEN13Triangulation20forcedCrossBehaviourE@Base {QGIS_ABI}
 _ZN21DualEdgeTriangulation23setTriangleInterpolatorEP20TriangleInterpolator@Base {QGIS_ABI}
 _ZN21DualEdgeTriangulation28eliminateHorizontalTrianglesEv@Base {QGIS_ABI}
 _ZN21DualEdgeTriangulation6doSwapEj@Base {QGIS_ABI}
 _ZN21DualEdgeTriangulation7addLineEP6Line3Db@Base {QGIS_ABI}
 _ZN21DualEdgeTriangulation8addPointEP7Point3D@Base {QGIS_ABI}
 _ZN21DualEdgeTriangulation8swapEdgeEdd@Base {QGIS_ABI}
 _ZN21DualEdgeTriangulation9calcPointEddP7Point3D@Base {QGIS_ABI}
 _ZN21DualEdgeTriangulation9checkSwapEj@Base {QGIS_ABI}
 _ZN21DualEdgeTriangulationD0Ev@Base {QGIS_ABI}
 _ZN21DualEdgeTriangulationD1Ev@Base {QGIS_ABI}
 _ZN21DualEdgeTriangulationD2Ev@Base {QGIS_ABI}
 _ZN23LinTriangleInterpolator11calcNormVecEddP8Vector3D@Base {QGIS_ABI}
 _ZN23LinTriangleInterpolator13calcFirstDerXEddP8Vector3D@Base {QGIS_ABI}
 _ZN23LinTriangleInterpolator13calcFirstDerYEddP8Vector3D@Base {QGIS_ABI}
 _ZN23LinTriangleInterpolator16setTriangulationEP21DualEdgeTriangulation@Base {QGIS_ABI}
 _ZN23LinTriangleInterpolator9calcPointEddP7Point3D@Base {QGIS_ABI}
 _ZN23LinTriangleInterpolatorD0Ev@Base {QGIS_ABI}
 _ZN23LinTriangleInterpolatorD1Ev@Base {QGIS_ABI}
 _ZN23QgsTotalCurvatureFilter21processNineCellWindowEPfS0_S0_S0_S0_S0_S0_S0_S0_@Base {QGIS_ABI}
 _ZN23QgsTotalCurvatureFilterC1ERK7QStringS2_S2_@Base {QGIS_ABI}
 _ZN23QgsTotalCurvatureFilterC2ERK7QStringS2_S2_@Base {QGIS_ABI}
 _ZN23QgsTotalCurvatureFilterD0Ev@Base {QGIS_ABI}
 _ZN23QgsTotalCurvatureFilterD1Ev@Base {QGIS_ABI}
 _ZN23QgsTotalCurvatureFilterD2Ev@Base {QGIS_ABI}
 _ZN24CloughTocherInterpolator11calcNormVecEddP8Vector3D@Base {QGIS_ABI}
 _ZN24CloughTocherInterpolator16setTriangulationEP16NormVecDecorator@Base {QGIS_ABI}
 _ZN24CloughTocherInterpolator17calcBernsteinPolyEiiiiddd@Base {QGIS_ABI}
 _ZN24CloughTocherInterpolator4initEdd@Base {QGIS_ABI}
 _ZN24CloughTocherInterpolator9calcPointEddP7Point3D@Base {QGIS_ABI}
 _ZN24CloughTocherInterpolatorD0Ev@Base {QGIS_ABI}
 _ZN24CloughTocherInterpolatorD1Ev@Base {QGIS_ABI}
 _ZN4NodeC1ERKS_@Base {QGIS_ABI}
 _ZN4NodeC2ERKS_@Base {QGIS_ABI}
 _ZN4NodeaSERKS_@Base {QGIS_ABI}
 _ZN4QMapI7QStringiE8freeDataEP8QMapData@Base {QGIS_ABI}
 _ZN4QMapIi8QVariantE13detach_helperEv@Base {QGIS_ABI}
 _ZN4QMapIi8QVariantE6insertERKiRKS0_@Base {QGIS_ABI}
 _ZN4QMapIi8QVariantE8freeDataEP8QMapData@Base {QGIS_ABI}
 _ZN4QMapIi8QVariantED1Ev@Base {QGIS_ABI}
 _ZN4QMapIi8QgsFieldE11node_createEP8QMapDataPPNS2_4NodeERKiRKS0_@Base {QGIS_ABI}
 _ZN4QMapIi8QgsFieldE6detachEv@Base {QGIS_ABI}
 _ZN4QMapIi8QgsFieldE6insertERKiRKS0_@Base {QGIS_ABI}
 _ZN4QMapIi8QgsFieldE8freeDataEP8QMapData@Base {QGIS_ABI}
 _ZN4QMapIi8QgsFieldED1Ev@Base {QGIS_ABI}
 _ZN4QMapIiS_Ii8QVariantEE11node_createEP8QMapDataPPNS3_4NodeERKiRKS1_@Base {QGIS_ABI}
 _ZN4QMapIiS_Ii8QVariantEE8freeDataEP8QMapData@Base {QGIS_ABI}
 _ZN4QSetIiEC1ERKS0_@Base {QGIS_ABI}
 _ZN4QSetIiED1Ev@Base {QGIS_ABI}
 _ZN5QHashIi15QHashDummyValueE13duplicateNodeEPN9QHashData4NodeEPv@Base {QGIS_ABI}
 _ZN5QHashIi15QHashDummyValueE8freeDataEP9QHashData@Base {QGIS_ABI}
 _ZN5QListI7QStringE4freeEPN9QListData4DataE@Base {QGIS_ABI}
 _ZN5QListI7QStringE6appendERKS0_@Base {QGIS_ABI}
 _ZN5QListI8QgsFieldE4freeEPN9QListData4DataE@Base {QGIS_ABI}
 _ZN5QListI8QgsFieldE6appendERKS0_@Base {QGIS_ABI}
 _ZN5QListIN15QgsInterpolator9LayerDataEE13detach_helperEv@Base {QGIS_ABI}
 _ZN5QListIN15QgsInterpolator9LayerDataEE4freeEPN9QListData4DataE@Base {QGIS_ABI}
 _ZN5QListIN15QgsInterpolator9LayerDataEED1Ev@Base {QGIS_ABI}
 _ZN5QListIdE13detach_helperEv@Base {QGIS_ABI}
 _ZN5QListIdE4freeEPN9QListData4DataE@Base {QGIS_ABI}
 _ZN5QListIdE6appendERKd@Base {QGIS_ABI}
 _ZN5QListIdED1Ev@Base {QGIS_ABI}
 _ZN5QListIiE13detach_helperEv@Base {QGIS_ABI}
 _ZN5QListIiE4lastEv@Base {QGIS_ABI}
 _ZN5QListIiE5beginEv@Base {QGIS_ABI}
 _ZN5QListIiE5eraseENS0_8iteratorE@Base {QGIS_ABI}
 _ZN5QListIiE5firstEv@Base {QGIS_ABI}
 _ZN5QListIiE6appendERKi@Base {QGIS_ABI}
 _ZN5QListIiE6detachEv@Base {QGIS_ABI}
 _ZN5QListIiE7prependERKi@Base {QGIS_ABI}
 _ZN5QListIiE9pop_frontEv@Base {QGIS_ABI}
 _ZN5QListIiED1Ev@Base {QGIS_ABI}
 _ZN5QListIiEixEi@Base {QGIS_ABI}
 _ZN6Line3D11insertPointEP7Point3D@Base {QGIS_ABI}
 _ZN6Line3D11removePointEv@Base {QGIS_ABI}
 _ZN6Line3D8goToNextEv@Base {QGIS_ABI}
 _ZN6Line3D9goToBeginEv@Base {QGIS_ABI}
 _ZN6Line3DC1Ev@Base {QGIS_ABI}
 _ZN6Line3DC2Ev@Base {QGIS_ABI}
 _ZN6Line3DD1Ev@Base {QGIS_ABI}
 _ZN6Line3DD2Ev@Base {QGIS_ABI}
 _ZN7Point3DaSERKS_@Base {QGIS_ABI}
 _ZN7Point3DeqERKS_@Base {QGIS_ABI}
 _ZN7Point3DneERKS_@Base {QGIS_ABI}
 _ZN7QStringC1EPKc@Base {QGIS_ABI}
 _ZN7QStringD1Ev@Base {QGIS_ABI}
 _ZN7QVectorI10vertexDataE7reallocEii@Base {QGIS_ABI}
 _ZN7QVectorI10vertexDataED1Ev@Base {QGIS_ABI}
 _ZN7QVectorI8QgsPointE6appendERKS0_@Base {QGIS_ABI}
 _ZN7QVectorI8QgsPointE7reallocEii@Base {QGIS_ABI}
 _ZN7QVectorIN16NormVecDecorator10pointStateEE7reallocEii@Base {QGIS_ABI}
 _ZN7QVectorIN16NormVecDecorator10pointStateEEixEi@Base {QGIS_ABI}
 _ZN7QVectorIP7Point3DE6removeEi@Base {QGIS_ABI}
 _ZN7QVectorIP7Point3DE7reallocEii@Base {QGIS_ABI}
 _ZN7QVectorIP7Point3DE7reserveEi@Base {QGIS_ABI}
 _ZN7QVectorIP7Point3DED1Ev@Base {QGIS_ABI}
 _ZN7QVectorIP7Point3DEixEi@Base {QGIS_ABI}
 _ZN7QVectorIP8HalfEdgeE7reallocEii@Base {QGIS_ABI}
 _ZN7QVectorIP8HalfEdgeE7reserveEi@Base {QGIS_ABI}
 _ZN7QVectorIP8HalfEdgeED1Ev@Base {QGIS_ABI}
 _ZN7QVectorIP8HalfEdgeEixEi@Base {QGIS_ABI}
 _ZN7QVectorIP8Vector3DE6insertEiRKS1_@Base {QGIS_ABI}
 _ZN7QVectorIP8Vector3DE6resizeEi@Base {QGIS_ABI}
 _ZN7QVectorIP8Vector3DE7reallocEii@Base {QGIS_ABI}
 _ZN7QVectorIP8Vector3DEixEi@Base {QGIS_ABI}
 _ZN7QVectorIS_I8QgsPointEE4freeEP16QVectorTypedDataIS1_E@Base {QGIS_ABI}
 _ZN7QVectorIS_I8QgsPointEE7reallocEii@Base {QGIS_ABI}
 _ZN7QVectorIS_I8QgsPointEED1Ev@Base {QGIS_ABI}
 _ZN7QVectorIS_IS_I8QgsPointEEE4freeEP16QVectorTypedDataIS2_E@Base {QGIS_ABI}
 _ZN7QVectorIS_IS_I8QgsPointEEE7reallocEii@Base {QGIS_ABI}
 _ZN8Bezier3D10calcSecDerEfP8Vector3D@Base {QGIS_ABI}
 _ZN8Bezier3D12calcFirstDerEfP8Vector3D@Base {QGIS_ABI}
 _ZN8Bezier3D14setControlPolyEP7QVectorIP7Point3DE@Base {QGIS_ABI}
 _ZN8Bezier3D15changeDirectionEv@Base {QGIS_ABI}
 _ZN8Bezier3D3addEP14ParametricLine@Base {QGIS_ABI}
 _ZN8Bezier3D6removeEi@Base {QGIS_ABI}
 _ZN8Bezier3D9calcPointEfP7Point3D@Base {QGIS_ABI}
 _ZN8Bezier3D9setParentEP14ParametricLine@Base {QGIS_ABI}
 _ZN8Bezier3DD0Ev@Base {QGIS_ABI}
 _ZN8Bezier3DD1Ev@Base {QGIS_ABI}
 _ZN8Vector3D11standardiseEv@Base {QGIS_ABI}
 _ZN8Vector3DaSERKS_@Base {QGIS_ABI}
 _ZN8Vector3DeqERKS_@Base {QGIS_ABI}
 _ZN8Vector3DneERKS_@Base {QGIS_ABI}
 _ZN9MathUtils10normalLeftEP8Vector3DS1_d@Base {QGIS_ABI}
 _ZN9MathUtils11inDiametralEP7Point3DS1_S1_@Base {QGIS_ABI}
 _ZN9MathUtils11normalRightEP8Vector3DS1_d@Base {QGIS_ABI}
 _ZN9MathUtils12circumcenterEP7Point3DS1_S1_S1_@Base {QGIS_ABI}
 _ZN9MathUtils15BarycentricToXYEdddP7Point3DS1_S1_S1_@Base {QGIS_ABI}
 _ZN9MathUtils16lineIntersectionEP7Point3DS1_S1_S1_@Base {QGIS_ABI}
 _ZN9MathUtils16lineIntersectionEP7Point3DS1_S1_S1_S1_@Base {QGIS_ABI}
 _ZN9MathUtils16normalFromPointsEP7Point3DS1_S1_P8Vector3D@Base {QGIS_ABI}
 _ZN9MathUtils17calcBernsteinPolyEiid@Base {QGIS_ABI}
 _ZN9MathUtils17distPointFromLineEP7Point3DS1_S1_@Base {QGIS_ABI}
 _ZN9MathUtils17normalMinDistanceEP8Vector3DS1_S1_@Base {QGIS_ABI}
 _ZN9MathUtils18cFDerBernsteinPolyEiid@Base {QGIS_ABI}
 _ZN9MathUtils19pointInsideTriangleEddP7Point3DS1_S1_@Base {QGIS_ABI}
 _ZN9MathUtils20calcCubicHermitePolyEiid@Base {QGIS_ABI}
 _ZN9MathUtils21cFDerCubicHermitePolyEiid@Base {QGIS_ABI}
 _ZN9MathUtils26calcBarycentricCoordinatesEddP7Point3DS1_S1_S1_@Base {QGIS_ABI}
 _ZN9MathUtils3maxEdd@Base {QGIS_ABI}
 _ZN9MathUtils3minEdd@Base {QGIS_ABI}
 _ZN9MathUtils5angleEP7Point3DS1_S1_S1_@Base {QGIS_ABI}
 _ZN9MathUtils5lowerEii@Base {QGIS_ABI}
 _ZN9MathUtils5powerEdi@Base {QGIS_ABI}
 _ZN9MathUtils6derVecEPK8Vector3DS2_PS0_dd@Base {QGIS_ABI}
 _ZN9MathUtils6leftOfEP7Point3DS1_S1_@Base {QGIS_ABI}
 _ZN9MathUtils7facultyEi@Base {QGIS_ABI}
 _ZN9MathUtils7triAreaEP7Point3DS1_S1_@Base {QGIS_ABI}
 _ZN9MathUtils8crossVecEP7Point3DP8Vector3DS1_S3_@Base {QGIS_ABI}
 _ZN9MathUtils8inCircleEP7Point3DS1_S1_S1_@Base {QGIS_ABI}
 _ZN9MathUtils9planeTestEP7Point3DS1_S1_S1_@Base {QGIS_ABI}
 _ZN9QMultiMapI7QStringiED1Ev@Base {QGIS_ABI}
 _ZNK12TriDecorator17getNumberOfPointsEv@Base {QGIS_ABI}
 _ZNK12TriDecorator7getXMaxEv@Base {QGIS_ABI}
 _ZNK12TriDecorator7getXMinEv@Base {QGIS_ABI}
 _ZNK12TriDecorator7getYMaxEv@Base {QGIS_ABI}
 _ZNK12TriDecorator7getYMinEv@Base {QGIS_ABI}
 _ZNK12TriDecorator8getPointEj@Base {QGIS_ABI}
 _ZNK14ParametricLine14getControlPolyEv@Base {QGIS_ABI}
 _ZNK14ParametricLine15getControlPointEi@Base {QGIS_ABI}
 _ZNK14ParametricLine9getDegreeEv@Base {QGIS_ABI}
 _ZNK14ParametricLine9getParentEv@Base {QGIS_ABI}
 _ZNK16NormVecDecorator15saveAsShapefileERK7QString@Base {QGIS_ABI}
 _ZNK16NormVecDecorator8getStateEi@Base {QGIS_ABI}
 _ZNK18QgsZonalStatistics15cellInfoForBBoxERK12QgsRectangleS2_ddRiS3_S3_S3_@Base {QGIS_ABI}
 _ZNK21DualEdgeTriangulation12swapMinAngleEi@Base {QGIS_ABI}
 _ZNK21DualEdgeTriangulation15saveAsShapefileERK7QString@Base {QGIS_ABI}
 _ZNK21DualEdgeTriangulation17getNumberOfPointsEv@Base {QGIS_ABI}
 _ZNK21DualEdgeTriangulation7getXMaxEv@Base {QGIS_ABI}
 _ZNK21DualEdgeTriangulation7getXMinEv@Base {QGIS_ABI}
 _ZNK21DualEdgeTriangulation7getYMaxEv@Base {QGIS_ABI}
 _ZNK21DualEdgeTriangulation7getYMinEv@Base {QGIS_ABI}
 _ZNK21DualEdgeTriangulation8getPointEj@Base {QGIS_ABI}
 _ZNK23LinTriangleInterpolator16getTriangulationEv@Base {QGIS_ABI}
 _ZNK5QListIiE2atEi@Base {QGIS_ABI}
 _ZNK6Line3D5emptyEv@Base {QGIS_ABI}
 _ZNK7Point3D6dist3DEPS_@Base {QGIS_ABI}
 _ZNK7QVectorIP8HalfEdgeE2atEi@Base {QGIS_ABI}
 _ZNK8Bezier3D14getControlPolyEv@Base {QGIS_ABI}
 _ZNK8Bezier3D15getControlPointEi@Base {QGIS_ABI}
 _ZNK8Bezier3D9getDegreeEv@Base {QGIS_ABI}
 _ZNK8Bezier3D9getParentEv@Base {QGIS_ABI}
 _ZNK8Vector3D9getLengthEv@Base {QGIS_ABI}
 _ZNSt3setIiSt4lessIiESaIiEE6insertERKi@Base {QGIS_ABI}
 _ZNSt3setIiSt4lessIiESaIiEED1Ev@Base {QGIS_ABI}
 _ZNSt8_Rb_treeIdSt4pairIKdiESt10_Select1stIS2_ESt4lessIdESaIS2_EE8_M_eraseEPSt13_Rb_tree_nodeIS2_E@Base {QGIS_ABI}
 _ZNSt8_Rb_treeIiSt4pairIKidESt10_Select1stIS2_ESt4lessIiESaIS2_EE10_M_insert_EPKSt18_Rb_tree_node_baseSB_RKS2_@Base {QGIS_ABI}
 _ZNSt8_Rb_treeIiSt4pairIKidESt10_Select1stIS2_ESt4lessIiESaIS2_EE8_M_eraseEPSt13_Rb_tree_nodeIS2_E@Base {QGIS_ABI}
 _ZNSt8_Rb_treeIiiSt9_IdentityIiESt4lessIiESaIiEE10_M_insert_EPKSt18_Rb_tree_node_baseS8_RKi@Base {QGIS_ABI}
 _ZNSt8_Rb_treeIiiSt9_IdentityIiESt4lessIiESaIiEE8_M_eraseEPSt13_Rb_tree_nodeIiE@Base {QGIS_ABI}
 _ZTI12TriDecorator@Base {QGIS_ABI}
 _ZTI13Triangulation@Base {QGIS_ABI}
 _ZTI14ParametricLine@Base {QGIS_ABI}
 _ZTI14QgsSlopeFilter@Base {QGIS_ABI}
 _ZTI15QgsAspectFilter@Base {QGIS_ABI}
 _ZTI15QgsInterpolator@Base {QGIS_ABI}
 _ZTI16NormVecDecorator@Base {QGIS_ABI}
 _ZTI17QgsNineCellFilter@Base {QGIS_ABI}
 _ZTI18QgsIDWInterpolator@Base {QGIS_ABI}
 _ZTI18QgsTINInterpolator@Base {QGIS_ABI}
 _ZTI19QgsDerivativeFilter@Base {QGIS_ABI}
 _ZTI19QgsRuggednessFilter@Base {QGIS_ABI}
 _ZTI20TriangleInterpolator@Base {QGIS_ABI}
 _ZTI21DualEdgeTriangulation@Base {QGIS_ABI}
 _ZTI23LinTriangleInterpolator@Base {QGIS_ABI}
 _ZTI23QgsTotalCurvatureFilter@Base {QGIS_ABI}
 _ZTI24CloughTocherInterpolator@Base {QGIS_ABI}
 _ZTI8Bezier3D@Base {QGIS_ABI}
 _ZTS12TriDecorator@Base {QGIS_ABI}
 _ZTS13Triangulation@Base {QGIS_ABI}
 _ZTS14ParametricLine@Base {QGIS_ABI}
 _ZTS14QgsSlopeFilter@Base {QGIS_ABI}
 _ZTS15QgsAspectFilter@Base {QGIS_ABI}
 _ZTS15QgsInterpolator@Base {QGIS_ABI}
 _ZTS16NormVecDecorator@Base {QGIS_ABI}
 _ZTS17QgsNineCellFilter@Base {QGIS_ABI}
 _ZTS18QgsIDWInterpolator@Base {QGIS_ABI}
 _ZTS18QgsTINInterpolator@Base {QGIS_ABI}
 _ZTS19QgsDerivativeFilter@Base {QGIS_ABI}
 _ZTS19QgsRuggednessFilter@Base {QGIS_ABI}
 _ZTS20TriangleInterpolator@Base {QGIS_ABI}
 _ZTS21DualEdgeTriangulation@Base {QGIS_ABI}
 _ZTS23LinTriangleInterpolator@Base {QGIS_ABI}
 _ZTS23QgsTotalCurvatureFilter@Base {QGIS_ABI}
 _ZTS24CloughTocherInterpolator@Base {QGIS_ABI}
 _ZTS8Bezier3D@Base {QGIS_ABI}
 _ZTV12TriDecorator@Base {QGIS_ABI}
 _ZTV13Triangulation@Base {QGIS_ABI}
 _ZTV14ParametricLine@Base {QGIS_ABI}
 _ZTV14QgsSlopeFilter@Base {QGIS_ABI}
 _ZTV15QgsAspectFilter@Base {QGIS_ABI}
 _ZTV15QgsInterpolator@Base {QGIS_ABI}
 _ZTV16NormVecDecorator@Base {QGIS_ABI}
 _ZTV17QgsNineCellFilter@Base {QGIS_ABI}
 _ZTV18QgsIDWInterpolator@Base {QGIS_ABI}
 _ZTV18QgsTINInterpolator@Base {QGIS_ABI}
 _ZTV19QgsDerivativeFilter@Base {QGIS_ABI}
 _ZTV19QgsRuggednessFilter@Base {QGIS_ABI}
 _ZTV20TriangleInterpolator@Base {QGIS_ABI}
 _ZTV21DualEdgeTriangulation@Base {QGIS_ABI}
 _ZTV23LinTriangleInterpolator@Base {QGIS_ABI}
 _ZTV23QgsTotalCurvatureFilter@Base {QGIS_ABI}
 _ZTV24CloughTocherInterpolator@Base {QGIS_ABI}
 _ZTV8Bezier3D@Base {QGIS_ABI}
 _ZplRK7QStringPKc@Base {QGIS_ABI}
 leftOfTresh@Base {QGIS_ABI}
libqgis_core.so.{QGIS_ABI} libqgis{QGIS_ABI} #MINVER#
 _Z10offsetLine9QPolygonFd@Base {QGIS_ABI}
 _Z10yyget_lengv@Base {QGIS_ABI}
 _Z10yyget_textv@Base {QGIS_ABI}
 _Z11yyget_debugv@Base {QGIS_ABI}
 _Z11yyset_debugi@Base {QGIS_ABI}
 _Z12joinTmpNodesP17QgsSearchTreeNodeS0_S0_@Base {QGIS_ABI}
 _Z12yyget_linenov@Base {QGIS_ABI}
 _Z12yyset_linenoi@Base {QGIS_ABI}
 _Z13addToTmpNodesP17QgsSearchTreeNode@Base {QGIS_ABI}
 _Z13qvariant_castI5QIconET_RK8QVariant@Base {QGIS_ABI}
 _Z13qvariant_castI7QStringET_RK8QVariant@Base {QGIS_ABI}
 _Z13yy_scan_bytesPKci@Base {QGIS_ABI}
 _Z13yylex_destroyv@Base {QGIS_ABI}
 _Z14yy_scan_bufferPcj@Base {QGIS_ABI}
 _Z14yy_scan_bufferPcm@Base {QGIS_ABI}
 _Z14yy_scan_stringPKc@Base {QGIS_ABI}
 _Z15yy_flush_bufferP15yy_buffer_state@Base {QGIS_ABI}
 _Z16progressCallbackdPKcPv@Base {QGIS_ABI}
 _Z16set_input_bufferPKc@Base {QGIS_ABI}
 _Z16yy_create_bufferP8_IO_FILEi@Base {QGIS_ABI}
 _Z16yy_delete_bufferP15yy_buffer_state@Base {QGIS_ABI}
 _Z17parseSearchStringRK7QStringRS_@Base {QGIS_ABI}
 _Z18yypop_buffer_statev@Base {QGIS_ABI}
 _Z19yy_switch_to_bufferP15yy_buffer_state@Base {QGIS_ABI}
 _Z19yypush_buffer_stateP15yy_buffer_state@Base {QGIS_ABI}
 _Z23qStringComparisonHelperRK7QStringPKc@Base {QGIS_ABI}
 _Z5yylexv@Base {QGIS_ABI}
 _Z6choosemm@Base {QGIS_ABI}
 _Z6finderPKc@Base {QGIS_ABI}
 _Z6yyfreePv@Base {QGIS_ABI}
 _Z7yyallocj@Base {QGIS_ABI}
 _Z7yyallocm@Base {QGIS_ABI}
 _Z7yyerrorPKc@Base {QGIS_ABI}
 _Z7yyparsev@Base {QGIS_ABI}
 _Z8yyget_inv@Base {QGIS_ABI}
 _Z8yyset_inP8_IO_FILE@Base {QGIS_ABI}
 _Z9qMakePairI7QString7QPixmapE5QPairIT_T0_ERKS3_RKS4_@Base {QGIS_ABI}
 _Z9yyget_outv@Base {QGIS_ABI}
 _Z9yyreallocPvj@Base {QGIS_ABI}
 _Z9yyreallocPvm@Base {QGIS_ABI}
 _Z9yyrestartP8_IO_FILE@Base {QGIS_ABI}
 _Z9yyset_outP8_IO_FILE@Base {QGIS_ABI}
 _ZN10QByteArray4dataEv@Base {QGIS_ABI}
 _ZN10QByteArrayD1Ev@Base {QGIS_ABI}
 _ZN10QTextCodec12codecForNameEPKc@Base {QGIS_ABI}
 _ZN10QgsClipper21trimFeatureToBoundaryERKSt6vectorIdSaIdEES4_RS2_S5_NS_8BoundaryEb@Base {QGIS_ABI}
 _ZN10QgsClipper5MAX_XE@Base {QGIS_ABI}
 _ZN10QgsClipper5MAX_YE@Base {QGIS_ABI}
 _ZN10QgsClipper5MIN_XE@Base {QGIS_ABI}
 _ZN10QgsClipper5MIN_YE@Base {QGIS_ABI}
 _ZN10QgsClipper9SMALL_NUME@Base {QGIS_ABI}
 _ZN10QgsFeature11setGeometryEP11QgsGeometry@Base {QGIS_ABI}
 _ZN10QgsFeature11setGeometryERK11QgsGeometry@Base {QGIS_ABI}
 _ZN10QgsFeature11setTypeNameE7QString@Base {QGIS_ABI}
 _ZN10QgsFeature12addAttributeEi8QVariant@Base {QGIS_ABI}
 _ZN10QgsFeature12setFeatureIdEi@Base {QGIS_ABI}
 _ZN10QgsFeature15changeAttributeEi8QVariant@Base {QGIS_ABI}
 _ZN10QgsFeature15deleteAttributeEi@Base {QGIS_ABI}
 _ZN10QgsFeature15setAttributeMapERK4QMapIi8QVariantE@Base {QGIS_ABI}
 _ZN10QgsFeature20geometryAndOwnershipEv@Base {QGIS_ABI}
 _ZN10QgsFeature23setGeometryAndOwnershipEPhj@Base {QGIS_ABI}
 _ZN10QgsFeature23setGeometryAndOwnershipEPhm@Base {QGIS_ABI}
 _ZN10QgsFeature5cleanEv@Base {QGIS_ABI}
 _ZN10QgsFeature8geometryEv@Base {QGIS_ABI}
 _ZN10QgsFeature8setValidEb@Base {QGIS_ABI}
 _ZN10QgsFeatureC1ERKS_@Base {QGIS_ABI}
 _ZN10QgsFeatureC1Ei7QString@Base {QGIS_ABI}
 _ZN10QgsFeatureC2ERKS_@Base {QGIS_ABI}
 _ZN10QgsFeatureC2Ei7QString@Base {QGIS_ABI}
 _ZN10QgsFeatureD1Ev@Base {QGIS_ABI}
 _ZN10QgsFeatureD2Ev@Base {QGIS_ABI}
 _ZN10QgsFeatureaSERKS_@Base {QGIS_ABI}
 _ZN10QgsProject10clearErrorEv@Base {QGIS_ABI}
 _ZN10QgsProject10writeEntryERK7QStringS2_RK11QStringList@Base {QGIS_ABI}
 _ZN10QgsProject10writeEntryERK7QStringS2_S2_@Base {QGIS_ABI}
 _ZN10QgsProject10writeEntryERK7QStringS2_b@Base {QGIS_ABI}
 _ZN10QgsProject10writeEntryERK7QStringS2_d@Base {QGIS_ABI}
 _ZN10QgsProject10writeEntryERK7QStringS2_i@Base {QGIS_ABI}
 _ZN10QgsProject11layerLoadedEii@Base {QGIS_ABI}
 _ZN10QgsProject11qt_metacallEN11QMetaObject4CallEiPPv@Base {QGIS_ABI}
 _ZN10QgsProject11qt_metacastEPKc@Base {QGIS_ABI}
 _ZN10QgsProject11readProjectERK12QDomDocument@Base {QGIS_ABI}
 _ZN10QgsProject11removeEntryERK7QStringS2_@Base {QGIS_ABI}
 _ZN10QgsProject11setFileNameERK7QString@Base {QGIS_ABI}
 _ZN10QgsProject11theProject_E@Base {QGIS_ABI}
 _ZN10QgsProject12writeProjectER12QDomDocument@Base {QGIS_ABI}
 _ZN10QgsProject13_getMapLayersERK12QDomDocument@Base {QGIS_ABI}
 _ZN10QgsProject15clearPropertiesEv@Base {QGIS_ABI}
 _ZN10QgsProject16staticMetaObjectE@Base {QGIS_ABI}
 _ZN10QgsProject18setBadLayerHandlerEP25QgsProjectBadLayerHandler@Base {QGIS_ABI}
 _ZN10QgsProject24oldProjectVersionWarningE7QString@Base {QGIS_ABI}
 _ZN10QgsProject3Imp5clearEv@Base {QGIS_ABI}
 _ZN10QgsProject4readER8QDomNode@Base {QGIS_ABI}
 _ZN10QgsProject4readERK9QFileInfo@Base {QGIS_ABI}
 _ZN10QgsProject4readEv@Base {QGIS_ABI}
 _ZN10QgsProject5dirtyEb@Base {QGIS_ABI}
 _ZN10QgsProject5titleERK7QString@Base {QGIS_ABI}
 _ZN10QgsProject5writeERK9QFileInfo@Base {QGIS_ABI}
 _ZN10QgsProject5writeEv@Base {QGIS_ABI}
 _ZN10QgsProject8instanceEv@Base {QGIS_ABI}
 _ZN10QgsProject8setErrorE7QString@Base {QGIS_ABI}
 _ZN10QgsProjectC1Ev@Base {QGIS_ABI}
 _ZN10QgsProjectC2Ev@Base {QGIS_ABI}
 _ZN10QgsProjectD0Ev@Base {QGIS_ABI}
 _ZN10QgsProjectD1Ev@Base {QGIS_ABI}
 _ZN10QgsProjectD2Ev@Base {QGIS_ABI}
 _ZN10QgsSnapper11setSnapModeENS_12SnappingModeE@Base {QGIS_ABI}
 _ZN10QgsSnapper13setSnapLayersERK5QListINS_9SnapLayerEE@Base {QGIS_ABI}
 _ZN10QgsSnapper9snapPointERK6QPointR5QListI17QgsSnappingResultERKS3_I8QgsPointE@Base {QGIS_ABI}
 _ZN10QgsSnapperC1EP14QgsMapRenderer@Base {QGIS_ABI}
 _ZN10QgsSnapperC1Ev@Base {QGIS_ABI}
 _ZN10QgsSnapperC2EP14QgsMapRenderer@Base {QGIS_ABI}
 _ZN10QgsSnapperC2Ev@Base {QGIS_ABI}
 _ZN10QgsSnapperD1Ev@Base {QGIS_ABI}
 _ZN10QgsSnapperD2Ev@Base {QGIS_ABI}
 _ZN10QgsStyleV211symbolCountEv@Base {QGIS_ABI}
 _ZN10QgsStyleV211symbolNamesEv@Base {QGIS_ABI}
 _ZN10QgsStyleV212addColorRampE7QStringP20QgsVectorColorRampV2@Base {QGIS_ABI}
 _ZN10QgsStyleV212defaultStyleEv@Base {QGIS_ABI}
 _ZN10QgsStyleV212removeSymbolE7QString@Base {QGIS_ABI}
 _ZN10QgsStyleV213mDefaultStyleE@Base {QGIS_ABI}
 _ZN10QgsStyleV214colorRampCountEv@Base {QGIS_ABI}
 _ZN10QgsStyleV214colorRampNamesEv@Base {QGIS_ABI}
 _ZN10QgsStyleV215removeColorRampE7QString@Base {QGIS_ABI}
 _ZN10QgsStyleV24loadE7QString@Base {QGIS_ABI}
 _ZN10QgsStyleV24saveE7QString@Base {QGIS_ABI}
 _ZN10QgsStyleV25clearEv@Base {QGIS_ABI}
 _ZN10QgsStyleV26symbolE7QString@Base {QGIS_ABI}
 _ZN10QgsStyleV29addSymbolE7QStringP11QgsSymbolV2@Base {QGIS_ABI}
 _ZN10QgsStyleV29colorRampE7QString@Base {QGIS_ABI}
 _ZN10QgsStyleV2C1Ev@Base {QGIS_ABI}
 _ZN10QgsStyleV2C2Ev@Base {QGIS_ABI}
 _ZN10QgsStyleV2D1Ev@Base {QGIS_ABI}
 _ZN10QgsStyleV2D2Ev@Base {QGIS_ABI}
 _ZN11QLinkedListIP15QgsComposerItemE4freeEP15QLinkedListData@Base {QGIS_ABI}
 _ZN11QLinkedListIP15QgsComposerItemED1Ev@Base {QGIS_ABI}
 _ZN11QStringListD1Ev@Base {QGIS_ABI}
 _ZN11QgisVisitor9visitDataERKN12SpatialIndex5IDataE@Base {QGIS_ABI}
 _ZN11QgisVisitor9visitDataERSt6vectorIPKN12SpatialIndex5IDataESaIS4_EE@Base {QGIS_ABI}
 _ZN11QgisVisitor9visitNodeERKN12SpatialIndex5INodeE@Base {QGIS_ABI}
 _ZN11QgisVisitorD0Ev@Base {QGIS_ABI}
 _ZN11QgisVisitorD1Ev@Base {QGIS_ABI}
 _ZN11QgsGeometry10asPolylineERPhb@Base {QGIS_ABI}
 _ZN11QgsGeometry10asPolylineEv@Base {QGIS_ABI}
 _ZN11QgsGeometry10convexHullEv@Base {QGIS_ABI}
 _ZN11QgsGeometry10deletePartEi@Base {QGIS_ABI}
 _ZN11QgsGeometry10deleteRingEii@Base {QGIS_ABI}
 _ZN11QgsGeometry10differenceEPS_@Base {QGIS_ABI}
 _ZN11QgsGeometry10intersectsEPS_@Base {QGIS_ABI}
 _ZN11QgsGeometry10intersectsERK12QgsRectangle@Base {QGIS_ABI}
 _ZN11QgsGeometry10moveVertexEddi@Base {QGIS_ABI}
 _ZN11QgsGeometry11boundingBoxEv@Base {QGIS_ABI}
 _ZN11QgsGeometry11exportToWktEv@Base {QGIS_ABI}
 _ZN11QgsGeometry11fromPolygonERK7QVectorIS0_I8QgsPointEE@Base {QGIS_ABI}
 _ZN11QgsGeometry11isMultipartEv@Base {QGIS_ABI}
 _ZN11QgsGeometry11reshapeLineEPK10GEOSGeom_tS2_@Base {QGIS_ABI}
 _ZN11QgsGeometry12asMultiPointEv@Base {QGIS_ABI}
 _ZN11QgsGeometry12deleteVertexEi@Base {QGIS_ABI}
 _ZN11QgsGeometry12fromPolylineERK7QVectorI8QgsPointE@Base {QGIS_ABI}
 _ZN11QgsGeometry12insertVertexEddi@Base {QGIS_ABI}
 _ZN11QgsGeometry12insertVertexEddiPK14GEOSCoordSeq_tPPS0_@Base {QGIS_ABI}
 _ZN11QgsGeometry12intersectionEPS_@Base {QGIS_ABI}
 _ZN11QgsGeometry13closestVertexERK8QgsPointRiS3_S3_Rd@Base {QGIS_ABI}
 _ZN11QgsGeometry13splitGeometryERK5QListI8QgsPointERS0_IPS_EbRS2_@Base {QGIS_ABI}
 _ZN11QgsGeometry13symDifferenceEPS_@Base {QGIS_ABI}
 _ZN11QgsGeometry14asMultiPolygonEv@Base {QGIS_ABI}
 _ZN11QgsGeometry14fromMultiPointERK7QVectorI8QgsPointE@Base {QGIS_ABI}
 _ZN11QgsGeometry14makeDifferenceEPS_@Base {QGIS_ABI}
 _ZN11QgsGeometry14nodeGeometriesEPK10GEOSGeom_tS2_@Base {QGIS_ABI}
 _ZN11QgsGeometry14reshapePolygonEPK10GEOSGeom_tS2_@Base {QGIS_ABI}
 _ZN11QgsGeometry15asMultiPolylineEv@Base {QGIS_ABI}
 _ZN11QgsGeometry15exportGeosToWkbEv@Base {QGIS_ABI}
 _ZN11QgsGeometry15exportWkbToGeosEv@Base {QGIS_ABI}
 _ZN11QgsGeometry15reshapeGeometryERK5QListI8QgsPointE@Base {QGIS_ABI}
 _ZN11QgsGeometry15transformVertexERiRK22QgsCoordinateTransformb@Base {QGIS_ABI}
 _ZN11QgsGeometry15translateVertexERiddb@Base {QGIS_ABI}
 _ZN11QgsGeometry16adjacentVerticesEiRiS0_@Base {QGIS_ABI}
 _ZN11QgsGeometry16fromMultiPolygonERK7QVectorIS0_IS0_I8QgsPointEEE@Base {QGIS_ABI}
 _ZN11QgsGeometry17fromMultiPolylineERK7QVectorIS0_I8QgsPointEE@Base {QGIS_ABI}
 _ZN11QgsGeometry17sqrDistToVertexAtER8QgsPointi@Base {QGIS_ABI}
 _ZN11QgsGeometry18convertToMultiTypeEv@Base {QGIS_ABI}
 _ZN11QgsGeometry19lineContainedInLineEPK10GEOSGeom_tS2_@Base {QGIS_ABI}
 _ZN11QgsGeometry19splitLinearGeometryEP10GEOSGeom_tR5QListIPS_E@Base {QGIS_ABI}
 _ZN11QgsGeometry20asGeometryCollectionEv@Base {QGIS_ABI}
 _ZN11QgsGeometry20pointContainedInLineEPK10GEOSGeom_tS2_@Base {QGIS_ABI}
 _ZN11QgsGeometry20splitPolygonGeometryEP10GEOSGeom_tR5QListIPS_E@Base {QGIS_ABI}
 _ZN11QgsGeometry24closestVertexWithContextERK8QgsPointRi@Base {QGIS_ABI}
 _ZN11QgsGeometry25closestSegmentWithContextERK8QgsPointRS0_Ri@Base {QGIS_ABI}
 _ZN11QgsGeometry29distanceSquaredPointToSegmentERK8QgsPointPdS3_S3_S3_RS0_@Base {QGIS_ABI}
 _ZN11QgsGeometry29mergeGeometriesMultiTypeSplitER7QVectorIP10GEOSGeom_tE@Base {QGIS_ABI}
 _ZN11QgsGeometry4typeEv@Base {QGIS_ABI}
 _ZN11QgsGeometry5asWkbEv@Base {QGIS_ABI}
 _ZN11QgsGeometry6asGeosEv@Base {QGIS_ABI}
 _ZN11QgsGeometry6bufferEdi@Base {QGIS_ABI}
 _ZN11QgsGeometry7addRingERK5QListI8QgsPointE@Base {QGIS_ABI}
 _ZN11QgsGeometry7asPointERPhb@Base {QGIS_ABI}
 _ZN11QgsGeometry7asPointEv@Base {QGIS_ABI}
 _ZN11QgsGeometry7combineEPS_@Base {QGIS_ABI}
 _ZN11QgsGeometry7fromWkbEPhj@Base {QGIS_ABI}
 _ZN11QgsGeometry7fromWkbEPhm@Base {QGIS_ABI}
 _ZN11QgsGeometry7fromWktE7QString@Base {QGIS_ABI}
 _ZN11QgsGeometry7wkbSizeEv@Base {QGIS_ABI}
 _ZN11QgsGeometry7wkbTypeEv@Base {QGIS_ABI}
 _ZN11QgsGeometry8centroidEv@Base {QGIS_ABI}
 _ZN11QgsGeometry8containsEP8QgsPoint@Base {QGIS_ABI}
 _ZN11QgsGeometry8distanceERS_@Base {QGIS_ABI}
 _ZN11QgsGeometry8fromGeosEP10GEOSGeom_t@Base {QGIS_ABI}
 _ZN11QgsGeometry8fromRectERK12QgsRectangle@Base {QGIS_ABI}
 _ZN11QgsGeometry8simplifyEd@Base {QGIS_ABI}
 _ZN11QgsGeometry8vertexAtEi@Base {QGIS_ABI}
 _ZN11QgsGeometry9addIslandERK5QListI8QgsPointE@Base {QGIS_ABI}
 _ZN11QgsGeometry9asPolygonERPhb@Base {QGIS_ABI}
 _ZN11QgsGeometry9asPolygonEv@Base {QGIS_ABI}
 _ZN11QgsGeometry9fromPointERK8QgsPoint@Base {QGIS_ABI}
 _ZN11QgsGeometry9transformERK22QgsCoordinateTransform@Base {QGIS_ABI}
 _ZN11QgsGeometry9translateEdd@Base {QGIS_ABI}
 _ZN11QgsGeometryC1ERKS_@Base {QGIS_ABI}
 _ZN11QgsGeometryC1Ev@Base {QGIS_ABI}
 _ZN11QgsGeometryC2ERKS_@Base {QGIS_ABI}
 _ZN11QgsGeometryC2Ev@Base {QGIS_ABI}
 _ZN11QgsGeometryD1Ev@Base {QGIS_ABI}
 _ZN11QgsGeometryD2Ev@Base {QGIS_ABI}
 _ZN11QgsGeometryaSERKS_@Base {QGIS_ABI}
 _ZN11QgsMapLayer10drawLabelsER16QgsRenderContext@Base {QGIS_ABI}
 _ZN11QgsMapLayer11qt_metacallEN11QMetaObject4CallEiPPv@Base {QGIS_ABI}
 _ZN11QgsMapLayer11qt_metacastEPKc@Base {QGIS_ABI}
 _ZN11QgsMapLayer12maximumScaleEv@Base {QGIS_ABI}
 _ZN11QgsMapLayer12minimumScaleEv@Base {QGIS_ABI}
 _ZN11QgsMapLayer12setLayerNameERK7QString@Base {QGIS_ABI}
 _ZN11QgsMapLayer13connectNotifyEPKc@Base {QGIS_ABI}
 _ZN11QgsMapLayer13setCacheImageEP6QImage@Base {QGIS_ABI}
 _ZN11QgsMapLayer13setLayerOrderE11QStringList@Base {QGIS_ABI}
 _ZN11QgsMapLayer13statusChangedE7QString@Base {QGIS_ABI}
 _ZN11QgsMapLayer14lastErrorTitleEv@Base {QGIS_ABI}
 _ZN11QgsMapLayer14loadNamedStyleE7QStringRb@Base {QGIS_ABI}
 _ZN11QgsMapLayer14saveNamedStyleE7QStringRb@Base {QGIS_ABI}
 _ZN11QgsMapLayer15drawingProgressEii@Base {QGIS_ABI}
 _ZN11QgsMapLayer15getTransparencyEv@Base {QGIS_ABI}
 _ZN11QgsMapLayer15layerCrsChangedEv@Base {QGIS_ABI}
 _ZN11QgsMapLayer15setMaximumScaleEf@Base {QGIS_ABI}
 _ZN11QgsMapLayer15setMinimumScaleEf@Base {QGIS_ABI}
 _ZN11QgsMapLayer15setTransparencyEj@Base {QGIS_ABI}
 _ZN11QgsMapLayer16layerNameChangedEv@Base {QGIS_ABI}
 _ZN11QgsMapLayer16loadDefaultStyleERb@Base {QGIS_ABI}
 _ZN11QgsMapLayer16repaintRequestedEv@Base {QGIS_ABI}
 _ZN11QgsMapLayer16saveDefaultStyleERb@Base {QGIS_ABI}
 _ZN11QgsMapLayer16staticMetaObjectE@Base {QGIS_ABI}
 _ZN11QgsMapLayer17setCustomPropertyERK7QStringRK8QVariant@Base {QGIS_ABI}
 _ZN11QgsMapLayer18recalculateExtentsEv@Base {QGIS_ABI}
 _ZN11QgsMapLayer19capitaliseLayerNameE7QString@Base {QGIS_ABI}
 _ZN11QgsMapLayer20loadNamedStyleFromDbE7QStringS0_RS0_@Base {QGIS_ABI}
 _ZN11QgsMapLayer20readCustomPropertiesER8QDomNode@Base {QGIS_ABI}
 _ZN11QgsMapLayer20removeCustomPropertyERK7QString@Base {QGIS_ABI}
 _ZN11QgsMapLayer21invalidTransformInputEv@Base {QGIS_ABI}
 _ZN11QgsMapLayer21screenUpdateRequestedEv@Base {QGIS_ABI}
 _ZN11QgsMapLayer21setSubLayerVisibilityE7QStringb@Base {QGIS_ABI}
 _ZN11QgsMapLayer21writeCustomPropertiesER8QDomNodeR12QDomDocument@Base {QGIS_ABI}
 _ZN11QgsMapLayer23hasScaleBasedVisibilityEv@Base {QGIS_ABI}
 _ZN11QgsMapLayer26toggleScaleBasedVisibilityEb@Base {QGIS_ABI}
 _ZN11QgsMapLayer2trEPKcS1_@Base {QGIS_ABI}
 _ZN11QgsMapLayer3crsEv@Base {QGIS_ABI}
 _ZN11QgsMapLayer3srsEv@Base {QGIS_ABI}
 _ZN11QgsMapLayer4drawER16QgsRenderContext@Base {QGIS_ABI}
 _ZN11QgsMapLayer6setCrsERK28QgsCoordinateReferenceSystem@Base {QGIS_ABI}
 _ZN11QgsMapLayer6setCrsERK28QgsCoordinateReferenceSystemb@Base {QGIS_ABI}
 _ZN11QgsMapLayer7isValidEv@Base {QGIS_ABI}
 _ZN11QgsMapLayer7readXMLER8QDomNode@Base {QGIS_ABI}
 _ZN11QgsMapLayer7readXmlER8QDomNode@Base {QGIS_ABI}
 _ZN11QgsMapLayer8writeXMLER8QDomNodeR12QDomDocument@Base {QGIS_ABI}
 _ZN11QgsMapLayer8writeXmlER8QDomNodeR12QDomDocument@Base {QGIS_ABI}
 _ZN11QgsMapLayer9lastErrorEv@Base {QGIS_ABI}
 _ZN11QgsMapLayer9subLayersEv@Base {QGIS_ABI}
 _ZN11QgsMapLayer9undoStackEv@Base {QGIS_ABI}
 _ZN11QgsMapLayerC1ENS_9LayerTypeE7QStringS1_@Base {QGIS_ABI}
 _ZN11QgsMapLayerC2ENS_9LayerTypeE7QStringS1_@Base {QGIS_ABI}
 _ZN11QgsMapLayerD0Ev@Base {QGIS_ABI}
 _ZN11QgsMapLayerD1Ev@Base {QGIS_ABI}
 _ZN11QgsMapLayerD2Ev@Base {QGIS_ABI}
 _ZN11QgsPropertyD0Ev@Base {QGIS_ABI}
 _ZN11QgsPropertyD1Ev@Base {QGIS_ABI}
 _ZN11QgsRenderer10scaleBrushER6QBrushd@Base {QGIS_ABI}
 _ZN11QgsRenderer14selectionColorEv@Base {QGIS_ABI}
 _ZN11QgsRenderer15mSelectionColorE@Base {QGIS_ABI}
 _ZN11QgsRenderer17setSelectionColorE6QColor@Base {QGIS_ABI}
 _ZN11QgsRenderer17willRenderFeatureEP10QgsFeature@Base {QGIS_ABI}
 _ZN11QgsRendererC1Ev@Base {QGIS_ABI}
 _ZN11QgsRendererC2Ev@Base {QGIS_ABI}
 _ZN11QgsRendererD0Ev@Base {QGIS_ABI}
 _ZN11QgsRendererD1Ev@Base {QGIS_ABI}
 _ZN11QgsRendererD2Ev@Base {QGIS_ABI}
 _ZN11QgsSymbolV210stopRenderER16QgsRenderContext@Base {QGIS_ABI}
 _ZN11QgsSymbolV211startRenderER16QgsRenderContext@Base {QGIS_ABI}
 _ZN11QgsSymbolV211symbolLayerEi@Base {QGIS_ABI}
 _ZN11QgsSymbolV213defaultSymbolEN4QGis12GeometryTypeE@Base {QGIS_ABI}
 _ZN11QgsSymbolV215drawPreviewIconEP8QPainter5QSize@Base {QGIS_ABI}
 _ZN11QgsSymbolV215takeSymbolLayerEi@Base {QGIS_ABI}
 _ZN11QgsSymbolV217appendSymbolLayerEP16QgsSymbolLayerV2@Base {QGIS_ABI}
 _ZN11QgsSymbolV217changeSymbolLayerEiP16QgsSymbolLayerV2@Base {QGIS_ABI}
 _ZN11QgsSymbolV217deleteSymbolLayerEi@Base {QGIS_ABI}
 _ZN11QgsSymbolV217insertSymbolLayerEiP16QgsSymbolLayerV2@Base {QGIS_ABI}
 _ZN11QgsSymbolV221bigSymbolPreviewImageEv@Base {QGIS_ABI}
 _ZN11QgsSymbolV24dumpEv@Base {QGIS_ABI}
 _ZN11QgsSymbolV25colorEv@Base {QGIS_ABI}
 _ZN11QgsSymbolV28setColorERK6QColor@Base {QGIS_ABI}
 _ZN11QgsSymbolV2C1ENS_10SymbolTypeE5QListIP16QgsSymbolLayerV2E@Base {QGIS_ABI}
 _ZN11QgsSymbolV2C2ENS_10SymbolTypeE5QListIP16QgsSymbolLayerV2E@Base {QGIS_ABI}
 _ZN11QgsSymbolV2D0Ev@Base {QGIS_ABI}
 _ZN11QgsSymbolV2D1Ev@Base {QGIS_ABI}
 _ZN11QgsSymbolV2D2Ev@Base {QGIS_ABI}
 _ZN12QgsExceptionD0Ev@Base {QGIS_ABI}
 _ZN12QgsExceptionD1Ev@Base {QGIS_ABI}
 _ZN12QgsExceptionD2Ev@Base {QGIS_ABI}
 _ZN12QgsPaperItem5paintEP8QPainterPK24QStyleOptionGraphicsItemP7QWidget@Base {QGIS_ABI}
 _ZN12QgsPaperItem7readXMLERK11QDomElementRK12QDomDocument@Base {QGIS_ABI}
 _ZN12QgsPaperItemC1EP14QgsComposition@Base {QGIS_ABI}
 _ZN12QgsPaperItemC1EddddP14QgsComposition@Base {QGIS_ABI}
 _ZN12QgsPaperItemC1Ev@Base {QGIS_ABI}
 _ZN12QgsPaperItemC2EP14QgsComposition@Base {QGIS_ABI}
 _ZN12QgsPaperItemC2EddddP14QgsComposition@Base {QGIS_ABI}
 _ZN12QgsPaperItemC2Ev@Base {QGIS_ABI}
 _ZN12QgsPaperItemD0Ev@Base {QGIS_ABI}
 _ZN12QgsPaperItemD1Ev@Base {QGIS_ABI}
 _ZN12QgsPaperItemD2Ev@Base {QGIS_ABI}
 _ZN12QgsRectangle10setMinimalEv@Base {QGIS_ABI}
 _ZN12QgsRectangle17combineExtentWithEPS_@Base {QGIS_ABI}
 _ZN12QgsRectangle17combineExtentWithEdd@Base {QGIS_ABI}
 _ZN12QgsRectangle3setERK8QgsPointS2_@Base {QGIS_ABI}
 _ZN12QgsRectangle3setEdddd@Base {QGIS_ABI}
 _ZN12QgsRectangle5scaleEdPK8QgsPoint@Base {QGIS_ABI}
 _ZN12QgsRectangle6expandEdPK8QgsPoint@Base {QGIS_ABI}
 _ZN12QgsRectangle9normalizeEv@Base {QGIS_ABI}
 _ZN12QgsRectangle9unionRectERKS_@Base {QGIS_ABI}
 _ZN12QgsRectangleC1ERK8QgsPointS2_@Base {QGIS_ABI}
 _ZN12QgsRectangleC1ERKS_@Base {QGIS_ABI}
 _ZN12QgsRectangleC1Edddd@Base {QGIS_ABI}
 _ZN12QgsRectangleC2ERK8QgsPointS2_@Base {QGIS_ABI}
 _ZN12QgsRectangleC2ERKS_@Base {QGIS_ABI}
 _ZN12QgsRectangleC2Edddd@Base {QGIS_ABI}
 _ZN12QgsRectangleaSERKS_@Base {QGIS_ABI}
 _ZN12QgsTolerance16defaultToleranceEP11QgsMapLayerP14QgsMapRenderer@Base {QGIS_ABI}
 _ZN12QgsTolerance18toLayerCoordinatesEP11QgsMapLayerP14QgsMapRendererRK6QPoint@Base {QGIS_ABI}
 _ZN12QgsTolerance18vertexSearchRadiusEP11QgsMapLayerP14QgsMapRenderer@Base {QGIS_ABI}
 _ZN12QgsTolerance19toleranceInMapUnitsEdP11QgsMapLayerP14QgsMapRendererNS_8UnitTypeE@Base {QGIS_ABI}
 _ZN12QgsTolerance22computeMapUnitPerPixelEP11QgsMapLayerP14QgsMapRenderer@Base {QGIS_ABI}
 _ZN12SpatialIndex11IDataStreamD0Ev@Base {QGIS_ABI}
 _ZN12SpatialIndex11IDataStreamD1Ev@Base {QGIS_ABI}
 _ZN12SpatialIndex11IStatisticsD0Ev@Base {QGIS_ABI}
 _ZN12SpatialIndex11IStatisticsD1Ev@Base {QGIS_ABI}
 _ZN12SpatialIndex13ISpatialIndexD0Ev@Base {QGIS_ABI}
 _ZN12SpatialIndex13ISpatialIndexD1Ev@Base {QGIS_ABI}
 _ZN12SpatialIndex14StorageManager18DiskStorageManager13loadByteArrayElRmPPh@Base {QGIS_ABI}
 _ZN12SpatialIndex14StorageManager18DiskStorageManager14storeByteArrayERlmPKh@Base {QGIS_ABI}
 _ZN12SpatialIndex14StorageManager18DiskStorageManager15deleteByteArrayEl@Base {QGIS_ABI}
 _ZN12SpatialIndex14StorageManager18DiskStorageManager5flushEv@Base {QGIS_ABI}
 _ZN12SpatialIndex14StorageManager18DiskStorageManagerC1ERN5Tools11PropertySetE@Base {QGIS_ABI}
 _ZN12SpatialIndex14StorageManager18DiskStorageManagerC2ERN5Tools11PropertySetE@Base {QGIS_ABI}
 _ZN12SpatialIndex14StorageManager18DiskStorageManagerD0Ev@Base {QGIS_ABI}
 _ZN12SpatialIndex14StorageManager18DiskStorageManagerD1Ev@Base {QGIS_ABI}
 _ZN12SpatialIndex14StorageManager18DiskStorageManagerD2Ev@Base {QGIS_ABI}
 _ZN12SpatialIndex14StorageManager20MemoryStorageManager13loadByteArrayElRmPPh@Base {QGIS_ABI}
 _ZN12SpatialIndex14StorageManager20MemoryStorageManager14storeByteArrayERlmPKh@Base {QGIS_ABI}
 _ZN12SpatialIndex14StorageManager20MemoryStorageManager15deleteByteArrayEl@Base {QGIS_ABI}
 _ZN12SpatialIndex14StorageManager20MemoryStorageManagerC1ERN5Tools11PropertySetE@Base {QGIS_ABI}
 _ZN12SpatialIndex14StorageManager20MemoryStorageManagerC2ERN5Tools11PropertySetE@Base {QGIS_ABI}
 _ZN12SpatialIndex14StorageManager20MemoryStorageManagerD0Ev@Base {QGIS_ABI}
 _ZN12SpatialIndex14StorageManager20MemoryStorageManagerD1Ev@Base {QGIS_ABI}
 _ZN12SpatialIndex14StorageManager20MemoryStorageManagerD2Ev@Base {QGIS_ABI}
 _ZN12SpatialIndex14StorageManager21RandomEvictionsBuffer11removeEntryEv@Base {QGIS_ABI}
 _ZN12SpatialIndex14StorageManager21RandomEvictionsBuffer8addEntryElPNS0_6Buffer5EntryE@Base {QGIS_ABI}
 _ZN12SpatialIndex14StorageManager21RandomEvictionsBufferC1ERNS_15IStorageManagerERN5Tools11PropertySetE@Base {QGIS_ABI}
 _ZN12SpatialIndex14StorageManager21RandomEvictionsBufferC2ERNS_15IStorageManagerERN5Tools11PropertySetE@Base {QGIS_ABI}
 _ZN12SpatialIndex14StorageManager21RandomEvictionsBufferD0Ev@Base {QGIS_ABI}
 _ZN12SpatialIndex14StorageManager21RandomEvictionsBufferD1Ev@Base {QGIS_ABI}
 _ZN12SpatialIndex14StorageManager21RandomEvictionsBufferD2Ev@Base {QGIS_ABI}
 _ZN12SpatialIndex14StorageManager22loadDiskStorageManagerERSs@Base {QGIS_ABI}
 _ZN12SpatialIndex14StorageManager24returnDiskStorageManagerERN5Tools11PropertySetE@Base {QGIS_ABI}
 _ZN12SpatialIndex14StorageManager26returnMemoryStorageManagerERN5Tools11PropertySetE@Base {QGIS_ABI}
 _ZN12SpatialIndex14StorageManager27createNewDiskStorageManagerERSsm@Base {QGIS_ABI}
 _ZN12SpatialIndex14StorageManager27returnRandomEvictionsBufferERNS_15IStorageManagerERN5Tools11PropertySetE@Base {QGIS_ABI}
 _ZN12SpatialIndex14StorageManager29createNewMemoryStorageManagerEv@Base {QGIS_ABI}
 _ZN12SpatialIndex14StorageManager30createNewRandomEvictionsBufferERNS_15IStorageManagerEjb@Base {QGIS_ABI}
 _ZN12SpatialIndex14StorageManager6Buffer13loadByteArrayElRmPPh@Base {QGIS_ABI}
 _ZN12SpatialIndex14StorageManager6Buffer14storeByteArrayERlmPKh@Base {QGIS_ABI}
 _ZN12SpatialIndex14StorageManager6Buffer15deleteByteArrayEl@Base {QGIS_ABI}
 _ZN12SpatialIndex14StorageManager6Buffer5clearEv@Base {QGIS_ABI}
 _ZN12SpatialIndex14StorageManager6Buffer7getHitsEv@Base {QGIS_ABI}
 _ZN12SpatialIndex14StorageManager6BufferC1ERNS_15IStorageManagerERN5Tools11PropertySetE@Base {QGIS_ABI}
 _ZN12SpatialIndex14StorageManager6BufferC2ERNS_15IStorageManagerERN5Tools11PropertySetE@Base {QGIS_ABI}
 _ZN12SpatialIndex14StorageManager6BufferD0Ev@Base {QGIS_ABI}
 _ZN12SpatialIndex14StorageManager6BufferD1Ev@Base {QGIS_ABI}
 _ZN12SpatialIndex14StorageManager6BufferD2Ev@Base {QGIS_ABI}
 _ZN12SpatialIndex14StorageManager7IBufferD0Ev@Base {QGIS_ABI}
 _ZN12SpatialIndex14StorageManager7IBufferD1Ev@Base {QGIS_ABI}
 _ZN12SpatialIndex15IStorageManagerD0Ev@Base {QGIS_ABI}
 _ZN12SpatialIndex15IStorageManagerD1Ev@Base {QGIS_ABI}
 _ZN12SpatialIndex26INearestNeighborComparatorD0Ev@Base {QGIS_ABI}
 _ZN12SpatialIndex26INearestNeighborComparatorD1Ev@Base {QGIS_ABI}
 _ZN12SpatialIndex5IDataD0Ev@Base {QGIS_ABI}
 _ZN12SpatialIndex5IDataD1Ev@Base {QGIS_ABI}
 _ZN12SpatialIndex5INodeD0Ev@Base {QGIS_ABI}
 _ZN12SpatialIndex5INodeD1Ev@Base {QGIS_ABI}
 _ZN12SpatialIndex5RTree10BulkLoader10createNodeEPNS0_5RTreeERSt6vectorIN5Tools12SmartPointerINS_5IDataEEESaIS8_EEm@Base {QGIS_ABI}
 _ZN12SpatialIndex5RTree10BulkLoader11createLevelEPNS0_5RTreeERN5Tools13IObjectStreamEmmmmmRNS1_7TmpFileERmS9_@Base {QGIS_ABI}
 _ZN12SpatialIndex5RTree10BulkLoader16bulkLoadUsingSTREPNS0_5RTreeERNS_11IDataStreamEmmm@Base {QGIS_ABI}
 _ZN12SpatialIndex5RTree10BulkLoader7TmpFile10loadRecordERN5Tools8Geometry6RegionERl@Base {QGIS_ABI}
 _ZN12SpatialIndex5RTree10BulkLoader7TmpFile11storeRecordERN5Tools8Geometry6RegionEl@Base {QGIS_ABI}
 _ZN12SpatialIndex5RTree10BulkLoader7TmpFile4sizeEv@Base {QGIS_ABI}
 _ZN12SpatialIndex5RTree10BulkLoader7TmpFile6rewindEv@Base {QGIS_ABI}
 _ZN12SpatialIndex5RTree10BulkLoader7TmpFile7getNextEv@Base {QGIS_ABI}
 _ZN12SpatialIndex5RTree10BulkLoader7TmpFile7hasNextEv@Base {QGIS_ABI}
 _ZN12SpatialIndex5RTree10BulkLoader7TmpFileC1Ev@Base {QGIS_ABI}
 _ZN12SpatialIndex5RTree10BulkLoader7TmpFileC2Ev@Base {QGIS_ABI}
 _ZN12SpatialIndex5RTree10BulkLoader7TmpFileD0Ev@Base {QGIS_ABI}
 _ZN12SpatialIndex5RTree10BulkLoader7TmpFileD1Ev@Base {QGIS_ABI}
 _ZN12SpatialIndex5RTree10BulkLoader7TmpFileD2Ev@Base {QGIS_ABI}
 _ZN12SpatialIndex5RTree10Statistics5resetEv@Base {QGIS_ABI}
 _ZN12SpatialIndex5RTree10StatisticsC1ERKS1_@Base {QGIS_ABI}
 _ZN12SpatialIndex5RTree10StatisticsC1Ev@Base {QGIS_ABI}
 _ZN12SpatialIndex5RTree10StatisticsC2ERKS1_@Base {QGIS_ABI}
 _ZN12SpatialIndex5RTree10StatisticsC2Ev@Base {QGIS_ABI}
 _ZN12SpatialIndex5RTree10StatisticsD0Ev@Base {QGIS_ABI}
 _ZN12SpatialIndex5RTree10StatisticsD1Ev@Base {QGIS_ABI}
 _ZN12SpatialIndex5RTree10StatisticsD2Ev@Base {QGIS_ABI}
 _ZN12SpatialIndex5RTree10StatisticsaSERKS1_@Base {QGIS_ABI}
 _ZN12SpatialIndex5RTree11returnRTreeERNS_15IStorageManagerERN5Tools11PropertySetE@Base {QGIS_ABI}
 _ZN12SpatialIndex5RTree14BulkLoadSource4sizeEv@Base {QGIS_ABI}
 _ZN12SpatialIndex5RTree14BulkLoadSource6rewindEv@Base {QGIS_ABI}
 _ZN12SpatialIndex5RTree14BulkLoadSource7getNextEv@Base {QGIS_ABI}
 _ZN12SpatialIndex5RTree14BulkLoadSource7hasNextEv@Base {QGIS_ABI}
 _ZN12SpatialIndex5RTree14BulkLoadSourceC1EN5Tools12SmartPointerINS2_13IObjectStreamEEEm@Base {QGIS_ABI}
 _ZN12SpatialIndex5RTree14BulkLoadSourceC1EPN5Tools13IObjectStreamE@Base {QGIS_ABI}
 _ZN12SpatialIndex5RTree14BulkLoadSourceC1EPN5Tools13IObjectStreamEm@Base {QGIS_ABI}
 _ZN12SpatialIndex5RTree14BulkLoadSourceC2EN5Tools12SmartPointerINS2_13IObjectStreamEEEm@Base {QGIS_ABI}
 _ZN12SpatialIndex5RTree14BulkLoadSourceC2EPN5Tools13IObjectStreamE@Base {QGIS_ABI}
 _ZN12SpatialIndex5RTree14BulkLoadSourceC2EPN5Tools13IObjectStreamEm@Base {QGIS_ABI}
 _ZN12SpatialIndex5RTree14BulkLoadSourceD0Ev@Base {QGIS_ABI}
 _ZN12SpatialIndex5RTree14BulkLoadSourceD1Ev@Base {QGIS_ABI}
 _ZN12SpatialIndex5RTree14BulkLoadSourceD2Ev@Base {QGIS_ABI}
 _ZN12SpatialIndex5RTree14createNewRTreeERNS_15IStorageManagerEdmmmNS0_12RTreeVariantERl@Base {QGIS_ABI}
 _ZN12SpatialIndex5RTree18BulkLoadComparator7compareEPN5Tools7IObjectES4_@Base {QGIS_ABI}
 _ZN12SpatialIndex5RTree18BulkLoadComparatorC1Em@Base {QGIS_ABI}
 _ZN12SpatialIndex5RTree18BulkLoadComparatorC2Em@Base {QGIS_ABI}
 _ZN12SpatialIndex5RTree18BulkLoadComparatorD0Ev@Base {QGIS_ABI}
 _ZN12SpatialIndex5RTree18BulkLoadComparatorD1Ev@Base {QGIS_ABI}
 _ZN12SpatialIndex5RTree18BulkLoadComparatorD2Ev@Base {QGIS_ABI}
 _ZN12SpatialIndex5RTree25createAndBulkLoadNewRTreeENS0_14BulkLoadMethodERNS_11IDataStreamERNS_15IStorageManagerEdmmmNS0_12RTreeVariantERl@Base {QGIS_ABI}
 _ZN12SpatialIndex5RTree4Data16getByteArraySizeEv@Base {QGIS_ABI}
 _ZN12SpatialIndex5RTree4Data16storeToByteArrayEPPhRm@Base {QGIS_ABI}
 _ZN12SpatialIndex5RTree4Data17loadFromByteArrayEPKh@Base {QGIS_ABI}
 _ZN12SpatialIndex5RTree4Data5cloneEv@Base {QGIS_ABI}
 _ZN12SpatialIndex5RTree4DataC1EmPhRN5Tools8Geometry6RegionEl@Base {QGIS_ABI}
 _ZN12SpatialIndex5RTree4DataC2EmPhRN5Tools8Geometry6RegionEl@Base {QGIS_ABI}
 _ZN12SpatialIndex5RTree4DataD0Ev@Base {QGIS_ABI}
 _ZN12SpatialIndex5RTree4DataD1Ev@Base {QGIS_ABI}
 _ZN12SpatialIndex5RTree4DataD2Ev@Base {QGIS_ABI}
 _ZN12SpatialIndex5RTree4Leaf10deleteDataElRSt5stackIlSt5dequeIlSaIlEEE@Base {QGIS_ABI}
 _ZN12SpatialIndex5RTree4Leaf13chooseSubtreeERKN5Tools8Geometry6RegionEmRSt5stackIlSt5dequeIlSaIlEEE@Base {QGIS_ABI}
 _ZN12SpatialIndex5RTree4Leaf5splitEmPhRN5Tools8Geometry6RegionElRNS3_11PoolPointerINS0_4NodeEEESA_@Base {QGIS_ABI}
 _ZN12SpatialIndex5RTree4Leaf8findLeafERKN5Tools8Geometry6RegionElRSt5stackIlSt5dequeIlSaIlEEE@Base {QGIS_ABI}
 _ZN12SpatialIndex5RTree4LeafC1EPNS0_5RTreeEl@Base {QGIS_ABI}
 _ZN12SpatialIndex5RTree4LeafC2EPNS0_5RTreeEl@Base {QGIS_ABI}
 _ZN12SpatialIndex5RTree4LeafD0Ev@Base {QGIS_ABI}
 _ZN12SpatialIndex5RTree4LeafD1Ev@Base {QGIS_ABI}
 _ZN12SpatialIndex5RTree4LeafD2Ev@Base {QGIS_ABI}
 _ZN12SpatialIndex5RTree4Node10insertDataEmPhRN5Tools8Geometry6RegionElRSt5stackIlSt5dequeIlSaIlEEES2_@Base {QGIS_ABI}
 _ZN12SpatialIndex5RTree4Node10rstarSplitEmPhRN5Tools8Geometry6RegionElRSt6vectorIlSaIlEESA_@Base {QGIS_ABI}
 _ZN12SpatialIndex5RTree4Node10rtreeSplitEmPhRN5Tools8Geometry6RegionElRSt6vectorIlSaIlEESA_@Base {QGIS_ABI}
 _ZN12SpatialIndex5RTree4Node11deleteEntryEm@Base {QGIS_ABI}
 _ZN12SpatialIndex5RTree4Node11insertEntryEmPhRN5Tools8Geometry6RegionEl@Base {QGIS_ABI}
 _ZN12SpatialIndex5RTree4Node12condenseTreeERSt5stackIN5Tools11PoolPointerIS1_EESt5dequeIS5_SaIS5_EEERS2_IlS6_IlSaIlEEERS5_@Base {QGIS_ABI}
 _ZN12SpatialIndex5RTree4Node12reinsertDataEmPhRN5Tools8Geometry6RegionElRSt6vectorIlSaIlEESA_@Base {QGIS_ABI}
 _ZN12SpatialIndex5RTree4Node13ReinsertEntry20compareReinsertEntryEPKvS4_@Base {QGIS_ABI}
 _ZN12SpatialIndex5RTree4Node15RstarSplitEntry10compareLowEPKvS4_@Base {QGIS_ABI}
 _ZN12SpatialIndex5RTree4Node15RstarSplitEntry11compareHighEPKvS4_@Base {QGIS_ABI}
 _ZN12SpatialIndex5RTree4Node16getByteArraySizeEv@Base {QGIS_ABI}
 _ZN12SpatialIndex5RTree4Node16storeToByteArrayEPPhRm@Base {QGIS_ABI}
 _ZN12SpatialIndex5RTree4Node17loadFromByteArrayEPKh@Base {QGIS_ABI}
 _ZN12SpatialIndex5RTree4Node5cloneEv@Base {QGIS_ABI}
 _ZN12SpatialIndex5RTree4Node9pickSeedsERmS2_@Base {QGIS_ABI}
 _ZN12SpatialIndex5RTree4NodeC1EPNS0_5RTreeElmm@Base {QGIS_ABI}
 _ZN12SpatialIndex5RTree4NodeC1Ev@Base {QGIS_ABI}
 _ZN12SpatialIndex5RTree4NodeC2EPNS0_5RTreeElmm@Base {QGIS_ABI}
 _ZN12SpatialIndex5RTree4NodeC2Ev@Base {QGIS_ABI}
 _ZN12SpatialIndex5RTree4NodeD0Ev@Base {QGIS_ABI}
 _ZN12SpatialIndex5RTree4NodeD1Ev@Base {QGIS_ABI}
 _ZN12SpatialIndex5RTree4NodeD2Ev@Base {QGIS_ABI}
 _ZN12SpatialIndex5RTree4NodeaSERKS1_@Base {QGIS_ABI}
 _ZN12SpatialIndex5RTree5Index10adjustTreeEPNS0_4NodeERSt5stackIlSt5dequeIlSaIlEEE@Base {QGIS_ABI}
 _ZN12SpatialIndex5RTree5Index10adjustTreeEPNS0_4NodeES3_RSt5stackIlSt5dequeIlSaIlEEEPh@Base {QGIS_ABI}
 _ZN12SpatialIndex5RTree5Index12OverlapEntry14compareEntriesEPKvS4_@Base {QGIS_ABI}
 _ZN12SpatialIndex5RTree5Index12OverlapEntryD1Ev@Base {QGIS_ABI}
 _ZN12SpatialIndex5RTree5Index13chooseSubtreeERKN5Tools8Geometry6RegionEmRSt5stackIlSt5dequeIlSaIlEEE@Base {QGIS_ABI}
 _ZN12SpatialIndex5RTree5Index5splitEmPhRN5Tools8Geometry6RegionElRNS3_11PoolPointerINS0_4NodeEEESA_@Base {QGIS_ABI}
 _ZN12SpatialIndex5RTree5Index8findLeafERKN5Tools8Geometry6RegionElRSt5stackIlSt5dequeIlSaIlEEE@Base {QGIS_ABI}
 _ZN12SpatialIndex5RTree5IndexC1EPNS0_5RTreeElm@Base {QGIS_ABI}
 _ZN12SpatialIndex5RTree5IndexC2EPNS0_5RTreeElm@Base {QGIS_ABI}
 _ZN12SpatialIndex5RTree5IndexD0Ev@Base {QGIS_ABI}
 _ZN12SpatialIndex5RTree5IndexD1Ev@Base {QGIS_ABI}
 _ZN12SpatialIndex5RTree5IndexD2Ev@Base {QGIS_ABI}
 _ZN12SpatialIndex5RTree5RTree10addCommandEPNS_8ICommandENS_11CommandTypeE@Base {QGIS_ABI}
 _ZN12SpatialIndex5RTree5RTree10deleteDataERKN5Tools8Geometry6IShapeEl@Base {QGIS_ABI}
 _ZN12SpatialIndex5RTree5RTree10deleteNodeEPNS0_4NodeE@Base {QGIS_ABI}
 _ZN12SpatialIndex5RTree5RTree10insertDataEmPKhRKN5Tools8Geometry6IShapeEl@Base {QGIS_ABI}
 _ZN12SpatialIndex5RTree5RTree10loadHeaderEv@Base {QGIS_ABI}
 _ZN12SpatialIndex5RTree5RTree10rangeQueryENS0_14RangeQueryTypeERKN5Tools8Geometry6IShapeERNS_8IVisitorE@Base {QGIS_ABI}
 _ZN12SpatialIndex5RTree5RTree11storeHeaderEv@Base {QGIS_ABI}
 _ZN12SpatialIndex5RTree5RTree12NNComparator18getMinimumDistanceERKN5Tools8Geometry6IShapeERKNS_5IDataE@Base {QGIS_ABI}
 _ZN12SpatialIndex5RTree5RTree12NNComparator18getMinimumDistanceERKN5Tools8Geometry6IShapeES7_@Base {QGIS_ABI}
 _ZN12SpatialIndex5RTree5RTree12NNComparatorD0Ev@Base {QGIS_ABI}
 _ZN12SpatialIndex5RTree5RTree12NNComparatorD1Ev@Base {QGIS_ABI}
 _ZN12SpatialIndex5RTree5RTree12isIndexValidEv@Base {QGIS_ABI}
 _ZN12SpatialIndex5RTree5RTree13ValidateEntryD1Ev@Base {QGIS_ABI}
 _ZN12SpatialIndex5RTree5RTree13queryStrategyERNS_14IQueryStrategyE@Base {QGIS_ABI}
 _ZN12SpatialIndex5RTree5RTree13selfJoinQueryERKN5Tools8Geometry6IShapeERNS_8IVisitorE@Base {QGIS_ABI}
 _ZN12SpatialIndex5RTree5RTree13selfJoinQueryEllRKN5Tools8Geometry6RegionERNS_8IVisitorE@Base {QGIS_ABI}
 _ZN12SpatialIndex5RTree5RTree15deleteData_implERKN5Tools8Geometry6RegionEl@Base {QGIS_ABI}
 _ZN12SpatialIndex5RTree5RTree15insertData_implEmPhRN5Tools8Geometry6RegionEl@Base {QGIS_ABI}
 _ZN12SpatialIndex5RTree5RTree15insertData_implEmPhRN5Tools8Geometry6RegionElmS2_@Base {QGIS_ABI}
 _ZN12SpatialIndex5RTree5RTree17containsWhatQueryERKN5Tools8Geometry6IShapeERNS_8IVisitorE@Base {QGIS_ABI}
 _ZN12SpatialIndex5RTree5RTree18pointLocationQueryERKN5Tools8Geometry5PointERNS_8IVisitorE@Base {QGIS_ABI}
 _ZN12SpatialIndex5RTree5RTree19intersectsWithQueryERKN5Tools8Geometry6IShapeERNS_8IVisitorE@Base {QGIS_ABI}
 _ZN12SpatialIndex5RTree5RTree20nearestNeighborQueryElRKN5Tools8Geometry6IShapeERNS_8IVisitorE@Base {QGIS_ABI}
 _ZN12SpatialIndex5RTree5RTree20nearestNeighborQueryElRKN5Tools8Geometry6IShapeERNS_8IVisitorERNS_26INearestNeighborComparatorE@Base {QGIS_ABI}
 _ZN12SpatialIndex5RTree5RTree7initNewERN5Tools11PropertySetE@Base {QGIS_ABI}
 _ZN12SpatialIndex5RTree5RTree7initOldERN5Tools11PropertySetE@Base {QGIS_ABI}
 _ZN12SpatialIndex5RTree5RTree8readNodeEm@Base {QGIS_ABI}
 _ZN12SpatialIndex5RTree5RTree9writeNodeEPNS0_4NodeE@Base {QGIS_ABI}
 _ZN12SpatialIndex5RTree5RTreeC1ERNS_15IStorageManagerERN5Tools11PropertySetE@Base {QGIS_ABI}
 _ZN12SpatialIndex5RTree5RTreeC2ERNS_15IStorageManagerERN5Tools11PropertySetE@Base {QGIS_ABI}
 _ZN12SpatialIndex5RTree5RTreeD0Ev@Base {QGIS_ABI}
 _ZN12SpatialIndex5RTree5RTreeD1Ev@Base {QGIS_ABI}
 _ZN12SpatialIndex5RTree5RTreeD2Ev@Base {QGIS_ABI}
 _ZN12SpatialIndex5RTree9loadRTreeERNS_15IStorageManagerEl@Base {QGIS_ABI}
 _ZN12SpatialIndex5RTreelsERSoRKNS0_10StatisticsE@Base {QGIS_ABI}
 _ZN12SpatialIndex5RTreelsERSoRKNS0_5RTreeE@Base {QGIS_ABI}
 _ZN12SpatialIndex6IEntryD0Ev@Base {QGIS_ABI}
 _ZN12SpatialIndex6IEntryD1Ev@Base {QGIS_ABI}
 _ZN12SpatialIndex8IVisitorD0Ev@Base {QGIS_ABI}
 _ZN12SpatialIndex8IVisitorD1Ev@Base {QGIS_ABI}
 _ZN12SpatialIndexlsERSoRKNS_11IStatisticsE@Base {QGIS_ABI}
 _ZN12SpatialIndexlsERSoRKNS_13ISpatialIndexE@Base {QGIS_ABI}
 _ZN13GEOSException7lastMsgE@Base {QGIS_ABI}
 _ZN13GEOSExceptionC1EPKc@Base {QGIS_ABI}
 _ZN13GEOSExceptionD1Ev@Base {QGIS_ABI}
 _ZN13QHashIteratorI7QStringP11QgsPropertyE4nextEv@Base {QGIS_ABI}
 _ZN13QStandardItem9insertRowEiPS_@Base {QGIS_ABI}
 _ZN13QgsMapToPixel11setXMinimumEd@Base {QGIS_ABI}
 _ZN13QgsMapToPixel11setYMaximumEd@Base {QGIS_ABI}
 _ZN13QgsMapToPixel11setYMinimumEd@Base {QGIS_ABI}
 _ZN13QgsMapToPixel13setParametersEdddd@Base {QGIS_ABI}
 _ZN13QgsMapToPixel14showParametersEv@Base {QGIS_ABI}
 _ZN13QgsMapToPixel19setMapUnitsPerPixelEd@Base {QGIS_ABI}
 _ZN13QgsMapToPixelC1Edddd@Base {QGIS_ABI}
 _ZN13QgsMapToPixelC2Edddd@Base {QGIS_ABI}
 _ZN13QgsMapToPixelD1Ev@Base {QGIS_ABI}
 _ZN13QgsMapToPixelD2Ev@Base {QGIS_ABI}
 _ZN13QgsRunProcess10dialogGoneEv@Base {QGIS_ABI}
 _ZN13QgsRunProcess11processExitEiN8QProcess10ExitStatusE@Base {QGIS_ABI}
 _ZN13QgsRunProcess11qt_metacallEN11QMetaObject4CallEiPPv@Base {QGIS_ABI}
 _ZN13QgsRunProcess11qt_metacastEPKc@Base {QGIS_ABI}
 _ZN13QgsRunProcess12processErrorEN8QProcess12ProcessErrorE@Base {QGIS_ABI}
 _ZN13QgsRunProcess15stderrAvailableEv@Base {QGIS_ABI}
 _ZN13QgsRunProcess15stdoutAvailableEv@Base {QGIS_ABI}
 _ZN13QgsRunProcess16staticMetaObjectE@Base {QGIS_ABI}
 _ZN13QgsRunProcess3dieEv@Base {QGIS_ABI}
 _ZN13QgsRunProcessC1ERK7QStringb@Base {QGIS_ABI}
 _ZN13QgsRunProcessC2ERK7QStringb@Base {QGIS_ABI}
 _ZN13QgsRunProcessD0Ev@Base {QGIS_ABI}
 _ZN13QgsRunProcessD1Ev@Base {QGIS_ABI}
 _ZN13QgsRunProcessD2Ev@Base {QGIS_ABI}
 _ZN14QgsApplication10mThemeNameE@Base {QGIS_ABI}
 _ZN14QgsApplication10pluginPathEv@Base {QGIS_ABI}
 _ZN14QgsApplication10prefixPathEv@Base {QGIS_ABI}
 _ZN14QgsApplication10splashPathEv@Base {QGIS_ABI}
 _ZN14QgsApplication11helpAppPathEv@Base {QGIS_ABI}
 _ZN14QgsApplication11mPluginPathE@Base {QGIS_ABI}
 _ZN14QgsApplication11mPrefixPathE@Base {QGIS_ABI}
 _ZN14QgsApplication11pkgDataPathEv@Base {QGIS_ABI}
 _ZN14QgsApplication11qt_metacallEN11QMetaObject4CallEiPPv@Base {QGIS_ABI}
 _ZN14QgsApplication11qt_metacastEPKc@Base {QGIS_ABI}
 _ZN14QgsApplication12mPkgDataPathE@Base {QGIS_ABI}
 _ZN14QgsApplication12setThemeNameE7QString@Base {QGIS_ABI}
 _ZN14QgsApplication12showSettingsEv@Base {QGIS_ABI}
 _ZN14QgsApplication13developerPathEv@Base {QGIS_ABI}
 _ZN14QgsApplication13setPluginPathE7QString@Base {QGIS_ABI}
 _ZN14QgsApplication13setPrefixPathE7QStringb@Base {QGIS_ABI}
 _ZN14QgsApplication13srsDbFilePathEv@Base {QGIS_ABI}
 _ZN14QgsApplication14donorsFilePathEv@Base {QGIS_ABI}
 _ZN14QgsApplication14setPkgDataPathE7QString@Base {QGIS_ABI}
 _ZN14QgsApplication15activeThemePathEv@Base {QGIS_ABI}
 _ZN14QgsApplication15authorsFilePathEv@Base {QGIS_ABI}
 _ZN14QgsApplication15msexportAppPathEv@Base {QGIS_ABI}
 _ZN14QgsApplication15userStyleV2PathEv@Base {QGIS_ABI}
 _ZN14QgsApplication16defaultThemePathEv@Base {QGIS_ABI}
 _ZN14QgsApplication16reportStyleSheetEv@Base {QGIS_ABI}
 _ZN14QgsApplication16sponsorsFilePathEv@Base {QGIS_ABI}
 _ZN14QgsApplication16staticMetaObjectE@Base {QGIS_ABI}
 _ZN14QgsApplication18defaultStyleV2PathEv@Base {QGIS_ABI}
 _ZN14QgsApplication18qgisUserDbFilePathEv@Base {QGIS_ABI}
 _ZN14QgsApplication18registerOgrDriversEv@Base {QGIS_ABI}
 _ZN14QgsApplication19qgisSettingsDirPathEv@Base {QGIS_ABI}
 _ZN14QgsApplication19translatorsFilePathEv@Base {QGIS_ABI}
 _ZN14QgsApplication20contributorsFilePathEv@Base {QGIS_ABI}
 _ZN14QgsApplication20qgisMasterDbFilePathEv@Base {QGIS_ABI}
 _ZN14QgsApplication6endianEv@Base {QGIS_ABI}
 _ZN14QgsApplication6notifyEP7QObjectP6QEvent@Base {QGIS_ABI}
 _ZN14QgsApplication7svgPathEv@Base {QGIS_ABI}
 _ZN14QgsApplication8exitQgisEv@Base {QGIS_ABI}
 _ZN14QgsApplication8i18nPathEv@Base {QGIS_ABI}
 _ZN14QgsApplication8initQgisEv@Base {QGIS_ABI}
 _ZN14QgsApplication8svgPathsEv@Base {QGIS_ABI}
 _ZN14QgsApplication9iconsPathEv@Base {QGIS_ABI}
 _ZN14QgsApplication9themeNameEv@Base {QGIS_ABI}
 _ZN14QgsApplicationC1ERiPPcb@Base {QGIS_ABI}
 _ZN14QgsApplicationC2ERiPPcb@Base {QGIS_ABI}
 _ZN14QgsApplicationD0Ev@Base {QGIS_ABI}
 _ZN14QgsApplicationD1Ev@Base {QGIS_ABI}
 _ZN14QgsApplicationD2Ev@Base {QGIS_ABI}
 _ZN14QgsComposerMap11moveContentEdd@Base {QGIS_ABI}
 _ZN14QgsComposerMap11qt_metacallEN11QMetaObject4CallEiPPv@Base {QGIS_ABI}
 _ZN14QgsComposerMap11qt_metacastEPKc@Base {QGIS_ABI}
 _ZN14QgsComposerMap11setNewScaleEd@Base {QGIS_ABI}
 _ZN14QgsComposerMap11setRotationEd@Base {QGIS_ABI}
 _ZN14QgsComposerMap11zoomContentEidd@Base {QGIS_ABI}
 _ZN14QgsComposerMap12setNewExtentERK12QgsRectangle@Base {QGIS_ABI}
 _ZN14QgsComposerMap12setSceneRectERK6QRectF@Base {QGIS_ABI}
 _ZN14QgsComposerMap12syncLayerSetEv@Base {QGIS_ABI}
 _ZN14QgsComposerMap13extentChangedEv@Base {QGIS_ABI}
 _ZN14QgsComposerMap14drawAnnotationEP8QPainterRK7QPointFiRK7QString@Base {QGIS_ABI}
 _ZN14QgsComposerMap14setMapRotationEd@Base {QGIS_ABI}
 _ZN14QgsComposerMap15rotationChangedEd@Base {QGIS_ABI}
 _ZN14QgsComposerMap15setCacheUpdatedEb@Base {QGIS_ABI}
 _ZN14QgsComposerMap15setGridPenColorERK6QColor@Base {QGIS_ABI}
 _ZN14QgsComposerMap15setGridPenWidthEd@Base {QGIS_ABI}
 _ZN14QgsComposerMap16staticMetaObjectE@Base {QGIS_ABI}
 _ZN14QgsComposerMap17connectUpdateSlotEv@Base {QGIS_ABI}
 _ZN14QgsComposerMap17updateCachedImageEv@Base {QGIS_ABI}
 _ZN14QgsComposerMap18mCurrentComposerIdE@Base {QGIS_ABI}
 _ZN14QgsComposerMap18updateBoundingRectEv@Base {QGIS_ABI}
 _ZN14QgsComposerMap19drawGridAnnotationsEP8QPainterRK5QListI5QPairId6QLineFEES8_@Base {QGIS_ABI}
 _ZN14QgsComposerMap20storeCurrentLayerSetEv@Base {QGIS_ABI}
 _ZN14QgsComposerMap24drawCoordinateAnnotationEP8QPainterRK7QPointF7QString@Base {QGIS_ABI}
 _ZN14QgsComposerMap25drawCoordinateAnnotationsEP8QPainterRK5QListI5QPairId6QLineFEES8_@Base {QGIS_ABI}
 _ZN14QgsComposerMap27renderModeUpdateCachedImageEv@Base {QGIS_ABI}
 _ZN14QgsComposerMap4drawEP8QPainterRK12QgsRectangleRK5QSizei@Base {QGIS_ABI}
 _ZN14QgsComposerMap5cacheEv@Base {QGIS_ABI}
 _ZN14QgsComposerMap5paintEP8QPainterPK24QStyleOptionGraphicsItemP7QWidget@Base {QGIS_ABI}
 _ZN14QgsComposerMap6resizeEdd@Base {QGIS_ABI}
 _ZN14QgsComposerMap7readXMLERK11QDomElementRK12QDomDocument@Base {QGIS_ABI}
 _ZN14QgsComposerMap8drawGridEP8QPainter@Base {QGIS_ABI}
 _ZN14QgsComposerMap9setOffsetEdd@Base {QGIS_ABI}
 _ZN14QgsComposerMapC1EP14QgsComposition@Base {QGIS_ABI}
 _ZN14QgsComposerMapC1EP14QgsCompositioniiii@Base {QGIS_ABI}
 _ZN14QgsComposerMapC2EP14QgsComposition@Base {QGIS_ABI}
 _ZN14QgsComposerMapC2EP14QgsCompositioniiii@Base {QGIS_ABI}
 _ZN14QgsComposerMapD0Ev@Base {QGIS_ABI}
 _ZN14QgsComposerMapD1Ev@Base {QGIS_ABI}
 _ZN14QgsComposerMapD2Ev@Base {QGIS_ABI}
 _ZN14QgsComposition10setGridPenERK4QPen@Base {QGIS_ABI}
 _ZN14QgsComposition11qt_metacallEN11QMetaObject4CallEiPPv@Base {QGIS_ABI}
 _ZN14QgsComposition11qt_metacastEPKc@Base {QGIS_ABI}
 _ZN14QgsComposition12setGridStyleENS_9GridStyleE@Base {QGIS_ABI}
 _ZN14QgsComposition12setPaperSizeEdd@Base {QGIS_ABI}
 _ZN14QgsComposition13moveItemToTopEP15QgsComposerItem@Base {QGIS_ABI}
 _ZN14QgsComposition13updateZValuesEv@Base {QGIS_ABI}
 _ZN14QgsComposition14addItemToZListEP15QgsComposerItem@Base {QGIS_ABI}
 _ZN14QgsComposition14composerItemAtERK7QPointF@Base {QGIS_ABI}
 _ZN14QgsComposition16moveItemToBottomEP15QgsComposerItem@Base {QGIS_ABI}
 _ZN14QgsComposition16paperSizeChangedEv@Base {QGIS_ABI}
 _ZN14QgsComposition16setPrintAsRasterEb@Base {QGIS_ABI}
 _ZN14QgsComposition16staticMetaObjectE@Base {QGIS_ABI}
 _ZN14QgsComposition18lowerSelectedItemsEv@Base {QGIS_ABI}
 _ZN14QgsComposition18raiseSelectedItemsEv@Base {QGIS_ABI}
 _ZN14QgsComposition18setSnapGridOffsetXEd@Base {QGIS_ABI}
 _ZN14QgsComposition18setSnapGridOffsetYEd@Base {QGIS_ABI}
 _ZN14QgsComposition19removeItemFromZListEP15QgsComposerItem@Base {QGIS_ABI}
 _ZN14QgsComposition20setSnapToGridEnabledEb@Base {QGIS_ABI}
 _ZN14QgsComposition21alignSelectedItemsTopEv@Base {QGIS_ABI}
 _ZN14QgsComposition21selectedComposerItemsEv@Base {QGIS_ABI}
 _ZN14QgsComposition21setSnapGridResolutionEd@Base {QGIS_ABI}
 _ZN14QgsComposition22alignSelectedItemsLeftEv@Base {QGIS_ABI}
 _ZN14QgsComposition22moveSelectedItemsToTopEv@Base {QGIS_ABI}
 _ZN14QgsComposition23alignSelectedItemsRightEv@Base {QGIS_ABI}
 _ZN14QgsComposition24alignSelectedItemsBottomEv@Base {QGIS_ABI}
 _ZN14QgsComposition25alignSelectedItemsHCenterEv@Base {QGIS_ABI}
 _ZN14QgsComposition25alignSelectedItemsVCenterEv@Base {QGIS_ABI}
 _ZN14QgsComposition25moveSelectedItemsToBottomEv@Base {QGIS_ABI}
 _ZN14QgsComposition26loadGridAppearanceSettingsEv@Base {QGIS_ABI}
 _ZN14QgsComposition26saveGridAppearanceSettingsEv@Base {QGIS_ABI}
 _ZN14QgsComposition27boundingRectOfSelectedItemsER6QRectF@Base {QGIS_ABI}
 _ZN14QgsComposition7readXMLERK11QDomElementRK12QDomDocument@Base {QGIS_ABI}
 _ZN14QgsComposition8writeXMLER11QDomElementR12QDomDocument@Base {QGIS_ABI}
 _ZN14QgsComposition9lowerItemEP15QgsComposerItem@Base {QGIS_ABI}
 _ZN14QgsComposition9raiseItemEP15QgsComposerItem@Base {QGIS_ABI}
 _ZN14QgsComposition9sortZListEv@Base {QGIS_ABI}
 _ZN14QgsCompositionC1EP14QgsMapRenderer@Base {QGIS_ABI}
 _ZN14QgsCompositionC1Ev@Base {QGIS_ABI}
 _ZN14QgsCompositionC2EP14QgsMapRenderer@Base {QGIS_ABI}
 _ZN14QgsCompositionC2Ev@Base {QGIS_ABI}
 _ZN14QgsCompositionD0Ev@Base {QGIS_ABI}
 _ZN14QgsCompositionD1Ev@Base {QGIS_ABI}
 _ZN14QgsCompositionD2Ev@Base {QGIS_ABI}
 _ZN14QgsContextHelp11qt_metacallEN11QMetaObject4CallEiPPv@Base {QGIS_ABI}
 _ZN14QgsContextHelp11qt_metacastEPKc@Base {QGIS_ABI}
 _ZN14QgsContextHelp11showContextE7QString@Base {QGIS_ABI}
 _ZN14QgsContextHelp11showContextEi@Base {QGIS_ABI}
 _ZN14QgsContextHelp12gContextHelpE@Base {QGIS_ABI}
 _ZN14QgsContextHelp13processExitedEv@Base {QGIS_ABI}
 _ZN14QgsContextHelp16staticMetaObjectE@Base {QGIS_ABI}
 _ZN14QgsContextHelp3runE7QString@Base {QGIS_ABI}
 _ZN14QgsContextHelp3runEi@Base {QGIS_ABI}
 _ZN14QgsContextHelp5startE7QString@Base {QGIS_ABI}
 _ZN14QgsContextHelp5startEi@Base {QGIS_ABI}
 _ZN14QgsContextHelp8readPortEv@Base {QGIS_ABI}
 _ZN14QgsContextHelpC1E7QString@Base {QGIS_ABI}
 _ZN14QgsContextHelpC1Ei@Base {QGIS_ABI}
 _ZN14QgsContextHelpC2E7QString@Base {QGIS_ABI}
 _ZN14QgsContextHelpC2Ei@Base {QGIS_ABI}
 _ZN14QgsContextHelpD0Ev@Base {QGIS_ABI}
 _ZN14QgsContextHelpD1Ev@Base {QGIS_ABI}
 _ZN14QgsContextHelpD2Ev@Base {QGIS_ABI}
 _ZN14QgsCsExceptionC1ERKS_@Base {QGIS_ABI}
 _ZN14QgsCsExceptionD0Ev@Base {QGIS_ABI}
 _ZN14QgsCsExceptionD1Ev@Base {QGIS_ABI}
 _ZN14QgsIOExceptionC1ERK7QString@Base {QGIS_ABI}
 _ZN14QgsIOExceptionD0Ev@Base {QGIS_ABI}
 _ZN14QgsIOExceptionD1Ev@Base {QGIS_ABI}
 _ZN14QgsLegendModel10updateItemEP13QStandardItem@Base {QGIS_ABI}
 _ZN14QgsLegendModel11qt_metacallEN11QMetaObject4CallEiPPv@Base {QGIS_ABI}
 _ZN14QgsLegendModel11qt_metacastEPKc@Base {QGIS_ABI}
 _ZN14QgsLegendModel11removeLayerERK7QString@Base {QGIS_ABI}
 _ZN14QgsLegendModel11setLayerSetERK11QStringList@Base {QGIS_ABI}
 _ZN14QgsLegendModel11updateLayerEP13QStandardItem@Base {QGIS_ABI}
 _ZN14QgsLegendModel12insertSymbolEP9QgsSymbol@Base {QGIS_ABI}
 _ZN14QgsLegendModel12removeSymbolEP9QgsSymbol@Base {QGIS_ABI}
 _ZN14QgsLegendModel13layersChangedEv@Base {QGIS_ABI}
 _ZN14QgsLegendModel14itemFromSymbolEP9QgsSymboli@Base {QGIS_ABI}
 _ZN14QgsLegendModel16removeAllSymbolsEv@Base {QGIS_ABI}
 _ZN14QgsLegendModel16staticMetaObjectE@Base {QGIS_ABI}
 _ZN14QgsLegendModel18addRasterLayerItemEP13QStandardItemP11QgsMapLayer@Base {QGIS_ABI}
 _ZN14QgsLegendModel19addVectorLayerItemsEP13QStandardItemP11QgsMapLayer@Base {QGIS_ABI}
 _ZN14QgsLegendModel30updateRasterClassificationItemEP13QStandardItem@Base {QGIS_ABI}
 _ZN14QgsLegendModel30updateVectorClassificationItemEP13QStandardItemP9QgsSymbol7QString@Base {QGIS_ABI}
 _ZN14QgsLegendModel7readXMLERK11QDomElementRK12QDomDocument@Base {QGIS_ABI}
 _ZN14QgsLegendModel8addLayerEP11QgsMapLayer@Base {QGIS_ABI}
 _ZN14QgsLegendModelC1Ev@Base {QGIS_ABI}
 _ZN14QgsLegendModelC2Ev@Base {QGIS_ABI}
 _ZN14QgsLegendModelD0Ev@Base {QGIS_ABI}
 _ZN14QgsLegendModelD1Ev@Base {QGIS_ABI}
 _ZN14QgsLegendModelD2Ev@Base {QGIS_ABI}
 _ZN14QgsMapRenderer10fullExtentEv@Base {QGIS_ABI}
 _ZN14QgsMapRenderer10outputSizeEv@Base {QGIS_ABI}
 _ZN14QgsMapRenderer11qt_metacallEN11QMetaObject4CallEiPPv@Base {QGIS_ABI}
 _ZN14QgsMapRenderer11qt_metacastEPKc@Base {QGIS_ABI}
 _ZN14QgsMapRenderer11setLayerSetERK11QStringList@Base {QGIS_ABI}
 _ZN14QgsMapRenderer11setMapUnitsEN4QGis8UnitTypeE@Base {QGIS_ABI}
 _ZN14QgsMapRenderer11updateScaleEv@Base {QGIS_ABI}
 _ZN14QgsMapRenderer13setOutputSizeE5QSizei@Base {QGIS_ABI}
 _ZN14QgsMapRenderer14destinationSrsEv@Base {QGIS_ABI}
 _ZN14QgsMapRenderer15drawingProgressEii@Base {QGIS_ABI}
 _ZN14QgsMapRenderer15mapUnitsChangedEv@Base {QGIS_ABI}
 _ZN14QgsMapRenderer16staticMetaObjectE@Base {QGIS_ABI}
 _ZN14QgsMapRenderer16updateFullExtentEv@Base {QGIS_ABI}
 _ZN14QgsMapRenderer17onDrawingProgressEii@Base {QGIS_ABI}
 _ZN14QgsMapRenderer17setDestinationSrsERK28QgsCoordinateReferenceSystem@Base {QGIS_ABI}
 _ZN14QgsMapRenderer17setLabelingEngineEP26QgsLabelingEngineInterface@Base {QGIS_ABI}
 _ZN14QgsMapRenderer17splitLayersExtentEP11QgsMapLayerR12QgsRectangleS3_@Base {QGIS_ABI}
 _ZN14QgsMapRenderer18adjustExtentToSizeEv@Base {QGIS_ABI}
 _ZN14QgsMapRenderer21destinationSrsChangedEv@Base {QGIS_ABI}
 _ZN14QgsMapRenderer21layerToMapCoordinatesEP11QgsMapLayer8QgsPoint@Base {QGIS_ABI}
 _ZN14QgsMapRenderer21mapToLayerCoordinatesEP11QgsMapLayer12QgsRectangle@Base {QGIS_ABI}
 _ZN14QgsMapRenderer21mapToLayerCoordinatesEP11QgsMapLayer8QgsPoint@Base {QGIS_ABI}
 _ZN14QgsMapRenderer21setProjectionsEnabledEb@Base {QGIS_ABI}
 _ZN14QgsMapRenderer22hasCrsTransformEnabledEb@Base {QGIS_ABI}
 _ZN14QgsMapRenderer22hasCrsTransformEnabledEv@Base {QGIS_ABI}
 _ZN14QgsMapRenderer25layerExtentToOutputExtentEP11QgsMapLayer12QgsRectangle@Base {QGIS_ABI}
 _ZN14QgsMapRenderer26overlayManagerFromSettingsEv@Base {QGIS_ABI}
 _ZN14QgsMapRenderer6renderEP8QPainter@Base {QGIS_ABI}
 _ZN14QgsMapRenderer7readXMLER8QDomNode@Base {QGIS_ABI}
 _ZN14QgsMapRenderer8layerSetEv@Base {QGIS_ABI}
 _ZN14QgsMapRenderer8writeXMLER8QDomNodeR12QDomDocument@Base {QGIS_ABI}
 _ZN14QgsMapRenderer9drawErrorEP11QgsMapLayer@Base {QGIS_ABI}
 _ZN14QgsMapRenderer9outputDpiEv@Base {QGIS_ABI}
 _ZN14QgsMapRenderer9setExtentERK12QgsRectangle@Base {QGIS_ABI}
 _ZN14QgsMapRenderer9updateMapEv@Base {QGIS_ABI}
 _ZN14QgsMapRendererC1Ev@Base {QGIS_ABI}
 _ZN14QgsMapRendererC2Ev@Base {QGIS_ABI}
 _ZN14QgsMapRendererD0Ev@Base {QGIS_ABI}
 _ZN14QgsMapRendererD1Ev@Base {QGIS_ABI}
 _ZN14QgsMapRendererD2Ev@Base {QGIS_ABI}
 _ZN14QgsPALGeometry15getGeosGeometryEv@Base {QGIS_ABI}
 _ZN14QgsPALGeometry19releaseGeosGeometryEP10GEOSGeom_t@Base {QGIS_ABI}
 _ZN14QgsPALGeometryC1EP16QgsOverlayObject@Base {QGIS_ABI}
 _ZN14QgsPALGeometryC1Ev@Base {QGIS_ABI}
 _ZN14QgsPALGeometryC2EP16QgsOverlayObject@Base {QGIS_ABI}
 _ZN14QgsPALGeometryC2Ev@Base {QGIS_ABI}
 _ZN14QgsPALGeometryD0Ev@Base {QGIS_ABI}
 _ZN14QgsPALGeometryD1Ev@Base {QGIS_ABI}
 _ZN14QgsPALGeometryD2Ev@Base {QGIS_ABI}
 _ZN14QgsPropertyKey5clearEv@Base {QGIS_ABI}
 _ZN14QgsPropertyKey7readXMLER8QDomNode@Base {QGIS_ABI}
 _ZN14QgsPropertyKey8setValueERK7QStringRK8QVariant@Base {QGIS_ABI}
 _ZN14QgsPropertyKey8writeXMLERK7QStringR11QDomElementR12QDomDocument@Base {QGIS_ABI}
 _ZN14QgsPropertyKey9clearKeysEv@Base {QGIS_ABI}
 _ZN14QgsPropertyKeyC1E7QString@Base {QGIS_ABI}
 _ZN14QgsPropertyKeyC2E7QString@Base {QGIS_ABI}
 _ZN14QgsPropertyKeyD0Ev@Base {QGIS_ABI}
 _ZN14QgsPropertyKeyD1Ev@Base {QGIS_ABI}
 _ZN14QgsPropertyKeyD2Ev@Base {QGIS_ABI}
 _ZN14QgsRasterLayer10bandNumberERK7QString@Base {QGIS_ABI}
 _ZN14QgsRasterLayer10colorTableEi@Base {QGIS_ABI}
 _ZN14QgsRasterLayer11providerKeyEv@Base {QGIS_ABI}
 _ZN14QgsRasterLayer11qt_metacallEN11QMetaObject4CallEiPPv@Base {QGIS_ABI}
 _ZN14QgsRasterLayer11qt_metacastEPKc@Base {QGIS_ABI}
 _ZN14QgsRasterLayer12closeDatasetEv@Base {QGIS_ABI}
 _ZN14QgsRasterLayer12dataProviderEv@Base {QGIS_ABI}
 _ZN14QgsRasterLayer12lastModifiedERK7QString@Base {QGIS_ABI}
 _ZN14QgsRasterLayer12maximumValueE7QString@Base {QGIS_ABI}
 _ZN14QgsRasterLayer12maximumValueEj@Base {QGIS_ABI}
 _ZN14QgsRasterLayer12minimumValueE7QString@Base {QGIS_ABI}
 _ZN14QgsRasterLayer12minimumValueEj@Base {QGIS_ABI}
 _ZN14QgsRasterLayer12showProgressEi@Base {QGIS_ABI}
 _ZN14QgsRasterLayer12usesProviderEv@Base {QGIS_ABI}
 _ZN14QgsRasterLayer13buildPyramidsERK5QListI16QgsRasterPyramidERK7QStringb@Base {QGIS_ABI}
 _ZN14QgsRasterLayer13hasStatisticsEi@Base {QGIS_ABI}
 _ZN14QgsRasterLayer13projectionWktEv@Base {QGIS_ABI}
 _ZN14QgsRasterLayer13readSymbologyERK8QDomNodeR7QString@Base {QGIS_ABI}
 _ZN14QgsRasterLayer13setLayerOrderERK11QStringList@Base {QGIS_ABI}
 _ZN14QgsRasterLayer14bandStatisticsERK7QString@Base {QGIS_ABI}
 _ZN14QgsRasterLayer14bandStatisticsEi@Base {QGIS_ABI}
 _ZN14QgsRasterLayer14identifyAsTextERK8QgsPoint@Base {QGIS_ABI}
 _ZN14QgsRasterLayer14lastErrorTitleEv@Base {QGIS_ABI}
 _ZN14QgsRasterLayer14legendAsPixmapEb@Base {QGIS_ABI}
 _ZN14QgsRasterLayer14legendAsPixmapEi@Base {QGIS_ABI}
 _ZN14QgsRasterLayer14legendAsPixmapEv@Base {QGIS_ABI}
 _ZN14QgsRasterLayer14progressUpdateEi@Base {QGIS_ABI}
 _ZN14QgsRasterLayer14readColorTableEiP5QListIN18QgsColorRampShader13ColorRampItemEE@Base {QGIS_ABI}
 _ZN14QgsRasterLayer14setNoDataValueEd@Base {QGIS_ABI}
 _ZN14QgsRasterLayer14setRedBandNameERK7QString@Base {QGIS_ABI}
 _ZN14QgsRasterLayer14triggerRepaintEv@Base {QGIS_ABI}
 _ZN14QgsRasterLayer14updateProgressEii@Base {QGIS_ABI}
 _ZN14QgsRasterLayer15paletteAsPixmapEi@Base {QGIS_ABI}
 _ZN14QgsRasterLayer15setBlueBandNameERK7QString@Base {QGIS_ABI}
 _ZN14QgsRasterLayer15setDataProviderERK7QStringRK11QStringListS5_S2_S2_@Base {QGIS_ABI}
 _ZN14QgsRasterLayer15setDrawingStyleERK7QString@Base {QGIS_ABI}
 _ZN14QgsRasterLayer15setGrayBandNameERK7QString@Base {QGIS_ABI}
 _ZN14QgsRasterLayer15setMaximumValueE7QStringdb@Base {QGIS_ABI}
 _ZN14QgsRasterLayer15setMaximumValueEjdb@Base {QGIS_ABI}
 _ZN14QgsRasterLayer15setMinimumValueE7QStringdb@Base {QGIS_ABI}
 _ZN14QgsRasterLayer15setMinimumValueEjdb@Base {QGIS_ABI}
 _ZN14QgsRasterLayer16buildPyramidListEv@Base {QGIS_ABI}
 _ZN14QgsRasterLayer16generateBandNameEi@Base {QGIS_ABI}
 _ZN14QgsRasterLayer16resetNoDataValueEv@Base {QGIS_ABI}
 _ZN14QgsRasterLayer16setGreenBandNameERK7QString@Base {QGIS_ABI}
 _ZN14QgsRasterLayer16staticMetaObjectE@Base {QGIS_ABI}
 _ZN14QgsRasterLayer16validateBandNameERK7QString@Base {QGIS_ABI}
 _ZN14QgsRasterLayer17populateHistogramEiibb@Base {QGIS_ABI}
 _ZN14QgsRasterLayer17showStatusMessageERK7QString@Base {QGIS_ABI}
 _ZN14QgsRasterLayer17thumbnailAsPixmapEP7QPixmap@Base {QGIS_ABI}
 _ZN14QgsRasterLayer18drawMultiBandColorEP8QPainterP17QgsRasterViewPortPK13QgsMapToPixel@Base {QGIS_ABI}
 _ZN14QgsRasterLayer18drawSingleBandGrayEP8QPainterP17QgsRasterViewPortPK13QgsMapToPixeli@Base {QGIS_ABI}
 _ZN14QgsRasterLayer18paintImageToCanvasEP8QPainterP17QgsRasterViewPortPK13QgsMapToPixelP6QImage@Base {QGIS_ABI}
 _ZN14QgsRasterLayer19contrastEnhancementEj@Base {QGIS_ABI}
 _ZN14QgsRasterLayer19rasterUnitsPerPixelEv@Base {QGIS_ABI}
 _ZN14QgsRasterLayer19registerGdalDriversEv@Base {QGIS_ABI}
 _ZN14QgsRasterLayer21copySymbologySettingsERK11QgsMapLayer@Base {QGIS_ABI}
 _ZN14QgsRasterLayer21isValidRasterFileNameERK7QString@Base {QGIS_ABI}
 _ZN14QgsRasterLayer21isValidRasterFileNameERK7QStringRS0_@Base {QGIS_ABI}
 _ZN14QgsRasterLayer21setSubLayerVisibilityERK7QStringb@Base {QGIS_ABI}
 _ZN14QgsRasterLayer22setTransparentBandNameERK7QString@Base {QGIS_ABI}
 _ZN14QgsRasterLayer23setRasterShaderFunctionEP23QgsRasterShaderFunction@Base {QGIS_ABI}
 _ZN14QgsRasterLayer24setColorShadingAlgorithmE7QString@Base {QGIS_ABI}
 _ZN14QgsRasterLayer24setColorShadingAlgorithmENS_21ColorShadingAlgorithmE@Base {QGIS_ABI}
 _ZN14QgsRasterLayer25drawSingleBandPseudoColorEP8QPainterP17QgsRasterViewPortPK13QgsMapToPixeli@Base {QGIS_ABI}
 _ZN14QgsRasterLayer26drawPalettedMultiBandColorEP8QPainterP17QgsRasterViewPortPK13QgsMapToPixeli@Base {QGIS_ABI}
 _ZN14QgsRasterLayer26drawPalettedSingleBandGrayEP8QPainterP17QgsRasterViewPortPK13QgsMapToPixeli@Base {QGIS_ABI}
 _ZN14QgsRasterLayer27drawMultiBandSingleBandGrayEP8QPainterP17QgsRasterViewPortPK13QgsMapToPixeli@Base {QGIS_ABI}
 _ZN14QgsRasterLayer27drawPalettedSingleBandColorEP8QPainterP17QgsRasterViewPortPK13QgsMapToPixeli@Base {QGIS_ABI}
 _ZN14QgsRasterLayer2trEPKcS1_@Base {QGIS_ABI}
 _ZN14QgsRasterLayer30buildSupportedRasterFileFilterER7QString@Base {QGIS_ABI}
 _ZN14QgsRasterLayer30computeMinimumMaximumEstimatesE7QStringPd@Base {QGIS_ABI}
 _ZN14QgsRasterLayer30computeMinimumMaximumEstimatesEiPd@Base {QGIS_ABI}
 _ZN14QgsRasterLayer30setContrastEnhancementFunctionEP30QgsContrastEnhancementFunction@Base {QGIS_ABI}
 _ZN14QgsRasterLayer31setContrastEnhancementAlgorithmE7QStringb@Base {QGIS_ABI}
 _ZN14QgsRasterLayer31setContrastEnhancementAlgorithmEN22QgsContrastEnhancement28ContrastEnhancementAlgorithmEb@Base {QGIS_ABI}
 _ZN14QgsRasterLayer33drawPalettedSingleBandPseudoColorEP8QPainterP17QgsRasterViewPortPK13QgsMapToPixeli@Base {QGIS_ABI}
 _ZN14QgsRasterLayer34drawMultiBandSingleBandPseudoColorEP8QPainterP17QgsRasterViewPortPK13QgsMapToPixeli@Base {QGIS_ABI}
 _ZN14QgsRasterLayer35computeMinimumMaximumFromLastExtentE7QStringPd@Base {QGIS_ABI}
 _ZN14QgsRasterLayer35computeMinimumMaximumFromLastExtentEiPd@Base {QGIS_ABI}
 _ZN14QgsRasterLayer4drawEP8QPainterP17QgsRasterViewPortPK13QgsMapToPixel@Base {QGIS_ABI}
 _ZN14QgsRasterLayer4drawER16QgsRenderContext@Base {QGIS_ABI}
 _ZN14QgsRasterLayer6updateEv@Base {QGIS_ABI}
 _ZN14QgsRasterLayer7hasBandERK7QString@Base {QGIS_ABI}
 _ZN14QgsRasterLayer7readXmlER8QDomNode@Base {QGIS_ABI}
 _ZN14QgsRasterLayer8bandNameEi@Base {QGIS_ABI}
 _ZN14QgsRasterLayer8identifyERK8QgsPointR4QMapI7QStringS4_E@Base {QGIS_ABI}
 _ZN14QgsRasterLayer8metadataEv@Base {QGIS_ABI}
 _ZN14QgsRasterLayer8readDataEPvP17QgsRasterViewPort@Base {QGIS_ABI}
 _ZN14QgsRasterLayer8readFileERK7QString@Base {QGIS_ABI}
 _ZN14QgsRasterLayer8writeXmlER8QDomNodeR12QDomDocument@Base {QGIS_ABI}
 _ZN14QgsRasterLayer9bandCountEv@Base {QGIS_ABI}
 _ZN14QgsRasterLayer9lastErrorEv@Base {QGIS_ABI}
 _ZN14QgsRasterLayerC1ERK7QStringS2_b@Base {QGIS_ABI}
 _ZN14QgsRasterLayerC1EiRK7QStringS2_S2_RK11QStringListS5_S2_S2_@Base {QGIS_ABI}
 _ZN14QgsRasterLayerC2ERK7QStringS2_b@Base {QGIS_ABI}
 _ZN14QgsRasterLayerC2EiRK7QStringS2_S2_RK11QStringListS5_S2_S2_@Base {QGIS_ABI}
 _ZN14QgsRasterLayerD0Ev@Base {QGIS_ABI}
 _ZN14QgsRasterLayerD1Ev@Base {QGIS_ABI}
 _ZN14QgsRasterLayerD2Ev@Base {QGIS_ABI}
 _ZN14QgsUndoCommand15storeFeatureAddER10QgsFeature@Base {QGIS_ABI}
 _ZN14QgsUndoCommand17storeAttributeAddEiRK8QgsField@Base {QGIS_ABI}
 _ZN14QgsUndoCommand18storeFeatureDeleteEi@Base {QGIS_ABI}
 _ZN14QgsUndoCommand19GeometryChangeEntry17setTargetGeometryER11QgsGeometry@Base {QGIS_ABI}
 _ZN14QgsUndoCommand19GeometryChangeEntry19setOriginalGeometryER11QgsGeometry@Base {QGIS_ABI}
 _ZN14QgsUndoCommand19GeometryChangeEntryC1Ev@Base {QGIS_ABI}
 _ZN14QgsUndoCommand19GeometryChangeEntryC2Ev@Base {QGIS_ABI}
 _ZN14QgsUndoCommand19GeometryChangeEntryD1Ev@Base {QGIS_ABI}
 _ZN14QgsUndoCommand19GeometryChangeEntryD2Ev@Base {QGIS_ABI}
 _ZN14QgsUndoCommand19storeGeometryChangeEiR11QgsGeometryS1_@Base {QGIS_ABI}
 _ZN14QgsUndoCommand20AttributeChangeEntryD1Ev@Base {QGIS_ABI}
 _ZN14QgsUndoCommand20storeAttributeChangeEii8QVariantS0_b@Base {QGIS_ABI}
 _ZN14QgsUndoCommand20storeAttributeDeleteEiRK8QgsField@Base {QGIS_ABI}
 _ZN14QgsUndoCommand4redoEv@Base {QGIS_ABI}
 _ZN14QgsUndoCommand4undoEv@Base {QGIS_ABI}
 _ZN14QgsUndoCommandC1EP14QgsVectorLayer7QString@Base {QGIS_ABI}
 _ZN14QgsUndoCommandC2EP14QgsVectorLayer7QString@Base {QGIS_ABI}
 _ZN14QgsUndoCommandD0Ev@Base {QGIS_ABI}
 _ZN14QgsUndoCommandD1Ev@Base {QGIS_ABI}
 _ZN14QgsVectorLayer10addFeatureER10QgsFeatureb@Base {QGIS_ABI}
 _ZN14QgsVectorLayer10addOverlayEP16QgsVectorOverlay@Base {QGIS_ABI}
 _ZN14QgsVectorLayer10drawLabelsER16QgsRenderContext@Base {QGIS_ABI}
 _ZN14QgsVectorLayer10moveVertexEddii@Base {QGIS_ABI}
 _ZN14QgsVectorLayer10rendererV2Ev@Base {QGIS_ABI}
 _ZN14QgsVectorLayer11addFeaturesE5QListI10QgsFeatureEb@Base {QGIS_ABI}
 _ZN14QgsVectorLayer11drawFeatureER16QgsRenderContextR10QgsFeatureP6QImage@Base {QGIS_ABI}
 _ZN14QgsVectorLayer11drawPolygonEPhR16QgsRenderContext@Base {QGIS_ABI}
 _ZN14QgsVectorLayer11featureAtIdEiR10QgsFeaturebb@Base {QGIS_ABI}
 _ZN14QgsVectorLayer11nextFeatureER10QgsFeature@Base {QGIS_ABI}
 _ZN14QgsVectorLayer11qt_metacallEN11QMetaObject4CallEiPPv@Base {QGIS_ABI}
 _ZN14QgsVectorLayer11qt_metacastEPKc@Base {QGIS_ABI}
 _ZN14QgsVectorLayer11setEditFormE7QString@Base {QGIS_ABI}
 _ZN14QgsVectorLayer11setEditTypeEiNS_8EditTypeE@Base {QGIS_ABI}
 _ZN14QgsVectorLayer11setModifiedEbb@Base {QGIS_ABI}
 _ZN14QgsVectorLayer11setRendererEP11QgsRenderer@Base {QGIS_ABI}
 _ZN14QgsVectorLayer12addAttributeE7QStringS0_@Base {QGIS_ABI}
 _ZN14QgsVectorLayer12addAttributeERK8QgsField@Base {QGIS_ABI}
 _ZN14QgsVectorLayer12checkedStateEi@Base {QGIS_ABI}
 _ZN14QgsVectorLayer12commitErrorsEv@Base {QGIS_ABI}
 _ZN14QgsVectorLayer12dataProviderEv@Base {QGIS_ABI}
 _ZN14QgsVectorLayer12deleteVertexEii@Base {QGIS_ABI}
 _ZN14QgsVectorLayer12editFormInitEv@Base {QGIS_ABI}
 _ZN14QgsVectorLayer12enableLabelsEb@Base {QGIS_ABI}
 _ZN14QgsVectorLayer12insertVertexEddii@Base {QGIS_ABI}
 _ZN14QgsVectorLayer12layerDeletedEv@Base {QGIS_ABI}
 _ZN14QgsVectorLayer12startEditingEv@Base {QGIS_ABI}
 _ZN14QgsVectorLayer12subsetStringEv@Base {QGIS_ABI}
 _ZN14QgsVectorLayer13commitChangesEv@Base {QGIS_ABI}
 _ZN14QgsVectorLayer13deleteFeatureEi@Base {QGIS_ABI}
 _ZN14QgsVectorLayer13layerModifiedEb@Base {QGIS_ABI}
 _ZN14QgsVectorLayer13readSymbologyERK8QDomNodeR7QString@Base {QGIS_ABI}
 _ZN14QgsVectorLayer13removeOverlayERK7QString@Base {QGIS_ABI}
 _ZN14QgsVectorLayer13setRendererV2EP20QgsFeatureRendererV2@Base {QGIS_ABI}
 _ZN14QgsVectorLayer13splitFeaturesERK5QListI8QgsPointEb@Base {QGIS_ABI}
 _ZN14QgsVectorLayer13updateExtentsEv@Base {QGIS_ABI}
 _ZN14QgsVectorLayer14attributeAddedEi@Base {QGIS_ABI}
 _ZN14QgsVectorLayer14changeGeometryEiP11QgsGeometry@Base {QGIS_ABI}
 _ZN14QgsVectorLayer14drawLineStringEPhR16QgsRenderContext@Base {QGIS_ABI}
 _ZN14QgsVectorLayer14drawRendererV2ER16QgsRenderContextb@Base {QGIS_ABI}
 _ZN14QgsVectorLayer14editFeatureAddER10QgsFeature@Base {QGIS_ABI}
 _ZN14QgsVectorLayer14editingStartedEv@Base {QGIS_ABI}
 _ZN14QgsVectorLayer14editingStoppedEv@Base {QGIS_ABI}
 _ZN14QgsVectorLayer14endEditCommandEv@Base {QGIS_ABI}
 _ZN14QgsVectorLayer14featureDeletedEi@Base {QGIS_ABI}
 _ZN14QgsVectorLayer14transformPointERdS0_PK13QgsMapToPixelPK22QgsCoordinateTransform@Base {QGIS_ABI}
 _ZN14QgsVectorLayer14triggerRepaintEv@Base {QGIS_ABI}
 _ZN14QgsVectorLayer14vectorOverlaysER5QListIP16QgsVectorOverlayE@Base {QGIS_ABI}
 _ZN14QgsVectorLayer15deleteAttributeEi@Base {QGIS_ABI}
 _ZN14QgsVectorLayer15invertSelectionEv@Base {QGIS_ABI}
 _ZN14QgsVectorLayer15redoEditCommandEP14QgsUndoCommand@Base {QGIS_ABI}
 _ZN14QgsVectorLayer15removeSelectionEb@Base {QGIS_ABI}
 _ZN14QgsVectorLayer15setCheckedStateEi7QStringS0_@Base {QGIS_ABI}
 _ZN14QgsVectorLayer15setDataProviderERK7QString@Base {QGIS_ABI}
 _ZN14QgsVectorLayer15setDisplayFieldE7QString@Base {QGIS_ABI}
 _ZN14QgsVectorLayer15setEditFormInitE7QString@Base {QGIS_ABI}
 _ZN14QgsVectorLayer15setSubsetStringE7QString@Base {QGIS_ABI}
 _ZN14QgsVectorLayer15snapWithContextERK8QgsPointdR9QMultiMapId17QgsSnappingResultEN10QgsSnapper12SnappingTypeE@Base {QGIS_ABI}
 _ZN14QgsVectorLayer15undoEditCommandEP14QgsUndoCommand@Base {QGIS_ABI}
 _ZN14QgsVectorLayer16attributeDeletedEi@Base {QGIS_ABI}
 _ZN14QgsVectorLayer16beginEditCommandE7QString@Base {QGIS_ABI}
 _ZN14QgsVectorLayer16drawVertexMarkerEddR8QPainterNS_16VertexMarkerTypeEi@Base {QGIS_ABI}
 _ZN14QgsVectorLayer16drawVertexMarkerEiiR8QPainterNS_16VertexMarkerTypeEi@Base {QGIS_ABI}
 _ZN14QgsVectorLayer16selectedFeaturesEv@Base {QGIS_ABI}
 _ZN14QgsVectorLayer16selectionChangedEv@Base {QGIS_ABI}
 _ZN14QgsVectorLayer16staticMetaObjectE@Base {QGIS_ABI}
 _ZN14QgsVectorLayer16translateFeatureEidd@Base {QGIS_ABI}
 _ZN14QgsVectorLayer17addAttributeAliasEi7QString@Base {QGIS_ABI}
 _ZN14QgsVectorLayer17editFeatureDeleteEi@Base {QGIS_ABI}
 _ZN14QgsVectorLayer17findOverlayByTypeERK7QString@Base {QGIS_ABI}
 _ZN14QgsVectorLayer17isUsingRendererV2Ev@Base {QGIS_ABI}
 _ZN14QgsVectorLayer17setLabelingEngineEP26QgsLabelingEngineInterface@Base {QGIS_ABI}
 _ZN14QgsVectorLayer18destroyEditCommandEv@Base {QGIS_ABI}
 _ZN14QgsVectorLayer18editGeometryChangeEiR11QgsGeometry@Base {QGIS_ABI}
 _ZN14QgsVectorLayer18setUsingRendererV2Eb@Base {QGIS_ABI}
 _ZN14QgsVectorLayer19editAttributeChangeEii8QVariant@Base {QGIS_ABI}
 _ZN14QgsVectorLayer19pendingFeatureCountEv@Base {QGIS_ABI}
 _ZN14QgsVectorLayer19setCoordinateSystemEv@Base {QGIS_ABI}
 _ZN14QgsVectorLayer19setProviderEncodingERK7QString@Base {QGIS_ABI}
 _ZN14QgsVectorLayer19setSelectedFeaturesERK4QSetIiE@Base {QGIS_ABI}
 _ZN14QgsVectorLayer20addTopologicalPointsEP11QgsGeometry@Base {QGIS_ABI}
 _ZN14QgsVectorLayer20addTopologicalPointsERK8QgsPoint@Base {QGIS_ABI}
 _ZN14QgsVectorLayer20changeAttributeValueEii8QVariantb@Base {QGIS_ABI}
 _ZN14QgsVectorLayer20drawRendererV2LevelsER16QgsRenderContextb@Base {QGIS_ABI}
 _ZN14QgsVectorLayer20selectedFeatureCountEv@Base {QGIS_ABI}
 _ZN14QgsVectorLayer21attributeValueChangedEiiRK8QVariant@Base {QGIS_ABI}
 _ZN14QgsVectorLayer21boundingBoxOfSelectedEv@Base {QGIS_ABI}
 _ZN14QgsVectorLayer21copySymbologySettingsERK11QgsMapLayer@Base {QGIS_ABI}
 _ZN14QgsVectorLayer21updateFeatureGeometryER10QgsFeature@Base {QGIS_ABI}
 _ZN14QgsVectorLayer22deleteCachedGeometriesEv@Base {QGIS_ABI}
 _ZN14QgsVectorLayer22deleteSelectedFeaturesEv@Base {QGIS_ABI}
 _ZN14QgsVectorLayer23currentVertexMarkerSizeEv@Base {QGIS_ABI}
 _ZN14QgsVectorLayer23currentVertexMarkerTypeEv@Base {QGIS_ABI}
 _ZN14QgsVectorLayer23updateFeatureAttributesER10QgsFeature@Base {QGIS_ABI}
 _ZN14QgsVectorLayer24pendingAllAttributesListEv@Base {QGIS_ABI}
 _ZN14QgsVectorLayer26invertSelectionInRectangleER12QgsRectangle@Base {QGIS_ABI}
 _ZN14QgsVectorLayer26removePolygonIntersectionsEP11QgsGeometry@Base {QGIS_ABI}
 _ZN14QgsVectorLayer28insertSegmentVerticesForSnapERK5QListI17QgsSnappingResultE@Base {QGIS_ABI}
 _ZN14QgsVectorLayer2trEPKcS1_i@Base {QGIS_ABI}
 _ZN14QgsVectorLayer4drawER16QgsRenderContext@Base {QGIS_ABI}
 _ZN14QgsVectorLayer5labelEv@Base {QGIS_ABI}
 _ZN14QgsVectorLayer5rangeEi@Base {QGIS_ABI}
 _ZN14QgsVectorLayer6selectE5QListIiE12QgsRectanglebb@Base {QGIS_ABI}
 _ZN14QgsVectorLayer6selectER12QgsRectangleb@Base {QGIS_ABI}
 _ZN14QgsVectorLayer6selectEib@Base {QGIS_ABI}
 _ZN14QgsVectorLayer7addRingERK5QListI8QgsPointE@Base {QGIS_ABI}
 _ZN14QgsVectorLayer7readXmlER8QDomNode@Base {QGIS_ABI}
 _ZN14QgsVectorLayer8deselectEib@Base {QGIS_ABI}
 _ZN14QgsVectorLayer8editFormEv@Base {QGIS_ABI}
 _ZN14QgsVectorLayer8editTypeEi@Base {QGIS_ABI}
 _ZN14QgsVectorLayer8rollBackEv@Base {QGIS_ABI}
 _ZN14QgsVectorLayer8valueMapEi@Base {QGIS_ABI}
 _ZN14QgsVectorLayer8writeXmlER8QDomNodeR12QDomDocument@Base {QGIS_ABI}
 _ZN14QgsVectorLayer9RangeDataD1Ev@Base {QGIS_ABI}
 _ZN14QgsVectorLayer9RangeDataaSERKS0_@Base {QGIS_ABI}
 _ZN14QgsVectorLayer9addIslandERK5QListI8QgsPointE@Base {QGIS_ABI}
 _ZN14QgsVectorLayer9snapPointER8QgsPointd@Base {QGIS_ABI}
 _ZN14QgsVectorLayerC1E7QStringS0_S0_b@Base {QGIS_ABI}
 _ZN14QgsVectorLayerC2E7QStringS0_S0_b@Base {QGIS_ABI}
 _ZN14QgsVectorLayerD0Ev@Base {QGIS_ABI}
 _ZN14QgsVectorLayerD1Ev@Base {QGIS_ABI}
 _ZN14QgsVectorLayerD2Ev@Base {QGIS_ABI}
 _ZN15QgsComposerItem11moveContentEdd@Base {QGIS_ABI}
 _ZN15QgsComposerItem11qt_metacallEN11QMetaObject4CallEiPPv@Base {QGIS_ABI}
 _ZN15QgsComposerItem11qt_metacastEPKc@Base {QGIS_ABI}
 _ZN15QgsComposerItem11removeItemsEv@Base {QGIS_ABI}
 _ZN15QgsComposerItem11setRotationEd@Base {QGIS_ABI}
 _ZN15QgsComposerItem11setSelectedEb@Base {QGIS_ABI}
 _ZN15QgsComposerItem11zoomContentEidd@Base {QGIS_ABI}
 _ZN15QgsComposerItem12readSettingsEv@Base {QGIS_ABI}
 _ZN15QgsComposerItem12setSceneRectERK6QRectF@Base {QGIS_ABI}
 _ZN15QgsComposerItem12updateCursorERK7QPointF@Base {QGIS_ABI}
 _ZN15QgsComposerItem13writeSettingsEv@Base {QGIS_ABI}
 _ZN15QgsComposerItem14drawBackgroundEP8QPainter@Base {QGIS_ABI}
 _ZN15QgsComposerItem14hoverMoveEventEP24QGraphicsSceneHoverEvent@Base {QGIS_ABI}
 _ZN15QgsComposerItem14mouseMoveEventEP24QGraphicsSceneMouseEvent@Base {QGIS_ABI}
 _ZN15QgsComposerItem14removeSettingsEv@Base {QGIS_ABI}
 _ZN15QgsComposerItem15mousePressEventEP24QGraphicsSceneMouseEvent@Base {QGIS_ABI}
 _ZN15QgsComposerItem15rotationChangedEd@Base {QGIS_ABI}
 _ZN15QgsComposerItem15setItemPositionEddNS_16ItemPositionModeE@Base {QGIS_ABI}
 _ZN15QgsComposerItem16staticMetaObjectE@Base {QGIS_ABI}
 _ZN15QgsComposerItem17cursorForPositionERK7QPointF@Base {QGIS_ABI}
 _ZN15QgsComposerItem17mouseReleaseEventEP24QGraphicsSceneMouseEvent@Base {QGIS_ABI}
 _ZN15QgsComposerItem18drawSelectionBoxesEP8QPainter@Base {QGIS_ABI}
 _ZN15QgsComposerItem19changeItemRectangleERK7QPointFS2_PK17QGraphicsRectItemddPS3_@Base {QGIS_ABI}
 _ZN15QgsComposerItem21sizeChangedByRotationERdS0_@Base {QGIS_ABI}
 _ZN15QgsComposerItem26mouseMoveActionForPositionERK7QPointF@Base {QGIS_ABI}
 _ZN15QgsComposerItem4moveEdd@Base {QGIS_ABI}
 _ZN15QgsComposerItem7addItemEPS_@Base {QGIS_ABI}
 _ZN15QgsComposerItem8_readXMLERK11QDomElementRK12QDomDocument@Base {QGIS_ABI}
 _ZN15QgsComposerItem8selectedEv@Base {QGIS_ABI}
 _ZN15QgsComposerItem9drawFrameEP8QPainter@Base {QGIS_ABI}
 _ZN15QgsComposerItemC1EP14QgsCompositionb@Base {QGIS_ABI}
 _ZN15QgsComposerItemC1EddddP14QgsCompositionb@Base {QGIS_ABI}
 _ZN15QgsComposerItemC2EP14QgsCompositionb@Base {QGIS_ABI}
 _ZN15QgsComposerItemC2EddddP14QgsCompositionb@Base {QGIS_ABI}
 _ZN15QgsComposerItemD0Ev@Base {QGIS_ABI}
 _ZN15QgsComposerItemD1Ev@Base {QGIS_ABI}
 _ZN15QgsComposerItemD2Ev@Base {QGIS_ABI}
 _ZN15QgsDataProvider11qt_metacallEN11QMetaObject4CallEiPPv@Base {QGIS_ABI}
 _ZN15QgsDataProvider11qt_metacastEPKc@Base {QGIS_ABI}
 _ZN15QgsDataProvider12subsetStringEv@Base {QGIS_ABI}
 _ZN15QgsDataProvider13setLayerOrderE11QStringList@Base {QGIS_ABI}
 _ZN15QgsDataProvider13updateExtentsEv@Base {QGIS_ABI}
 _ZN15QgsDataProvider15setSubsetStringE7QString@Base {QGIS_ABI}
 _ZN15QgsDataProvider16setDataSourceUriERK7QString@Base {QGIS_ABI}
 _ZN15QgsDataProvider16staticMetaObjectE@Base {QGIS_ABI}
 _ZN15QgsDataProvider20fullExtentCalculatedEv@Base {QGIS_ABI}
 _ZN15QgsDataProvider20supportsSubsetStringEv@Base {QGIS_ABI}
 _ZN15QgsDataProvider21setSubLayerVisibilityE7QStringb@Base {QGIS_ABI}
 _ZN15QgsDataProviderD0Ev@Base {QGIS_ABI}
 _ZN15QgsDataProviderD1Ev@Base {QGIS_ABI}
 _ZN15QgsDataProviderD2Ev@Base {QGIS_ABI}
 _ZN15QgsDistanceArea11measureLineEPhPdb@Base {QGIS_ABI}
 _ZN15QgsDistanceArea11measureLineERK5QListI8QgsPointE@Base {QGIS_ABI}
 _ZN15QgsDistanceArea11measureLineERK8QgsPointS2_@Base {QGIS_ABI}
 _ZN15QgsDistanceArea12setEllipsoidERK7QString@Base {QGIS_ABI}
 _ZN15QgsDistanceArea12setSourceCrsEl@Base {QGIS_ABI}
 _ZN15QgsDistanceArea14measurePolygonEPhPdb@Base {QGIS_ABI}
 _ZN15QgsDistanceArea14measurePolygonERK5QListI8QgsPointE@Base {QGIS_ABI}
 _ZN15QgsDistanceArea15computeAreaInitEv@Base {QGIS_ABI}
 _ZN15QgsDistanceArea18computePolygonAreaERK5QListI8QgsPointE@Base {QGIS_ABI}
 _ZN15QgsDistanceArea18setSourceEpsgCrsIdEl@Base {QGIS_ABI}
 _ZN15QgsDistanceArea21setProjectionsEnabledEb@Base {QGIS_ABI}
 _ZN15QgsDistanceArea22computeDistanceBearingERK8QgsPointS2_PdS3_@Base {QGIS_ABI}
 _ZN15QgsDistanceArea22computePolygonFlatAreaERK5QListI8QgsPointE@Base {QGIS_ABI}
 _ZN15QgsDistanceArea4getQEd@Base {QGIS_ABI}
 _ZN15QgsDistanceArea7bearingERK8QgsPointS2_@Base {QGIS_ABI}
 _ZN15QgsDistanceArea7getQbarEd@Base {QGIS_ABI}
 _ZN15QgsDistanceArea7measureEP11QgsGeometry@Base {QGIS_ABI}
 _ZN15QgsDistanceArea8textUnitEdiN4QGis8UnitTypeEb@Base {QGIS_ABI}
 _ZN15QgsDistanceAreaC1Ev@Base {QGIS_ABI}
 _ZN15QgsDistanceAreaC2Ev@Base {QGIS_ABI}
 _ZN15QgsDistanceAreaD1Ev@Base {QGIS_ABI}
 _ZN15QgsDistanceAreaD2Ev@Base {QGIS_ABI}
 _ZN15QgsFillSymbolV213renderPolygonERK9QPolygonFP5QListIS0_ER16QgsRenderContexti@Base {QGIS_ABI}
 _ZN15QgsFillSymbolV2C1E5QListIP16QgsSymbolLayerV2E@Base {QGIS_ABI}
 _ZN15QgsFillSymbolV2C2E5QListIP16QgsSymbolLayerV2E@Base {QGIS_ABI}
 _ZN15QgsFillSymbolV2D0Ev@Base {QGIS_ABI}
 _ZN15QgsFillSymbolV2D1Ev@Base {QGIS_ABI}
 _ZN15QgsLineSymbolV214renderPolylineERK9QPolygonFR16QgsRenderContexti@Base {QGIS_ABI}
 _ZN15QgsLineSymbolV25widthEv@Base {QGIS_ABI}
 _ZN15QgsLineSymbolV28setWidthEd@Base {QGIS_ABI}
 _ZN15QgsLineSymbolV2C1E5QListIP16QgsSymbolLayerV2E@Base {QGIS_ABI}
 _ZN15QgsLineSymbolV2C2E5QListIP16QgsSymbolLayerV2E@Base {QGIS_ABI}
 _ZN15QgsLineSymbolV2D0Ev@Base {QGIS_ABI}
 _ZN15QgsLineSymbolV2D1Ev@Base {QGIS_ABI}
 _ZN15QgsRasterShader15setMaximumValueEd@Base {QGIS_ABI}
 _ZN15QgsRasterShader15setMinimumValueEd@Base {QGIS_ABI}
 _ZN15QgsRasterShader23setRasterShaderFunctionEP23QgsRasterShaderFunction@Base {QGIS_ABI}
 _ZN15QgsRasterShader5shadeEdPiS0_S0_@Base {QGIS_ABI}
 _ZN15QgsRasterShader5shadeEdddPiS0_S0_@Base {QGIS_ABI}
 _ZN15QgsRasterShaderC1Edd@Base {QGIS_ABI}
 _ZN15QgsRasterShaderC2Edd@Base {QGIS_ABI}
 _ZN15QgsRasterShaderD1Ev@Base {QGIS_ABI}
 _ZN15QgsRasterShaderD2Ev@Base {QGIS_ABI}
 _ZN15QgsSearchString5clearEv@Base {QGIS_ABI}
 _ZN15QgsSearchString7isEmptyEv@Base {QGIS_ABI}
 _ZN15QgsSearchString7setTreeEP17QgsSearchTreeNode@Base {QGIS_ABI}
 _ZN15QgsSearchString9setStringE7QString@Base {QGIS_ABI}
 _ZN15QgsSearchStringC1ERKS_@Base {QGIS_ABI}
 _ZN15QgsSearchStringC1Ev@Base {QGIS_ABI}
 _ZN15QgsSearchStringC2ERKS_@Base {QGIS_ABI}
 _ZN15QgsSearchStringC2Ev@Base {QGIS_ABI}
 _ZN15QgsSearchStringD1Ev@Base {QGIS_ABI}
 _ZN15QgsSearchStringD2Ev@Base {QGIS_ABI}
 _ZN15QgsSearchStringaSERKS_@Base {QGIS_ABI}
 _ZN15QgsSpatialIndex10intersectsE12QgsRectangle@Base {QGIS_ABI}
 _ZN15QgsSpatialIndex11featureInfoER10QgsFeatureRN5Tools8Geometry6RegionERl@Base {QGIS_ABI}
 _ZN15QgsSpatialIndex12rectToRegionE12QgsRectangle@Base {QGIS_ABI}
 _ZN15QgsSpatialIndex13deleteFeatureER10QgsFeature@Base {QGIS_ABI}
 _ZN15QgsSpatialIndex13insertFeatureER10QgsFeature@Base {QGIS_ABI}
 _ZN15QgsSpatialIndex15nearestNeighborE8QgsPointi@Base {QGIS_ABI}
 _ZN15QgsSpatialIndexC1Ev@Base {QGIS_ABI}
 _ZN15QgsSpatialIndexC2Ev@Base {QGIS_ABI}
 _ZN15QgsSpatialIndexD1Ev@Base {QGIS_ABI}
 _ZN15QgsSpatialIndexD2Ev@Base {QGIS_ABI}
 _ZN16QgsComposerArrow12setEndMarkerERK7QString@Base {QGIS_ABI}
 _ZN16QgsComposerArrow12setSceneRectERK6QRectF@Base {QGIS_ABI}
 _ZN16QgsComposerArrow13drawSVGMarkerEP8QPainterNS_10MarkerTypeERK7QString@Base {QGIS_ABI}
 _ZN16QgsComposerArrow14setStartMarkerERK7QString@Base {QGIS_ABI}
 _ZN16QgsComposerArrow15setOutlineWidthEd@Base {QGIS_ABI}
 _ZN16QgsComposerArrow17setArrowHeadWidthEd@Base {QGIS_ABI}
 _ZN16QgsComposerArrow18adaptItemSceneRectEv@Base {QGIS_ABI}
 _ZN16QgsComposerArrow19drawHardcodedMarkerEP8QPainterNS_10MarkerTypeE@Base {QGIS_ABI}
 _ZN16QgsComposerArrow20initGraphicsSettingsEv@Base {QGIS_ABI}
 _ZN16QgsComposerArrow5paintEP8QPainterPK24QStyleOptionGraphicsItemP7QWidget@Base {QGIS_ABI}
 _ZN16QgsComposerArrow7readXMLERK11QDomElementRK12QDomDocument@Base {QGIS_ABI}
 _ZN16QgsComposerArrowC1EP14QgsComposition@Base {QGIS_ABI}
 _ZN16QgsComposerArrowC1ERK7QPointFS2_P14QgsComposition@Base {QGIS_ABI}
 _ZN16QgsComposerArrowC2EP14QgsComposition@Base {QGIS_ABI}
 _ZN16QgsComposerArrowC2ERK7QPointFS2_P14QgsComposition@Base {QGIS_ABI}
 _ZN16QgsComposerArrowD0Ev@Base {QGIS_ABI}
 _ZN16QgsComposerArrowD1Ev@Base {QGIS_ABI}
 _ZN16QgsComposerArrowD2Ev@Base {QGIS_ABI}
 _ZN16QgsComposerLabel16adjustSizeToTextEv@Base {QGIS_ABI}
 _ZN16QgsComposerLabel5paintEP8QPainterPK24QStyleOptionGraphicsItemP7QWidget@Base {QGIS_ABI}
 _ZN16QgsComposerLabel7readXMLERK11QDomElementRK12QDomDocument@Base {QGIS_ABI}
 _ZN16QgsComposerLabel7setFontERK5QFont@Base {QGIS_ABI}
 _ZN16QgsComposerLabel7setTextERK7QString@Base {QGIS_ABI}
 _ZN16QgsComposerLabelC1EP14QgsComposition@Base {QGIS_ABI}
 _ZN16QgsComposerLabelC2EP14QgsComposition@Base {QGIS_ABI}
 _ZN16QgsComposerLabelD0Ev@Base {QGIS_ABI}
 _ZN16QgsComposerLabelD1Ev@Base {QGIS_ABI}
 _ZN16QgsComposerLabelD2Ev@Base {QGIS_ABI}
 _ZN16QgsComposerShape11qt_metacallEN11QMetaObject4CallEiPPv@Base {QGIS_ABI}
 _ZN16QgsComposerShape11qt_metacastEPKc@Base {QGIS_ABI}
 _ZN16QgsComposerShape11setRotationEd@Base {QGIS_ABI}
 _ZN16QgsComposerShape12setFillColorERK6QColor@Base {QGIS_ABI}
 _ZN16QgsComposerShape12setLineWidthEd@Base {QGIS_ABI}
 _ZN16QgsComposerShape12setSceneRectERK6QRectF@Base {QGIS_ABI}
 _ZN16QgsComposerShape15initBrushAndPenEv@Base {QGIS_ABI}
 _ZN16QgsComposerShape15setOutlineColorERK6QColor@Base {QGIS_ABI}
 _ZN16QgsComposerShape16staticMetaObjectE@Base {QGIS_ABI}
 _ZN16QgsComposerShape18setTransparentFillEb@Base {QGIS_ABI}
 _ZN16QgsComposerShape20initGraphicsSettingsEv@Base {QGIS_ABI}
 _ZN16QgsComposerShape5paintEP8QPainterPK24QStyleOptionGraphicsItemP7QWidget@Base {QGIS_ABI}
 _ZN16QgsComposerShape7readXMLERK11QDomElementRK12QDomDocument@Base {QGIS_ABI}
 _ZN16QgsComposerShapeC1EP14QgsComposition@Base {QGIS_ABI}
 _ZN16QgsComposerShapeC1EddddP14QgsComposition@Base {QGIS_ABI}
 _ZN16QgsComposerShapeC2EP14QgsComposition@Base {QGIS_ABI}
 _ZN16QgsComposerShapeC2EddddP14QgsComposition@Base {QGIS_ABI}
 _ZN16QgsComposerShapeD0Ev@Base {QGIS_ABI}
 _ZN16QgsComposerShapeD1Ev@Base {QGIS_ABI}
 _ZN16QgsComposerShapeD2Ev@Base {QGIS_ABI}
 _ZN16QgsDataSourceURI10skipBlanksERK7QStringRi@Base {QGIS_ABI}
 _ZN16QgsDataSourceURI11clearSchemaEv@Base {QGIS_ABI}
 _ZN16QgsDataSourceURI11setDatabaseERK7QString@Base {QGIS_ABI}
 _ZN16QgsDataSourceURI12setKeyColumnE7QString@Base {QGIS_ABI}
 _ZN16QgsDataSourceURI13setConnectionERK7QStringS2_S2_S2_S2_NS_7SSLmodeE@Base {QGIS_ABI}
 _ZN16QgsDataSourceURI13setDataSourceERK7QStringS2_S2_S2_S2_@Base {QGIS_ABI}
 _ZN16QgsDataSourceURI14removePasswordERK7QString@Base {QGIS_ABI}
 _ZN16QgsDataSourceURI6setSqlE7QString@Base {QGIS_ABI}
 _ZN16QgsDataSourceURI8getValueERK7QStringRi@Base {QGIS_ABI}
 _ZN16QgsDataSourceURIC1E7QString@Base {QGIS_ABI}
 _ZN16QgsDataSourceURIC1Ev@Base {QGIS_ABI}
 _ZN16QgsDataSourceURIC2E7QString@Base {QGIS_ABI}
 _ZN16QgsDataSourceURIC2Ev@Base {QGIS_ABI}
 _ZN16QgsDataSourceURID1Ev@Base {QGIS_ABI}
 _ZN16QgsMessageOutput19createMessageOutputEv@Base {QGIS_ABI}
 _ZN16QgsMessageOutput21mMessageOutputCreatorE@Base {QGIS_ABI}
 _ZN16QgsMessageOutput23setMessageOutputCreatorEPFPS_vE@Base {QGIS_ABI}
 _ZN16QgsMessageOutputD0Ev@Base {QGIS_ABI}
 _ZN16QgsMessageOutputD1Ev@Base {QGIS_ABI}
 _ZN16QgsMessageOutputD2Ev@Base {QGIS_ABI}
 _ZN16QgsOverlayObject11addPositionERK8QgsPoint@Base {QGIS_ABI}
 _ZN16QgsOverlayObject11setGeometryEP11QgsGeometry@Base {QGIS_ABI}
 _ZN16QgsOverlayObject15getGeosGeometryEv@Base {QGIS_ABI}
 _ZN16QgsOverlayObjectC1ERKS_@Base {QGIS_ABI}
 _ZN16QgsOverlayObjectC1EiidP11QgsGeometry@Base {QGIS_ABI}
 _ZN16QgsOverlayObjectC2ERKS_@Base {QGIS_ABI}
 _ZN16QgsOverlayObjectC2EiidP11QgsGeometry@Base {QGIS_ABI}
 _ZN16QgsOverlayObjectD0Ev@Base {QGIS_ABI}
 _ZN16QgsOverlayObjectD1Ev@Base {QGIS_ABI}
 _ZN16QgsOverlayObjectD2Ev@Base {QGIS_ABI}
 _ZN16QgsOverlayObjectaSERKS_@Base {QGIS_ABI}
 _ZN16QgsPropertyValue7readXMLER8QDomNode@Base {QGIS_ABI}
 _ZN16QgsPropertyValue8writeXMLERK7QStringR11QDomElementR12QDomDocument@Base {QGIS_ABI}
 _ZN16QgsPropertyValueD0Ev@Base {QGIS_ABI}
 _ZN16QgsPropertyValueD1Ev@Base {QGIS_ABI}
 _ZN16QgsRenderContext22setCoordinateTransformEP22QgsCoordinateTransform@Base {QGIS_ABI}
 _ZN16QgsRenderContextC1Ev@Base {QGIS_ABI}
 _ZN16QgsRenderContextC2Ev@Base {QGIS_ABI}
 _ZN16QgsRenderContextD1Ev@Base {QGIS_ABI}
 _ZN16QgsRenderContextD2Ev@Base {QGIS_ABI}
 _ZN16QgsScaleBarStyleC1EPK19QgsComposerScaleBar@Base {QGIS_ABI}
 _ZN16QgsScaleBarStyleC1Ev@Base {QGIS_ABI}
 _ZN16QgsScaleBarStyleC2EPK19QgsComposerScaleBar@Base {QGIS_ABI}
 _ZN16QgsScaleBarStyleC2Ev@Base {QGIS_ABI}
 _ZN16QgsScaleBarStyleD0Ev@Base {QGIS_ABI}
 _ZN16QgsScaleBarStyleD1Ev@Base {QGIS_ABI}
 _ZN16QgsScaleBarStyleD2Ev@Base {QGIS_ABI}
 _ZN16QgsSymbolLayerV212setSubSymbolEP11QgsSymbolV2@Base {QGIS_ABI}
 _ZN16QgsSymbolLayerV28setColorERK6QColor@Base {QGIS_ABI}
 _ZN16QgsSymbolLayerV29subSymbolEv@Base {QGIS_ABI}
 _ZN16QgsSymbolLayerV2D0Ev@Base {QGIS_ABI}
 _ZN16QgsSymbolLayerV2D1Ev@Base {QGIS_ABI}
 _ZN16QgsVectorOverlay20removeOverlayObjectsEv@Base {QGIS_ABI}
 _ZN16QgsVectorOverlayC1EP14QgsVectorLayer@Base {QGIS_ABI}
 _ZN16QgsVectorOverlayC2EP14QgsVectorLayer@Base {QGIS_ABI}
 _ZN16QgsVectorOverlayD0Ev@Base {QGIS_ABI}
 _ZN16QgsVectorOverlayD1Ev@Base {QGIS_ABI}
 _ZN16QgsVectorOverlayD2Ev@Base {QGIS_ABI}
 _ZN17QgsComposerLegend11qt_metacallEN11QMetaObject4CallEiPPv@Base {QGIS_ABI}
 _ZN17QgsComposerLegend11qt_metacastEPKc@Base {QGIS_ABI}
 _ZN17QgsComposerLegend11setItemFontERK5QFont@Base {QGIS_ABI}
 _ZN17QgsComposerLegend12setLayerFontERK5QFont@Base {QGIS_ABI}
 _ZN17QgsComposerLegend12setTitleFontERK5QFont@Base {QGIS_ABI}
 _ZN17QgsComposerLegend12updateLegendEv@Base {QGIS_ABI}
 _ZN17QgsComposerLegend13adjustBoxSizeEv@Base {QGIS_ABI}
 _ZN17QgsComposerLegend16staticMetaObjectE@Base {QGIS_ABI}
 _ZN17QgsComposerLegend19drawLayerChildItemsEP8QPainterP13QStandardItemRdS4_i@Base {QGIS_ABI}
 _ZN17QgsComposerLegend20synchronizeWithModelEv@Base {QGIS_ABI}
 _ZN17QgsComposerLegend21paintAndDetermineSizeEP8QPainter@Base {QGIS_ABI}
 _ZN17QgsComposerLegend5paintEP8QPainterPK24QStyleOptionGraphicsItemP7QWidget@Base {QGIS_ABI}
 _ZN17QgsComposerLegend7readXMLERK11QDomElementRK12QDomDocument@Base {QGIS_ABI}
 _ZN17QgsComposerLegendC1EP14QgsComposition@Base {QGIS_ABI}
 _ZN17QgsComposerLegendC1Ev@Base {QGIS_ABI}
 _ZN17QgsComposerLegendC2EP14QgsComposition@Base {QGIS_ABI}
 _ZN17QgsComposerLegendC2Ev@Base {QGIS_ABI}
 _ZN17QgsComposerLegendD0Ev@Base {QGIS_ABI}
 _ZN17QgsComposerLegendD1Ev@Base {QGIS_ABI}
 _ZN17QgsComposerLegendD2Ev@Base {QGIS_ABI}
 _ZN17QgsFreakOutShader14setClassBreaksEv@Base {QGIS_ABI}
 _ZN17QgsFreakOutShader15setMaximumValueEd@Base {QGIS_ABI}
 _ZN17QgsFreakOutShader15setMinimumValueEd@Base {QGIS_ABI}
 _ZN17QgsFreakOutShader5shadeEdPiS0_S0_@Base {QGIS_ABI}
 _ZN17QgsFreakOutShader5shadeEdddPiS0_S0_@Base {QGIS_ABI}
 _ZN17QgsFreakOutShaderC1Edd@Base {QGIS_ABI}
 _ZN17QgsFreakOutShaderC2Edd@Base {QGIS_ABI}
 _ZN17QgsFreakOutShaderD0Ev@Base {QGIS_ABI}
 _ZN17QgsFreakOutShaderD1Ev@Base {QGIS_ABI}
 _ZN17QgsMarkerSymbolV211renderPointERK7QPointFR16QgsRenderContexti@Base {QGIS_ABI}
 _ZN17QgsMarkerSymbolV24sizeEv@Base {QGIS_ABI}
 _ZN17QgsMarkerSymbolV25angleEv@Base {QGIS_ABI}
 _ZN17QgsMarkerSymbolV27setSizeEd@Base {QGIS_ABI}
 _ZN17QgsMarkerSymbolV28setAngleEd@Base {QGIS_ABI}
 _ZN17QgsMarkerSymbolV2C1E5QListIP16QgsSymbolLayerV2E@Base {QGIS_ABI}
 _ZN17QgsMarkerSymbolV2C2E5QListIP16QgsSymbolLayerV2E@Base {QGIS_ABI}
 _ZN17QgsMarkerSymbolV2D0Ev@Base {QGIS_ABI}
 _ZN17QgsMarkerSymbolV2D1Ev@Base {QGIS_ABI}
 _ZN17QgsProjectVersion4textEv@Base {QGIS_ABI}
 _ZN17QgsProjectVersionC1E7QString@Base {QGIS_ABI}
 _ZN17QgsProjectVersionC1Eiii7QString@Base {QGIS_ABI}
 _ZN17QgsProjectVersionC2E7QString@Base {QGIS_ABI}
 _ZN17QgsProjectVersionC2Eiii7QString@Base {QGIS_ABI}
 _ZN17QgsProjectVersioneqERKS_@Base {QGIS_ABI}
 _ZN17QgsProjectVersiongeERKS_@Base {QGIS_ABI}
 _ZN17QgsProjectVersiongtERKS_@Base {QGIS_ABI}
 _ZN17QgsSearchTreeNode12checkAgainstERK4QMapIi8QgsFieldERKS0_Ii8QVariantE@Base {QGIS_ABI}
 _ZN17QgsSearchTreeNode12valueAgainstERK4QMapIi8QgsFieldERKS0_Ii8QVariantE@Base {QGIS_ABI}
 _ZN17QgsSearchTreeNode12valueAgainstERK4QMapIi8QgsFieldERKS0_Ii8QVariantEP11QgsGeometry@Base {QGIS_ABI}
 _ZN17QgsSearchTreeNode16makeSearchStringEv@Base {QGIS_ABI}
 _ZN17QgsSearchTreeNode8getValueER18QgsSearchTreeValuePS_RK4QMapIi8QgsFieldERKS3_Ii8QVariantE@Base {QGIS_ABI}
 _ZN17QgsSearchTreeNode8getValueER18QgsSearchTreeValuePS_RK4QMapIi8QgsFieldERKS3_Ii8QVariantEP11QgsGeometry@Base {QGIS_ABI}
 _ZN17QgsSearchTreeNode9stripTextEv@Base {QGIS_ABI}
 _ZN17QgsSearchTreeNodeC1E7QStringb@Base {QGIS_ABI}
 _ZN17QgsSearchTreeNodeC1ENS_8OperatorEPS_S1_@Base {QGIS_ABI}
 _ZN17QgsSearchTreeNodeC1ERKS_@Base {QGIS_ABI}
 _ZN17QgsSearchTreeNodeC1Ed@Base {QGIS_ABI}
 _ZN17QgsSearchTreeNodeC2E7QStringb@Base {QGIS_ABI}
 _ZN17QgsSearchTreeNodeC2ENS_8OperatorEPS_S1_@Base {QGIS_ABI}
 _ZN17QgsSearchTreeNodeC2ERKS_@Base {QGIS_ABI}
 _ZN17QgsSearchTreeNodeC2Ed@Base {QGIS_ABI}
 _ZN17QgsSearchTreeNodeD1Ev@Base {QGIS_ABI}
 _ZN17QgsSearchTreeNodeD2Ev@Base {QGIS_ABI}
 _ZN17QgsSymbologyUtils13char2PenStyleEPKc@Base {QGIS_ABI}
 _ZN17QgsSymbologyUtils13penStyle2CharEN2Qt8PenStyleE@Base {QGIS_ABI}
 _ZN17QgsSymbologyUtils15brushStyle2CharEN2Qt10BrushStyleE@Base {QGIS_ABI}
 _ZN17QgsSymbologyUtils15char2BrushStyleEPKc@Base {QGIS_ABI}
 _ZN17QgsSymbologyUtils15char2LinePixmapEPKc@Base {QGIS_ABI}
 _ZN17QgsSymbologyUtils15penStyle2PixmapEN2Qt8PenStyleE@Base {QGIS_ABI}
 _ZN17QgsSymbologyUtils16penStyle2QStringEN2Qt8PenStyleE@Base {QGIS_ABI}
 _ZN17QgsSymbologyUtils16qString2PenStyleE7QString@Base {QGIS_ABI}
 _ZN17QgsSymbologyUtils17brushStyle2PixmapEN2Qt10BrushStyleE@Base {QGIS_ABI}
 _ZN17QgsSymbologyUtils18brushStyle2QStringEN2Qt10BrushStyleE@Base {QGIS_ABI}
 _ZN17QgsSymbologyUtils18char2PatternPixmapEPKc@Base {QGIS_ABI}
 _ZN17QgsSymbologyUtils18qString2BrushStyleE7QString@Base {QGIS_ABI}
 _ZN17QgsSymbologyUtils18qString2LinePixmapE7QString@Base {QGIS_ABI}
 _ZN17QgsSymbologyUtils21qString2PatternPixmapE7QString@Base {QGIS_ABI}
 _ZN18QAlgorithmsPrivate11qSortHelperIN5QListIdE8iteratorEd5qLessIdEEEvT_S6_RKT0_T1_@Base {QGIS_ABI}
 _ZN18QgsAttributeAction12expandActionE7QStringRK5QListI5QPairIS0_S0_EEj@Base {QGIS_ABI}
 _ZN18QgsAttributeAction12expandActionE7QStringRKSt6vectorISt4pairIS0_S0_ESaIS3_EEj@Base {QGIS_ABI}
 _ZN18QgsAttributeAction7readXMLERK8QDomNode@Base {QGIS_ABI}
 _ZN18QgsAttributeAction8doActionEiRK5QListI5QPairI7QStringS2_EEiPFvRKS2_E@Base {QGIS_ABI}
 _ZN18QgsAttributeAction8doActionEjRKSt6vectorISt4pairI7QStringS2_ESaIS3_EEj@Base {QGIS_ABI}
 _ZN18QgsAttributeAction9addActionE7QStringS0_b@Base {QGIS_ABI}
 _ZN18QgsAttributeAction9addActionEN9QgsAction10ActionTypeE7QStringS2_b@Base {QGIS_ABI}
 _ZN18QgsAttributeActionD0Ev@Base {QGIS_ABI}
 _ZN18QgsAttributeActionD1Ev@Base {QGIS_ABI}
 _ZN18QgsColorRampShader10exactColorEdPiS0_S0_@Base {QGIS_ABI}
 _ZN18QgsColorRampShader13ColorRampItemD1Ev@Base {QGIS_ABI}
 _ZN18QgsColorRampShader13discreteColorEdPiS0_S0_@Base {QGIS_ABI}
 _ZN18QgsColorRampShader16setColorRampTypeE7QString@Base {QGIS_ABI}
 _ZN18QgsColorRampShader16setColorRampTypeENS_14ColorRamp_TYPEE@Base {QGIS_ABI}
 _ZN18QgsColorRampShader17interpolatedColorEdPiS0_S0_@Base {QGIS_ABI}
 _ZN18QgsColorRampShader22colorRampTypeAsQStringEv@Base {QGIS_ABI}
 _ZN18QgsColorRampShader5shadeEdPiS0_S0_@Base {QGIS_ABI}
 _ZN18QgsColorRampShader5shadeEdddPiS0_S0_@Base {QGIS_ABI}
 _ZN18QgsColorRampShaderC1Edd@Base {QGIS_ABI}
 _ZN18QgsColorRampShaderC2Edd@Base {QGIS_ABI}
 _ZN18QgsColorRampShaderD0Ev@Base {QGIS_ABI}
 _ZN18QgsColorRampShaderD1Ev@Base {QGIS_ABI}
 _ZN18QgsComposerPicture11qt_metacallEN11QMetaObject4CallEiPPv@Base {QGIS_ABI}
 _ZN18QgsComposerPicture11qt_metacastEPKc@Base {QGIS_ABI}
 _ZN18QgsComposerPicture11setRotationEd@Base {QGIS_ABI}
 _ZN18QgsComposerPicture12setSceneRectERK6QRectF@Base {QGIS_ABI}
 _ZN18QgsComposerPicture14boundedSVGRectEdd@Base {QGIS_ABI}
 _ZN18QgsComposerPicture14setPictureFileERK7QString@Base {QGIS_ABI}
 _ZN18QgsComposerPicture14setRotationMapEi@Base {QGIS_ABI}
 _ZN18QgsComposerPicture15settingsChangedEv@Base {QGIS_ABI}
 _ZN18QgsComposerPicture16boundedImageRectEdd@Base {QGIS_ABI}
 _ZN18QgsComposerPicture16staticMetaObjectE@Base {QGIS_ABI}
 _ZN18QgsComposerPicture18updateImageFromSvgEv@Base {QGIS_ABI}
 _ZN18QgsComposerPicture5paintEP8QPainterPK24QStyleOptionGraphicsItemP7QWidget@Base {QGIS_ABI}
 _ZN18QgsComposerPicture7readXMLERK11QDomElementRK12QDomDocument@Base {QGIS_ABI}
 _ZN18QgsComposerPictureC1EP14QgsComposition@Base {QGIS_ABI}
 _ZN18QgsComposerPictureC1Ev@Base {QGIS_ABI}
 _ZN18QgsComposerPictureC2EP14QgsComposition@Base {QGIS_ABI}
 _ZN18QgsComposerPictureC2Ev@Base {QGIS_ABI}
 _ZN18QgsComposerPictureD0Ev@Base {QGIS_ABI}
 _ZN18QgsComposerPictureD1Ev@Base {QGIS_ABI}
 _ZN18QgsComposerPictureD2Ev@Base {QGIS_ABI}
 _ZN18QgsHttpTransaction10totalStepsEi@Base {QGIS_ABI}
 _ZN18QgsHttpTransaction11dataStartedEi@Base {QGIS_ABI}
 _ZN18QgsHttpTransaction11errorStringEv@Base {QGIS_ABI}
 _ZN18QgsHttpTransaction11qt_metacallEN11QMetaObject4CallEiPPv@Base {QGIS_ABI}
 _ZN18QgsHttpTransaction11qt_metacastEPKc@Base {QGIS_ABI}
 _ZN18QgsHttpTransaction11setProgressEii@Base {QGIS_ABI}
 _ZN18QgsHttpTransaction12dataFinishedEib@Base {QGIS_ABI}
 _ZN18QgsHttpTransaction12dataProgressEii@Base {QGIS_ABI}
 _ZN18QgsHttpTransaction12dataReceivedERK19QHttpResponseHeader@Base {QGIS_ABI}
 _ZN18QgsHttpTransaction13statusChangedE7QString@Base {QGIS_ABI}
 _ZN18QgsHttpTransaction14setCredentialsERK7QStringS2_@Base {QGIS_ABI}
 _ZN18QgsHttpTransaction15networkTimedOutEv@Base {QGIS_ABI}
 _ZN18QgsHttpTransaction16dataReadProgressEi@Base {QGIS_ABI}
 _ZN18QgsHttpTransaction16dataStateChangedEi@Base {QGIS_ABI}
 _ZN18QgsHttpTransaction16getSynchronouslyER10QByteArrayiPKS0_@Base {QGIS_ABI}
 _ZN18QgsHttpTransaction16staticMetaObjectE@Base {QGIS_ABI}
 _ZN18QgsHttpTransaction17getAsynchronouslyEv@Base {QGIS_ABI}
 _ZN18QgsHttpTransaction18applyProxySettingsER5QHttpRK7QString@Base {QGIS_ABI}
 _ZN18QgsHttpTransaction18dataHeaderReceivedERK19QHttpResponseHeader@Base {QGIS_ABI}
 _ZN18QgsHttpTransaction19responseContentTypeEv@Base {QGIS_ABI}
 _ZN18QgsHttpTransaction19transactionFinishedEb@Base {QGIS_ABI}
 _ZN18QgsHttpTransaction5abortEv@Base {QGIS_ABI}
 _ZN18QgsHttpTransactionC1E7QStringS0_iS0_S0_N13QNetworkProxy9ProxyTypeES0_S0_@Base {QGIS_ABI}
 _ZN18QgsHttpTransactionC1Ev@Base {QGIS_ABI}
 _ZN18QgsHttpTransactionC2E7QStringS0_iS0_S0_N13QNetworkProxy9ProxyTypeES0_S0_@Base {QGIS_ABI}
 _ZN18QgsHttpTransactionC2Ev@Base {QGIS_ABI}
 _ZN18QgsHttpTransactionD0Ev@Base {QGIS_ABI}
 _ZN18QgsHttpTransactionD1Ev@Base {QGIS_ABI}
 _ZN18QgsHttpTransactionD2Ev@Base {QGIS_ABI}
 _ZN18QgsLabelAttributes12setAlignmentEi@Base {QGIS_ABI}
 _ZN18QgsLabelAttributes12setAutoAngleEb@Base {QGIS_ABI}
 _ZN18QgsLabelAttributes12setStrikeOutEb@Base {QGIS_ABI}
 _ZN18QgsLabelAttributes12setUnderlineEb@Base {QGIS_ABI}
 _ZN18QgsLabelAttributes13alignmentCodeERK7QString@Base {QGIS_ABI}
 _ZN18QgsLabelAttributes13alignmentNameEi@Base {QGIS_ABI}
 _ZN18QgsLabelAttributes13setBufferSizeEdi@Base {QGIS_ABI}
 _ZN18QgsLabelAttributes14setBorderColorERK6QColor@Base {QGIS_ABI}
 _ZN18QgsLabelAttributes14setBorderStyleEN2Qt8PenStyleE@Base {QGIS_ABI}
 _ZN18QgsLabelAttributes14setBorderWidthEi@Base {QGIS_ABI}
 _ZN18QgsLabelAttributes14setBufferColorERK6QColor@Base {QGIS_ABI}
 _ZN18QgsLabelAttributes14setBufferStyleEN2Qt10BrushStyleE@Base {QGIS_ABI}
 _ZN18QgsLabelAttributes16setBufferEnabledEb@Base {QGIS_ABI}
 _ZN18QgsLabelAttributes19setMultilineEnabledEb@Base {QGIS_ABI}
 _ZN18QgsLabelAttributes7setBoldEb@Base {QGIS_ABI}
 _ZN18QgsLabelAttributes7setSizeEdi@Base {QGIS_ABI}
 _ZN18QgsLabelAttributes7setTextERK7QString@Base {QGIS_ABI}
 _ZN18QgsLabelAttributes8setAngleEd@Base {QGIS_ABI}
 _ZN18QgsLabelAttributes8setColorERK6QColor@Base {QGIS_ABI}
 _ZN18QgsLabelAttributes9setFamilyERK7QString@Base {QGIS_ABI}
 _ZN18QgsLabelAttributes9setItalicEb@Base {QGIS_ABI}
 _ZN18QgsLabelAttributes9setOffsetEddi@Base {QGIS_ABI}
 _ZN18QgsLabelAttributes9unitsCodeERK7QString@Base {QGIS_ABI}
 _ZN18QgsLabelAttributes9unitsNameEi@Base {QGIS_ABI}
 _ZN18QgsLabelAttributesC1Eb@Base {QGIS_ABI}
 _ZN18QgsLabelAttributesC2Eb@Base {QGIS_ABI}
 _ZN18QgsLabelAttributesD1Ev@Base {QGIS_ABI}
 _ZN18QgsLabelAttributesD2Ev@Base {QGIS_ABI}
 _ZN18QgsMarkerCatalogue10fontMarkerEP8QPainter7QStringd@Base {QGIS_ABI}
 _ZN18QgsMarkerCatalogue10hardMarkerEP8QPainteri7QStringd4QPen6QBrush@Base {QGIS_ABI}
 _ZN18QgsMarkerCatalogue11imageMarkerE7QStringd4QPen6QBrushd@Base {QGIS_ABI}
 _ZN18QgsMarkerCatalogue11qt_metacallEN11QMetaObject4CallEiPPv@Base {QGIS_ABI}
 _ZN18QgsMarkerCatalogue11qt_metacastEPKc@Base {QGIS_ABI}
 _ZN18QgsMarkerCatalogue11refreshListEv@Base {QGIS_ABI}
 _ZN18QgsMarkerCatalogue13pictureMarkerE7QStringd4QPen6QBrushd@Base {QGIS_ABI}
 _ZN18QgsMarkerCatalogue16mMarkerCatalogueE@Base {QGIS_ABI}
 _ZN18QgsMarkerCatalogue16markersRefreshedEv@Base {QGIS_ABI}
 _ZN18QgsMarkerCatalogue16staticMetaObjectE@Base {QGIS_ABI}
 _ZN18QgsMarkerCatalogue4listEv@Base {QGIS_ABI}
 _ZN18QgsMarkerCatalogue8instanceEv@Base {QGIS_ABI}
 _ZN18QgsMarkerCatalogue9svgMarkerEP8QPainter7QStringd@Base {QGIS_ABI}
 _ZN18QgsMarkerCatalogueC1Ev@Base {QGIS_ABI}
 _ZN18QgsMarkerCatalogueC2Ev@Base {QGIS_ABI}
 _ZN18QgsMarkerCatalogueD0Ev@Base {QGIS_ABI}
 _ZN18QgsMarkerCatalogueD1Ev@Base {QGIS_ABI}
 _ZN18QgsMarkerCatalogueD2Ev@Base {QGIS_ABI}
 _ZN18QgsRasterBandStatsC1ERKS_@Base {QGIS_ABI}
 _ZN18QgsRasterBandStatsC1Ev@Base {QGIS_ABI}
 _ZN18QgsRasterBandStatsD1Ev@Base {QGIS_ABI}
 _ZN18QgsRasterBandStatsaSERKS_@Base {QGIS_ABI}
 _ZN18QgsRendererRangeV213setLowerValueEd@Base {QGIS_ABI}
 _ZN18QgsRendererRangeV213setUpperValueEd@Base {QGIS_ABI}
 _ZN18QgsRendererRangeV24dumpEv@Base {QGIS_ABI}
 _ZN18QgsRendererRangeV28setLabelE7QString@Base {QGIS_ABI}
 _ZN18QgsRendererRangeV29setSymbolEP11QgsSymbolV2@Base {QGIS_ABI}
 _ZN18QgsRendererRangeV2C1ERKS_@Base {QGIS_ABI}
 _ZN18QgsRendererRangeV2C1EddP11QgsSymbolV27QString@Base {QGIS_ABI}
 _ZN18QgsRendererRangeV2C2ERKS_@Base {QGIS_ABI}
 _ZN18QgsRendererRangeV2C2EddP11QgsSymbolV27QString@Base {QGIS_ABI}
 _ZN18QgsRendererRangeV2D1Ev@Base {QGIS_ABI}
 _ZN18QgsRendererRangeV2D2Ev@Base {QGIS_ABI}
 _ZN18QgsScaleCalculator11setMapUnitsEN4QGis8UnitTypeE@Base {QGIS_ABI}
 _ZN18QgsScaleCalculator27calculateGeographicDistanceERK12QgsRectangle@Base {QGIS_ABI}
 _ZN18QgsScaleCalculator3dpiEv@Base {QGIS_ABI}
 _ZN18QgsScaleCalculator6setDpiEd@Base {QGIS_ABI}
 _ZN18QgsScaleCalculator9calculateERK12QgsRectanglei@Base {QGIS_ABI}
 _ZN18QgsScaleCalculatorC1EdN4QGis8UnitTypeE@Base {QGIS_ABI}
 _ZN18QgsScaleCalculatorC2EdN4QGis8UnitTypeE@Base {QGIS_ABI}
 _ZN18QgsScaleCalculatorD1Ev@Base {QGIS_ABI}
 _ZN18QgsScaleCalculatorD2Ev@Base {QGIS_ABI}
 _ZN18QgsSearchTreeValue7compareERS_S0_N2Qt15CaseSensitivityE@Base {QGIS_ABI}
 _ZN18QgsSearchTreeValueC1E7QString@Base {QGIS_ABI}
 _ZN18QgsSearchTreeValueC1Ei7QString@Base {QGIS_ABI}
 _ZN19QgsComposerScaleBar11qt_metacallEN11QMetaObject4CallEiPPv@Base {QGIS_ABI}
 _ZN19QgsComposerScaleBar11qt_metacastEPKc@Base {QGIS_ABI}
 _ZN19QgsComposerScaleBar13adjustBoxSizeEv@Base {QGIS_ABI}
 _ZN19QgsComposerScaleBar14setComposerMapEPK14QgsComposerMap@Base {QGIS_ABI}
 _ZN19QgsComposerScaleBar16staticMetaObjectE@Base {QGIS_ABI}
 _ZN19QgsComposerScaleBar17updateSegmentSizeEv@Base {QGIS_ABI}
 _ZN19QgsComposerScaleBar20applyDefaultSettingsEv@Base {QGIS_ABI}
 _ZN19QgsComposerScaleBar20invalidateCurrentMapEv@Base {QGIS_ABI}
 _ZN19QgsComposerScaleBar21setNumUnitsPerSegmentEd@Base {QGIS_ABI}
 _ZN19QgsComposerScaleBar25refreshSegmentMillimetersEv@Base {QGIS_ABI}
 _ZN19QgsComposerScaleBar5paintEP8QPainterPK24QStyleOptionGraphicsItemP7QWidget@Base {QGIS_ABI}
 _ZN19QgsComposerScaleBar6updateEv@Base {QGIS_ABI}
 _ZN19QgsComposerScaleBar7readXMLERK11QDomElementRK12QDomDocument@Base {QGIS_ABI}
 _ZN19QgsComposerScaleBar7setFontERK5QFont@Base {QGIS_ABI}
 _ZN19QgsComposerScaleBar8setStyleERK7QString@Base {QGIS_ABI}
 _ZN19QgsComposerScaleBarC1EP14QgsComposition@Base {QGIS_ABI}
 _ZN19QgsComposerScaleBarC2EP14QgsComposition@Base {QGIS_ABI}
 _ZN19QgsComposerScaleBarD0Ev@Base {QGIS_ABI}
 _ZN19QgsComposerScaleBarD1Ev@Base {QGIS_ABI}
 _ZN19QgsComposerScaleBarD2Ev@Base {QGIS_ABI}
 _ZN19QgsMapLayerRegistry10removedAllEv@Base {QGIS_ABI}
 _ZN19QgsMapLayerRegistry11addMapLayerEP11QgsMapLayerb@Base {QGIS_ABI}
 _ZN19QgsMapLayerRegistry11qt_metacallEN11QMetaObject4CallEiPPv@Base {QGIS_ABI}
 _ZN19QgsMapLayerRegistry11qt_metacastEPKc@Base {QGIS_ABI}
 _ZN19QgsMapLayerRegistry13connectNotifyEPKc@Base {QGIS_ABI}
 _ZN19QgsMapLayerRegistry13layerWasAddedEP11QgsMapLayer@Base {QGIS_ABI}
 _ZN19QgsMapLayerRegistry14removeMapLayerE7QStringb@Base {QGIS_ABI}
 _ZN19QgsMapLayerRegistry16staticMetaObjectE@Base {QGIS_ABI}
 _ZN19QgsMapLayerRegistry18layerWillBeRemovedE7QString@Base {QGIS_ABI}
 _ZN19QgsMapLayerRegistry18removeAllMapLayersEv@Base {QGIS_ABI}
 _ZN19QgsMapLayerRegistry19clearAllLayerCachesEv@Base {QGIS_ABI}
 _ZN19QgsMapLayerRegistry5countEv@Base {QGIS_ABI}
 _ZN19QgsMapLayerRegistry8instanceEv@Base {QGIS_ABI}
 _ZN19QgsMapLayerRegistry8mapLayerE7QString@Base {QGIS_ABI}
 _ZN19QgsMapLayerRegistry9mInstanceE@Base {QGIS_ABI}
 _ZN19QgsMapLayerRegistry9mapLayersEv@Base {QGIS_ABI}
 _ZN19QgsMapLayerRegistryC1EP7QObject@Base {QGIS_ABI}
 _ZN19QgsMapLayerRegistryC2EP7QObject@Base {QGIS_ABI}
 _ZN19QgsMapLayerRegistryD0Ev@Base {QGIS_ABI}
 _ZN19QgsMapLayerRegistryD1Ev@Base {QGIS_ABI}
 _ZN19QgsMapLayerRegistryD2Ev@Base {QGIS_ABI}
 _ZN19QgsProviderMetadataC1ERK7QStringS2_S2_@Base {QGIS_ABI}
 _ZN19QgsProviderMetadataC2ERK7QStringS2_S2_@Base {QGIS_ABI}
 _ZN19QgsProviderRegistry11getProviderERK7QStringS2_@Base {QGIS_ABI}
 _ZN19QgsProviderRegistry19setLibraryDirectoryERK4QDir@Base {QGIS_ABI}
 _ZN19QgsProviderRegistry8instanceE7QString@Base {QGIS_ABI}
 _ZN19QgsProviderRegistry9_instanceE@Base {QGIS_ABI}
 _ZN19QgsProviderRegistryC1E7QString@Base {QGIS_ABI}
 _ZN19QgsProviderRegistryC2E7QString@Base {QGIS_ABI}
 _ZN19QgsProviderRegistryD0Ev@Base {QGIS_ABI}
 _ZN19QgsProviderRegistryD1Ev@Base {QGIS_ABI}
 _ZN19QgsProviderRegistryD2Ev@Base {QGIS_ABI}
 _ZN19QgsVectorFileWriter10addFeatureER10QgsFeature@Base {QGIS_ABI}
 _ZN19QgsVectorFileWriter15deleteShapeFileE7QString@Base {QGIS_ABI}
 _ZN19QgsVectorFileWriter16writeAsShapefileEP14QgsVectorLayerRK7QStringS4_PK28QgsCoordinateReferenceSystemb@Base {QGIS_ABI}
 _ZN19QgsVectorFileWriter19createEmptyGeometryEN4QGis7WkbTypeE@Base {QGIS_ABI}
 _ZN19QgsVectorFileWriter8hasErrorEv@Base {QGIS_ABI}
 _ZN19QgsVectorFileWriterC1ERK7QStringS2_RK4QMapIi8QgsFieldEN4QGis7WkbTypeEPK28QgsCoordinateReferenceSystem@Base {QGIS_ABI}
 _ZN19QgsVectorFileWriterC1ERK7QStringS2_RK4QMapIi8QgsFieldEN4QGis7WkbTypeEPK28QgsCoordinateReferenceSystemS2_@Base {QGIS_ABI}
 _ZN19QgsVectorFileWriterC2ERK7QStringS2_RK4QMapIi8QgsFieldEN4QGis7WkbTypeEPK28QgsCoordinateReferenceSystem@Base {QGIS_ABI}
 _ZN19QgsVectorFileWriterC2ERK7QStringS2_RK4QMapIi8QgsFieldEN4QGis7WkbTypeEPK28QgsCoordinateReferenceSystemS2_@Base {QGIS_ABI}
 _ZN19QgsVectorFileWriterD1Ev@Base {QGIS_ABI}
 _ZN19QgsVectorFileWriterD2Ev@Base {QGIS_ABI}
 _ZN20QgsComposerItemGroup11qt_metacallEN11QMetaObject4CallEiPPv@Base {QGIS_ABI}
 _ZN20QgsComposerItemGroup11qt_metacastEPKc@Base {QGIS_ABI}
 _ZN20QgsComposerItemGroup11removeItemsEv@Base {QGIS_ABI}
 _ZN20QgsComposerItemGroup12setSceneRectERK6QRectF@Base {QGIS_ABI}
 _ZN20QgsComposerItemGroup16childItemDeletedEP15QgsComposerItem@Base {QGIS_ABI}
 _ZN20QgsComposerItemGroup16staticMetaObjectE@Base {QGIS_ABI}
 _ZN20QgsComposerItemGroup5paintEP8QPainterPK24QStyleOptionGraphicsItemP7QWidget@Base {QGIS_ABI}
 _ZN20QgsComposerItemGroup7addItemEP15QgsComposerItem@Base {QGIS_ABI}
 _ZN20QgsComposerItemGroup7readXMLERK11QDomElementRK12QDomDocument@Base {QGIS_ABI}
 _ZN20QgsComposerItemGroup9drawFrameEP8QPainter@Base {QGIS_ABI}
 _ZN20QgsComposerItemGroupC1EP14QgsComposition@Base {QGIS_ABI}
 _ZN20QgsComposerItemGroupC2EP14QgsComposition@Base {QGIS_ABI}
 _ZN20QgsComposerItemGroupD0Ev@Base {QGIS_ABI}
 _ZN20QgsComposerItemGroupD1Ev@Base {QGIS_ABI}
 _ZN20QgsComposerItemGroupD2Ev@Base {QGIS_ABI}
 _ZN20QgsFeatureRendererV213renderFeatureER10QgsFeatureR16QgsRenderContexti@Base {QGIS_ABI}
 _ZN20QgsFeatureRendererV213renderFeatureER10QgsFeatureR16QgsRenderContextib@Base {QGIS_ABI}
 _ZN20QgsFeatureRendererV214fieldNameIndexERK4QMapIi8QgsFieldERK7QString@Base {QGIS_ABI}
 _ZN20QgsFeatureRendererV215defaultRendererEN4QGis12GeometryTypeE@Base {QGIS_ABI}
 _ZN20QgsFeatureRendererV218renderVertexMarkerER7QPointFR16QgsRenderContext@Base {QGIS_ABI}
 _ZN20QgsFeatureRendererV220legendSymbologyItemsE5QSize@Base {QGIS_ABI}
 _ZN20QgsFeatureRendererV225renderVertexMarkerPolygonER9QPolygonFP5QListIS0_ER16QgsRenderContext@Base {QGIS_ABI}
 _ZN20QgsFeatureRendererV225setVertexMarkerAppearanceEii@Base {QGIS_ABI}
 _ZN20QgsFeatureRendererV226renderVertexMarkerPolylineER9QPolygonFR16QgsRenderContext@Base {QGIS_ABI}
 _ZN20QgsFeatureRendererV24dumpEv@Base {QGIS_ABI}
 _ZN20QgsFeatureRendererV24loadER11QDomElement@Base {QGIS_ABI}
 _ZN20QgsFeatureRendererV24saveER12QDomDocument@Base {QGIS_ABI}
 _ZN20QgsFeatureRendererV2C1E7QString@Base {QGIS_ABI}
 _ZN20QgsFeatureRendererV2C2E7QString@Base {QGIS_ABI}
 _ZN20QgsFeatureRendererV2D0Ev@Base {QGIS_ABI}
 _ZN20QgsFeatureRendererV2D1Ev@Base {QGIS_ABI}
 _ZN20QgsFillSymbolLayerV215drawPreviewIconEP8QPainter5QSize@Base {QGIS_ABI}
 _ZN20QgsFillSymbolLayerV2C1Eb@Base {QGIS_ABI}
 _ZN20QgsFillSymbolLayerV2C2Eb@Base {QGIS_ABI}
 _ZN20QgsFillSymbolLayerV2D0Ev@Base {QGIS_ABI}
 _ZN20QgsFillSymbolLayerV2D1Ev@Base {QGIS_ABI}
 _ZN20QgsLineSymbolLayerV215drawPreviewIconEP8QPainter5QSize@Base {QGIS_ABI}
 _ZN20QgsLineSymbolLayerV2C1Eb@Base {QGIS_ABI}
 _ZN20QgsLineSymbolLayerV2C2Eb@Base {QGIS_ABI}
 _ZN20QgsLineSymbolLayerV2D0Ev@Base {QGIS_ABI}
 _ZN20QgsLineSymbolLayerV2D1Ev@Base {QGIS_ABI}
 _ZN20QgsPseudoColorShader14setClassBreaksEv@Base {QGIS_ABI}
 _ZN20QgsPseudoColorShader15setMaximumValueEd@Base {QGIS_ABI}
 _ZN20QgsPseudoColorShader15setMinimumValueEd@Base {QGIS_ABI}
 _ZN20QgsPseudoColorShader5shadeEdPiS0_S0_@Base {QGIS_ABI}
 _ZN20QgsPseudoColorShader5shadeEdddPiS0_S0_@Base {QGIS_ABI}
 _ZN20QgsPseudoColorShaderC1Edd@Base {QGIS_ABI}
 _ZN20QgsPseudoColorShaderC2Edd@Base {QGIS_ABI}
 _ZN20QgsPseudoColorShaderD0Ev@Base {QGIS_ABI}
 _ZN20QgsPseudoColorShaderD1Ev@Base {QGIS_ABI}
 _ZN20QgsVectorColorRampV2D0Ev@Base {QGIS_ABI}
 _ZN20QgsVectorColorRampV2D1Ev@Base {QGIS_ABI}
 _ZN21QgsColorBrewerPalette11listSchemesEv@Base {QGIS_ABI}
 _ZN21QgsColorBrewerPalette16listSchemeColorsE7QStringi@Base {QGIS_ABI}
 _ZN21QgsColorBrewerPalette18listSchemeVariantsE7QString@Base {QGIS_ABI}
 _ZN21QgsRasterDataProvider11qt_metacallEN11QMetaObject4CallEiPPv@Base {QGIS_ABI}
 _ZN21QgsRasterDataProvider11qt_metacastEPKc@Base {QGIS_ABI}
 _ZN21QgsRasterDataProvider16staticMetaObjectE@Base {QGIS_ABI}
 _ZN21QgsRasterDataProviderC1ERK7QString@Base {QGIS_ABI}
 _ZN21QgsRasterDataProviderC1Ev@Base {QGIS_ABI}
 _ZN21QgsRasterDataProviderC2ERK7QString@Base {QGIS_ABI}
 _ZN21QgsRasterDataProviderC2Ev@Base {QGIS_ABI}
 _ZN21QgsRasterDataProviderD0Ev@Base {QGIS_ABI}
 _ZN21QgsRasterDataProviderD1Ev@Base {QGIS_ABI}
 _ZN21QgsRasterTransparency30initializeTransparentPixelListEd@Base {QGIS_ABI}
 _ZN21QgsRasterTransparency30initializeTransparentPixelListEddd@Base {QGIS_ABI}
 _ZN21QgsRasterTransparency33setTransparentThreeValuePixelListE5QListINS_26TransparentThreeValuePixelEE@Base {QGIS_ABI}
 _ZN21QgsRasterTransparency34setTransparentSingleValuePixelListE5QListINS_27TransparentSingleValuePixelEE@Base {QGIS_ABI}
 _ZN21QgsRasterTransparencyC1Ev@Base {QGIS_ABI}
 _ZN21QgsRasterTransparencyC2Ev@Base {QGIS_ABI}
 _ZN21QgsRasterTransparencyD1Ev@Base {QGIS_ABI}
 _ZN21QgsRendererCategoryV24dumpEv@Base {QGIS_ABI}
 _ZN21QgsRendererCategoryV28setLabelE7QString@Base {QGIS_ABI}
 _ZN21QgsRendererCategoryV29setSymbolEP11QgsSymbolV2@Base {QGIS_ABI}
 _ZN21QgsRendererCategoryV2C1E8QVariantP11QgsSymbolV27QString@Base {QGIS_ABI}
 _ZN21QgsRendererCategoryV2C1ERKS_@Base {QGIS_ABI}
 _ZN21QgsRendererCategoryV2C2E8QVariantP11QgsSymbolV27QString@Base {QGIS_ABI}
 _ZN21QgsRendererCategoryV2C2ERKS_@Base {QGIS_ABI}
 _ZN21QgsRendererCategoryV2D1Ev@Base {QGIS_ABI}
 _ZN21QgsRendererCategoryV2D2Ev@Base {QGIS_ABI}
 _ZN21QgsRendererV2MetadataD1Ev@Base {QGIS_ABI}
 _ZN21QgsRendererV2Registry11addRendererERK21QgsRendererV2Metadata@Base {QGIS_ABI}
 _ZN21QgsRendererV2Registry13renderersListEv@Base {QGIS_ABI}
 _ZN21QgsRendererV2Registry14removeRendererE7QString@Base {QGIS_ABI}
 _ZN21QgsRendererV2Registry16rendererMetadataE7QString@Base {QGIS_ABI}
 _ZN21QgsRendererV2Registry25setRendererWidgetFunctionE7QStringPFP19QgsRendererV2WidgetP14QgsVectorLayerP10QgsStyleV2P20QgsFeatureRendererV2E@Base {QGIS_ABI}
 _ZN21QgsRendererV2Registry8instanceEv@Base {QGIS_ABI}
 _ZN21QgsRendererV2Registry9mInstanceE@Base {QGIS_ABI}
 _ZN21QgsRendererV2RegistryC1Ev@Base {QGIS_ABI}
 _ZN21QgsRendererV2RegistryC2Ev@Base {QGIS_ABI}
 _ZN21QgsSymbolLayerV2Utils10loadSymbolER11QDomElement@Base {QGIS_ABI}
 _ZN21QgsSymbolLayerV2Utils10saveSymbolE7QStringP11QgsSymbolV2R12QDomDocumentP4QMapIS0_S2_E@Base {QGIS_ABI}
 _ZN21QgsSymbolLayerV2Utils11decodeColorE7QString@Base {QGIS_ABI}
 _ZN21QgsSymbolLayerV2Utils11decodePointE7QString@Base {QGIS_ABI}
 _ZN21QgsSymbolLayerV2Utils11encodeColorE6QColor@Base {QGIS_ABI}
 _ZN21QgsSymbolLayerV2Utils11encodePointE7QPointF@Base {QGIS_ABI}
 _ZN21QgsSymbolLayerV2Utils11loadSymbolsER11QDomElement@Base {QGIS_ABI}
 _ZN21QgsSymbolLayerV2Utils11saveSymbolsER4QMapI7QStringP11QgsSymbolV2ES1_R12QDomDocument@Base {QGIS_ABI}
 _ZN21QgsSymbolLayerV2Utils13loadColorRampER11QDomElement@Base {QGIS_ABI}
 _ZN21QgsSymbolLayerV2Utils13saveColorRampE7QStringP20QgsVectorColorRampV2R12QDomDocument@Base {QGIS_ABI}
 _ZN21QgsSymbolLayerV2Utils14clearSymbolMapER4QMapI7QStringP11QgsSymbolV2E@Base {QGIS_ABI}
 _ZN21QgsSymbolLayerV2Utils14decodePenStyleE7QString@Base {QGIS_ABI}
 _ZN21QgsSymbolLayerV2Utils14encodePenStyleEN2Qt8PenStyleE@Base {QGIS_ABI}
 _ZN21QgsSymbolLayerV2Utils14savePropertiesE4QMapI7QStringS1_ER12QDomDocumentR11QDomElement@Base {QGIS_ABI}
 _ZN21QgsSymbolLayerV2Utils15loadSymbolLayerER11QDomElement@Base {QGIS_ABI}
 _ZN21QgsSymbolLayerV2Utils15parsePropertiesER11QDomElement@Base {QGIS_ABI}
 _ZN21QgsSymbolLayerV2Utils16decodeBrushStyleE7QString@Base {QGIS_ABI}
 _ZN21QgsSymbolLayerV2Utils16encodeBrushStyleEN2Qt10BrushStyleE@Base {QGIS_ABI}
 _ZN21QgsSymbolLayerV2Utils17decodePenCapStyleE7QString@Base {QGIS_ABI}
 _ZN21QgsSymbolLayerV2Utils17encodePenCapStyleEN2Qt11PenCapStyleE@Base {QGIS_ABI}
 _ZN21QgsSymbolLayerV2Utils17symbolPreviewIconEP11QgsSymbolV25QSize@Base {QGIS_ABI}
 _ZN21QgsSymbolLayerV2Utils18decodePenJoinStyleE7QString@Base {QGIS_ABI}
 _ZN21QgsSymbolLayerV2Utils18encodePenJoinStyleEN2Qt12PenJoinStyleE@Base {QGIS_ABI}
 _ZN21QgsSymbolLayerV2Utils19symbolPreviewPixmapEP11QgsSymbolV25QSize@Base {QGIS_ABI}
 _ZN21QgsSymbolLayerV2Utils20colorRampPreviewIconEP20QgsVectorColorRampV25QSize@Base {QGIS_ABI}
 _ZN21QgsSymbolLayerV2Utils22colorRampPreviewPixmapEP20QgsVectorColorRampV25QSize@Base {QGIS_ABI}
 _ZN21QgsSymbolLayerV2Utils22symbolLayerPreviewIconEP16QgsSymbolLayerV25QSize@Base {QGIS_ABI}
 _ZN21QgsTicksScaleBarStyleC1EPK19QgsComposerScaleBar@Base {QGIS_ABI}
 _ZN21QgsTicksScaleBarStyleC1Ev@Base {QGIS_ABI}
 _ZN21QgsTicksScaleBarStyleC2EPK19QgsComposerScaleBar@Base {QGIS_ABI}
 _ZN21QgsTicksScaleBarStyleC2Ev@Base {QGIS_ABI}
 _ZN21QgsTicksScaleBarStyleD0Ev@Base {QGIS_ABI}
 _ZN21QgsTicksScaleBarStyleD1Ev@Base {QGIS_ABI}
 _ZN21QgsTicksScaleBarStyleD2Ev@Base {QGIS_ABI}
 _ZN21QgsVectorDataProvider10enumValuesEiR11QStringList@Base {QGIS_ABI}
 _ZN21QgsVectorDataProvider11addFeaturesER5QListI10QgsFeatureE@Base {QGIS_ABI}
 _ZN21QgsVectorDataProvider11featureAtIdEiR10QgsFeatureb5QListIiE@Base {QGIS_ABI}
 _ZN21QgsVectorDataProvider11setEncodingERK7QString@Base {QGIS_ABI}
 _ZN21QgsVectorDataProvider12convertValueEN8QVariant4TypeE7QString@Base {QGIS_ABI}
 _ZN21QgsVectorDataProvider12defaultValueEi@Base {QGIS_ABI}
 _ZN21QgsVectorDataProvider12maximumValueEi@Base {QGIS_ABI}
 _ZN21QgsVectorDataProvider12minimumValueEi@Base {QGIS_ABI}
 _ZN21QgsVectorDataProvider12uniqueValuesEiR5QListI8QVariantE@Base {QGIS_ABI}
 _ZN21QgsVectorDataProvider12uniqueValuesEiR5QListI8QVariantEi@Base {QGIS_ABI}
 _ZN21QgsVectorDataProvider13addAttributesERK4QMapI7QStringS1_E@Base {QGIS_ABI}
 _ZN21QgsVectorDataProvider13addAttributesERK5QListI8QgsFieldE@Base {QGIS_ABI}
 _ZN21QgsVectorDataProvider14deleteFeaturesERK4QSetIiE@Base {QGIS_ABI}
 _ZN21QgsVectorDataProvider15fillMinMaxCacheEv@Base {QGIS_ABI}
 _ZN21QgsVectorDataProvider16attributeIndexesEv@Base {QGIS_ABI}
 _ZN21QgsVectorDataProvider16deleteAttributesERK4QSetIiE@Base {QGIS_ABI}
 _ZN21QgsVectorDataProvider18createSpatialIndexEv@Base {QGIS_ABI}
 _ZN21QgsVectorDataProvider18updateFeatureCountEv@Base {QGIS_ABI}
 _ZN21QgsVectorDataProvider20changeGeometryValuesER4QMapIi11QgsGeometryE@Base {QGIS_ABI}
 _ZN21QgsVectorDataProvider21changeAttributeValuesERK4QMapIiS0_Ii8QVariantEE@Base {QGIS_ABI}
 _ZN21QgsVectorDataProvider26enableGeometrylessFeaturesEb@Base {QGIS_ABI}
 _ZN21QgsVectorDataProviderC1E7QString@Base {QGIS_ABI}
 _ZN21QgsVectorDataProviderC2E7QString@Base {QGIS_ABI}
 _ZN21QgsVectorDataProviderD0Ev@Base {QGIS_ABI}
 _ZN21QgsVectorDataProviderD1Ev@Base {QGIS_ABI}
 _ZN21QgsVectorDataProviderD2Ev@Base {QGIS_ABI}
 _ZN22QgsContrastEnhancement15enhanceContrastEd@Base {QGIS_ABI}
 _ZN22QgsContrastEnhancement15setMaximumValueEdb@Base {QGIS_ABI}
 _ZN22QgsContrastEnhancement15setMinimumValueEdb@Base {QGIS_ABI}
 _ZN22QgsContrastEnhancement19generateLookupTableEv@Base {QGIS_ABI}
 _ZN22QgsContrastEnhancement20maximumValuePossibleENS_17QgsRasterDataTypeE@Base {QGIS_ABI}
 _ZN22QgsContrastEnhancement20minimumValuePossibleENS_17QgsRasterDataTypeE@Base {QGIS_ABI}
 _ZN22QgsContrastEnhancement25isValueInDisplayableRangeEd@Base {QGIS_ABI}
 _ZN22QgsContrastEnhancement30setContrastEnhancementFunctionEP30QgsContrastEnhancementFunction@Base {QGIS_ABI}
 _ZN22QgsContrastEnhancement31setContrastEnhancementAlgorithmENS_28ContrastEnhancementAlgorithmEb@Base {QGIS_ABI}
 _ZN22QgsContrastEnhancementC1ENS_17QgsRasterDataTypeE@Base {QGIS_ABI}
 _ZN22QgsContrastEnhancementC2ENS_17QgsRasterDataTypeE@Base {QGIS_ABI}
 _ZN22QgsContrastEnhancementD1Ev@Base {QGIS_ABI}
 _ZN22QgsContrastEnhancementD2Ev@Base {QGIS_ABI}
 _ZN22QgsCoordinateTransform10initialiseEv@Base {QGIS_ABI}
 _ZN22QgsCoordinateTransform10setDestCRSERK28QgsCoordinateReferenceSystem@Base {QGIS_ABI}
 _ZN22QgsCoordinateTransform11qt_metacallEN11QMetaObject4CallEiPPv@Base {QGIS_ABI}
 _ZN22QgsCoordinateTransform11qt_metacastEPKc@Base {QGIS_ABI}
 _ZN22QgsCoordinateTransform12setDestCRSIDEl@Base {QGIS_ABI}
 _ZN22QgsCoordinateTransform12setSourceCrsERK28QgsCoordinateReferenceSystem@Base {QGIS_ABI}
 _ZN22QgsCoordinateTransform16staticMetaObjectE@Base {QGIS_ABI}
 _ZN22QgsCoordinateTransform7readXMLER8QDomNode@Base {QGIS_ABI}
 _ZN22QgsCoordinateTransform8writeXMLER8QDomNodeR12QDomDocument@Base {QGIS_ABI}
 _ZN22QgsCoordinateTransform9setFinderEv@Base {QGIS_ABI}
 _ZN22QgsCoordinateTransformC1E7QStringS0_@Base {QGIS_ABI}
 _ZN22QgsCoordinateTransformC1ERK28QgsCoordinateReferenceSystemS2_@Base {QGIS_ABI}
 _ZN22QgsCoordinateTransformC1El7QStringN28QgsCoordinateReferenceSystem7CrsTypeE@Base {QGIS_ABI}
 _ZN22QgsCoordinateTransformC1Ell@Base {QGIS_ABI}
 _ZN22QgsCoordinateTransformC1Ev@Base {QGIS_ABI}
 _ZN22QgsCoordinateTransformC2E7QStringS0_@Base {QGIS_ABI}
 _ZN22QgsCoordinateTransformC2ERK28QgsCoordinateReferenceSystemS2_@Base {QGIS_ABI}
 _ZN22QgsCoordinateTransformC2El7QStringN28QgsCoordinateReferenceSystem7CrsTypeE@Base {QGIS_ABI}
 _ZN22QgsCoordinateTransformC2Ell@Base {QGIS_ABI}
 _ZN22QgsCoordinateTransformC2Ev@Base {QGIS_ABI}
 _ZN22QgsCoordinateTransformD0Ev@Base {QGIS_ABI}
 _ZN22QgsCoordinateTransformD1Ev@Base {QGIS_ABI}
 _ZN22QgsCoordinateTransformD2Ev@Base {QGIS_ABI}
 _ZN22QgsMarkerSymbolLayerV215drawPreviewIconEP8QPainter5QSize@Base {QGIS_ABI}
 _ZN22QgsMarkerSymbolLayerV2C1Eb@Base {QGIS_ABI}
 _ZN22QgsMarkerSymbolLayerV2C2Eb@Base {QGIS_ABI}
 _ZN22QgsMarkerSymbolLayerV2D0Ev@Base {QGIS_ABI}
 _ZN22QgsMarkerSymbolLayerV2D1Ev@Base {QGIS_ABI}
 _ZN22QgsUniqueValueRenderer11clearValuesEv@Base {QGIS_ABI}
 _ZN22QgsUniqueValueRenderer11insertValueE7QStringP9QgsSymbol@Base {QGIS_ABI}
 _ZN22QgsUniqueValueRenderer13renderFeatureER16QgsRenderContextR10QgsFeatureP6QImagebd@Base {QGIS_ABI}
 _ZN22QgsUniqueValueRenderer16symbolForFeatureEPK10QgsFeature@Base {QGIS_ABI}
 _ZN22QgsUniqueValueRenderer17willRenderFeatureEP10QgsFeature@Base {QGIS_ABI}
 _ZN22QgsUniqueValueRenderer22setClassificationFieldEi@Base {QGIS_ABI}
 _ZN22QgsUniqueValueRenderer22updateSymbolAttributesEv@Base {QGIS_ABI}
 _ZN22QgsUniqueValueRenderer7readXMLERK8QDomNodeR14QgsVectorLayer@Base {QGIS_ABI}
 _ZN22QgsUniqueValueRendererC1EN4QGis12GeometryTypeE@Base {QGIS_ABI}
 _ZN22QgsUniqueValueRendererC1ERKS_@Base {QGIS_ABI}
 _ZN22QgsUniqueValueRendererC2EN4QGis12GeometryTypeE@Base {QGIS_ABI}
 _ZN22QgsUniqueValueRendererC2ERKS_@Base {QGIS_ABI}
 _ZN22QgsUniqueValueRendererD0Ev@Base {QGIS_ABI}
 _ZN22QgsUniqueValueRendererD1Ev@Base {QGIS_ABI}
 _ZN22QgsUniqueValueRendererD2Ev@Base {QGIS_ABI}
 _ZN22QgsUniqueValueRendereraSERKS_@Base {QGIS_ABI}
 _ZN23QgsMessageOutputConsole10setMessageERK7QStringN16QgsMessageOutput11MessageTypeE@Base {QGIS_ABI}
 _ZN23QgsMessageOutputConsole11qt_metacallEN11QMetaObject4CallEiPPv@Base {QGIS_ABI}
 _ZN23QgsMessageOutputConsole11qt_metacastEPKc@Base {QGIS_ABI}
 _ZN23QgsMessageOutputConsole11showMessageEb@Base {QGIS_ABI}
 _ZN23QgsMessageOutputConsole13appendMessageERK7QString@Base {QGIS_ABI}
 _ZN23QgsMessageOutputConsole16staticMetaObjectE@Base {QGIS_ABI}
 _ZN23QgsMessageOutputConsole8setTitleERK7QString@Base {QGIS_ABI}
 _ZN23QgsMessageOutputConsole9destroyedEv@Base {QGIS_ABI}
 _ZN23QgsMessageOutputConsoleC1Ev@Base {QGIS_ABI}
 _ZN23QgsMessageOutputConsoleC2Ev@Base {QGIS_ABI}
 _ZN23QgsMessageOutputConsoleD0Ev@Base {QGIS_ABI}
 _ZN23QgsMessageOutputConsoleD1Ev@Base {QGIS_ABI}
 _ZN23QgsNumericScaleBarStyleC1EP19QgsComposerScaleBar@Base {QGIS_ABI}
 _ZN23QgsNumericScaleBarStyleC1Ev@Base {QGIS_ABI}
 _ZN23QgsNumericScaleBarStyleC2EP19QgsComposerScaleBar@Base {QGIS_ABI}
 _ZN23QgsNumericScaleBarStyleC2Ev@Base {QGIS_ABI}
 _ZN23QgsNumericScaleBarStyleD0Ev@Base {QGIS_ABI}
 _ZN23QgsNumericScaleBarStyleD1Ev@Base {QGIS_ABI}
 _ZN23QgsNumericScaleBarStyleD2Ev@Base {QGIS_ABI}
 _ZN23QgsProjectFileTransform12transformersE@Base {QGIS_ABI}
 _ZN23QgsProjectFileTransform13transformNullEv@Base {QGIS_ABI}
 _ZN23QgsProjectFileTransform14updateRevisionE17QgsProjectVersion@Base {QGIS_ABI}
 _ZN23QgsProjectFileTransform17transform081to090Ev@Base {QGIS_ABI}
 _ZN23QgsProjectFileTransform18transform091to0100Ev@Base {QGIS_ABI}
 _ZN23QgsProjectFileTransform19transform0100to0110Ev@Base {QGIS_ABI}
 _ZN23QgsProjectFileTransform19transform0110to1000Ev@Base {QGIS_ABI}
 _ZN23QgsProjectFileTransform19transform1100to1200Ev@Base {QGIS_ABI}
 _ZN23QgsProjectFileTransform4dumpEv@Base {QGIS_ABI}
 _ZN23QgsProjectFileTransformD1Ev@Base {QGIS_ABI}
 _ZN23QgsRasterShaderFunction15setMaximumValueEd@Base {QGIS_ABI}
 _ZN23QgsRasterShaderFunction15setMinimumValueEd@Base {QGIS_ABI}
 _ZN23QgsRasterShaderFunction5shadeEdPiS0_S0_@Base {QGIS_ABI}
 _ZN23QgsRasterShaderFunction5shadeEdddPiS0_S0_@Base {QGIS_ABI}
 _ZN23QgsRasterShaderFunctionC1Edd@Base {QGIS_ABI}
 _ZN23QgsRasterShaderFunctionC2Edd@Base {QGIS_ABI}
 _ZN23QgsRasterShaderFunctionD0Ev@Base {QGIS_ABI}
 _ZN23QgsRasterShaderFunctionD1Ev@Base {QGIS_ABI}
 _ZN23QgsSingleSymbolRenderer13renderFeatureER16QgsRenderContextR10QgsFeatureP6QImagebd@Base {QGIS_ABI}
 _ZN23QgsSingleSymbolRenderer22updateSymbolAttributesEv@Base {QGIS_ABI}
 _ZN23QgsSingleSymbolRenderer7readXMLERK8QDomNodeR14QgsVectorLayer@Base {QGIS_ABI}
 _ZN23QgsSingleSymbolRenderer9addSymbolEP9QgsSymbol@Base {QGIS_ABI}
 _ZN23QgsSingleSymbolRendererC1EN4QGis12GeometryTypeE@Base {QGIS_ABI}
 _ZN23QgsSingleSymbolRendererC1ERKS_@Base {QGIS_ABI}
 _ZN23QgsSingleSymbolRendererC2EN4QGis12GeometryTypeE@Base {QGIS_ABI}
 _ZN23QgsSingleSymbolRendererC2ERKS_@Base {QGIS_ABI}
 _ZN23QgsSingleSymbolRendererD0Ev@Base {QGIS_ABI}
 _ZN23QgsSingleSymbolRendererD1Ev@Base {QGIS_ABI}
 _ZN23QgsSingleSymbolRendererD2Ev@Base {QGIS_ABI}
 _ZN23QgsSingleSymbolRendereraSERKS_@Base {QGIS_ABI}
 _ZN24QgsSymbolLayerV2Registry18addSymbolLayerTypeERK24QgsSymbolLayerV2Metadata@Base {QGIS_ABI}
 _ZN24QgsSymbolLayerV2Registry18defaultSymbolLayerEN11QgsSymbolV210SymbolTypeE@Base {QGIS_ABI}
 _ZN24QgsSymbolLayerV2Registry19symbolLayersForTypeEN11QgsSymbolV210SymbolTypeE@Base {QGIS_ABI}
 _ZN24QgsSymbolLayerV2Registry26setLayerTypeWidgetFunctionE7QStringPFP22QgsSymbolLayerV2WidgetvE@Base {QGIS_ABI}
 _ZN24QgsSymbolLayerV2Registry8instanceEv@Base {QGIS_ABI}
 _ZN24QgsSymbolLayerV2Registry9mInstanceE@Base {QGIS_ABI}
 _ZN24QgsSymbolLayerV2RegistryC1Ev@Base {QGIS_ABI}
 _ZN24QgsSymbolLayerV2RegistryC2Ev@Base {QGIS_ABI}
 _ZN24QgsSymbologyV2Conversion12symbolV1toV2EPK9QgsSymbol@Base {QGIS_ABI}
 _ZN24QgsSymbologyV2Conversion12symbolV2toV1EP11QgsSymbolV2@Base {QGIS_ABI}
 _ZN24QgsSymbologyV2Conversion14rendererV1toV2EP14QgsVectorLayer@Base {QGIS_ABI}
 _ZN24QgsSymbologyV2Conversion14rendererV2toV1EP14QgsVectorLayer@Base {QGIS_ABI}
 _ZN25QgsDoubleBoxScaleBarStyleC1EPK19QgsComposerScaleBar@Base {QGIS_ABI}
 _ZN25QgsDoubleBoxScaleBarStyleC1Ev@Base {QGIS_ABI}
 _ZN25QgsDoubleBoxScaleBarStyleC2EPK19QgsComposerScaleBar@Base {QGIS_ABI}
 _ZN25QgsDoubleBoxScaleBarStyleC2Ev@Base {QGIS_ABI}
 _ZN25QgsDoubleBoxScaleBarStyleD0Ev@Base {QGIS_ABI}
 _ZN25QgsDoubleBoxScaleBarStyleD1Ev@Base {QGIS_ABI}
 _ZN25QgsDoubleBoxScaleBarStyleD2Ev@Base {QGIS_ABI}
 _ZN25QgsProjectBadLayerHandlerD0Ev@Base {QGIS_ABI}
 _ZN25QgsProjectBadLayerHandlerD1Ev@Base {QGIS_ABI}
 _ZN25QgsProviderCountCalcEventC1El@Base {QGIS_ABI}
 _ZN25QgsProviderCountCalcEventC2El@Base {QGIS_ABI}
 _ZN25QgsProviderCountCalcEventD0Ev@Base {QGIS_ABI}
 _ZN25QgsProviderCountCalcEventD1Ev@Base {QGIS_ABI}
 _ZN25QgsSingleBoxScaleBarStyleC1EPK19QgsComposerScaleBar@Base {QGIS_ABI}
 _ZN25QgsSingleBoxScaleBarStyleC1Ev@Base {QGIS_ABI}
 _ZN25QgsSingleBoxScaleBarStyleC2EPK19QgsComposerScaleBar@Base {QGIS_ABI}
 _ZN25QgsSingleBoxScaleBarStyleC2Ev@Base {QGIS_ABI}
 _ZN25QgsSingleBoxScaleBarStyleD0Ev@Base {QGIS_ABI}
 _ZN25QgsSingleBoxScaleBarStyleD1Ev@Base {QGIS_ABI}
 _ZN25QgsSingleBoxScaleBarStyleD2Ev@Base {QGIS_ABI}
 _ZN25QgsSingleSymbolRendererV210stopRenderER16QgsRenderContext@Base {QGIS_ABI}
 _ZN25QgsSingleSymbolRendererV211startRenderER16QgsRenderContextPK14QgsVectorLayer@Base {QGIS_ABI}
 _ZN25QgsSingleSymbolRendererV211startRenderER16QgsRenderContextRK4QMapIi8QgsFieldE@Base {QGIS_ABI}
 _ZN25QgsSingleSymbolRendererV214usedAttributesEv@Base {QGIS_ABI}
 _ZN25QgsSingleSymbolRendererV216symbolForFeatureER10QgsFeature@Base {QGIS_ABI}
 _ZN25QgsSingleSymbolRendererV220legendSymbologyItemsE5QSize@Base {QGIS_ABI}
 _ZN25QgsSingleSymbolRendererV24dumpEv@Base {QGIS_ABI}
 _ZN25QgsSingleSymbolRendererV24saveER12QDomDocument@Base {QGIS_ABI}
 _ZN25QgsSingleSymbolRendererV25cloneEv@Base {QGIS_ABI}
 _ZN25QgsSingleSymbolRendererV26createER11QDomElement@Base {QGIS_ABI}
 _ZN25QgsSingleSymbolRendererV27symbolsEv@Base {QGIS_ABI}
 _ZN25QgsSingleSymbolRendererV29setSymbolEP11QgsSymbolV2@Base {QGIS_ABI}
 _ZN25QgsSingleSymbolRendererV2C1EP11QgsSymbolV2@Base {QGIS_ABI}
 _ZN25QgsSingleSymbolRendererV2C2EP11QgsSymbolV2@Base {QGIS_ABI}
 _ZN25QgsSingleSymbolRendererV2D0Ev@Base {QGIS_ABI}
 _ZN25QgsSingleSymbolRendererV2D1Ev@Base {QGIS_ABI}
 _ZN25QgsSingleSymbolRendererV2D2Ev@Base {QGIS_ABI}
 _ZN25QgsSvgMarkerSymbolLayerV210stopRenderER16QgsRenderContext@Base {QGIS_ABI}
 _ZN25QgsSvgMarkerSymbolLayerV211renderPointERK7QPointFR16QgsRenderContext@Base {QGIS_ABI}
 _ZN25QgsSvgMarkerSymbolLayerV211startRenderER16QgsRenderContext@Base {QGIS_ABI}
 _ZN25QgsSvgMarkerSymbolLayerV212listSvgFilesEv@Base {QGIS_ABI}
 _ZN25QgsSvgMarkerSymbolLayerV216symbolNameToPathE7QString@Base {QGIS_ABI}
 _ZN25QgsSvgMarkerSymbolLayerV216symbolPathToNameE7QString@Base {QGIS_ABI}
 _ZN25QgsSvgMarkerSymbolLayerV26createERK4QMapI7QStringS1_E@Base {QGIS_ABI}
 _ZN25QgsSvgMarkerSymbolLayerV2C1E7QStringdd@Base {QGIS_ABI}
 _ZN25QgsSvgMarkerSymbolLayerV2C2E7QStringdd@Base {QGIS_ABI}
 _ZN25QgsSvgMarkerSymbolLayerV2D0Ev@Base {QGIS_ABI}
 _ZN25QgsSvgMarkerSymbolLayerV2D1Ev@Base {QGIS_ABI}
 _ZN26QgsClipToMinMaxEnhancement25isValueInDisplayableRangeEd@Base {QGIS_ABI}
 _ZN26QgsClipToMinMaxEnhancement7enhanceEd@Base {QGIS_ABI}
 _ZN26QgsClipToMinMaxEnhancementC1EN22QgsContrastEnhancement17QgsRasterDataTypeEdd@Base {QGIS_ABI}
 _ZN26QgsClipToMinMaxEnhancementC2EN22QgsContrastEnhancement17QgsRasterDataTypeEdd@Base {QGIS_ABI}
 _ZN26QgsClipToMinMaxEnhancementD0Ev@Base {QGIS_ABI}
 _ZN26QgsClipToMinMaxEnhancementD1Ev@Base {QGIS_ABI}
 _ZN26QgsContinuousColorRenderer13renderFeatureER16QgsRenderContextR10QgsFeatureP6QImagebd@Base {QGIS_ABI}
 _ZN26QgsContinuousColorRenderer16setMaximumSymbolEP9QgsSymbol@Base {QGIS_ABI}
 _ZN26QgsContinuousColorRenderer16setMinimumSymbolEP9QgsSymbol@Base {QGIS_ABI}
 _ZN26QgsContinuousColorRenderer7readXMLERK8QDomNodeR14QgsVectorLayer@Base {QGIS_ABI}
 _ZN26QgsContinuousColorRendererC1EN4QGis12GeometryTypeE@Base {QGIS_ABI}
 _ZN26QgsContinuousColorRendererC1ERKS_@Base {QGIS_ABI}
 _ZN26QgsContinuousColorRendererC2EN4QGis12GeometryTypeE@Base {QGIS_ABI}
 _ZN26QgsContinuousColorRendererC2ERKS_@Base {QGIS_ABI}
 _ZN26QgsContinuousColorRendererD0Ev@Base {QGIS_ABI}
 _ZN26QgsContinuousColorRendererD1Ev@Base {QGIS_ABI}
 _ZN26QgsContinuousColorRendererD2Ev@Base {QGIS_ABI}
 _ZN26QgsContinuousColorRendereraSERKS_@Base {QGIS_ABI}
 _ZN26QgsGraduatedSymbolRenderer13removeSymbolsEv@Base {QGIS_ABI}
 _ZN26QgsGraduatedSymbolRenderer13renderFeatureER16QgsRenderContextR10QgsFeatureP6QImagebd@Base {QGIS_ABI}
 _ZN26QgsGraduatedSymbolRenderer16symbolForFeatureEPK10QgsFeature@Base {QGIS_ABI}
 _ZN26QgsGraduatedSymbolRenderer17willRenderFeatureEP10QgsFeature@Base {QGIS_ABI}
 _ZN26QgsGraduatedSymbolRenderer22updateSymbolAttributesEv@Base {QGIS_ABI}
 _ZN26QgsGraduatedSymbolRenderer7readXMLERK8QDomNodeR14QgsVectorLayer@Base {QGIS_ABI}
 _ZN26QgsGraduatedSymbolRenderer7setModeENS_4ModeE@Base {QGIS_ABI}
 _ZN26QgsGraduatedSymbolRendererC1EN4QGis12GeometryTypeENS_4ModeE@Base {QGIS_ABI}
 _ZN26QgsGraduatedSymbolRendererC1ERKS_@Base {QGIS_ABI}
 _ZN26QgsGraduatedSymbolRendererC2EN4QGis12GeometryTypeENS_4ModeE@Base {QGIS_ABI}
 _ZN26QgsGraduatedSymbolRendererC2ERKS_@Base {QGIS_ABI}
 _ZN26QgsGraduatedSymbolRendererD0Ev@Base {QGIS_ABI}
 _ZN26QgsGraduatedSymbolRendererD1Ev@Base {QGIS_ABI}
 _ZN26QgsGraduatedSymbolRendererD2Ev@Base {QGIS_ABI}
 _ZN26QgsGraduatedSymbolRendereraSERKS_@Base {QGIS_ABI}
 _ZN26QgsLinearMinMaxEnhancement7enhanceEd@Base {QGIS_ABI}
 _ZN26QgsLinearMinMaxEnhancementC1EN22QgsContrastEnhancement17QgsRasterDataTypeEdd@Base {QGIS_ABI}
 _ZN26QgsLinearMinMaxEnhancementC2EN22QgsContrastEnhancement17QgsRasterDataTypeEdd@Base {QGIS_ABI}
 _ZN26QgsLinearMinMaxEnhancementD0Ev@Base {QGIS_ABI}
 _ZN26QgsLinearMinMaxEnhancementD1Ev@Base {QGIS_ABI}
 _ZN26QgsMarkerLineSymbolLayerV210stopRenderER16QgsRenderContext@Base {QGIS_ABI}
 _ZN26QgsMarkerLineSymbolLayerV211startRenderER16QgsRenderContext@Base {QGIS_ABI}
 _ZN26QgsMarkerLineSymbolLayerV212setSubSymbolEP11QgsSymbolV2@Base {QGIS_ABI}
 _ZN26QgsMarkerLineSymbolLayerV214renderPolylineERK9QPolygonFR16QgsRenderContext@Base {QGIS_ABI}
 _ZN26QgsMarkerLineSymbolLayerV222renderPolylineNoOffsetERK9QPolygonFR16QgsRenderContext@Base {QGIS_ABI}
 _ZN26QgsMarkerLineSymbolLayerV26createERK4QMapI7QStringS1_E@Base {QGIS_ABI}
 _ZN26QgsMarkerLineSymbolLayerV28setColorE6QColor@Base {QGIS_ABI}
 _ZN26QgsMarkerLineSymbolLayerV29subSymbolEv@Base {QGIS_ABI}
 _ZN26QgsMarkerLineSymbolLayerV2C1Ebd@Base {QGIS_ABI}
 _ZN26QgsMarkerLineSymbolLayerV2C2Ebd@Base {QGIS_ABI}
 _ZN26QgsMarkerLineSymbolLayerV2D0Ev@Base {QGIS_ABI}
 _ZN26QgsMarkerLineSymbolLayerV2D1Ev@Base {QGIS_ABI}
 _ZN26QgsMarkerLineSymbolLayerV2D2Ev@Base {QGIS_ABI}
 _ZN26QgsProviderExtentCalcEventC1EP12QgsRectangle@Base {QGIS_ABI}
 _ZN26QgsProviderExtentCalcEventC2EP12QgsRectangle@Base {QGIS_ABI}
 _ZN26QgsProviderExtentCalcEventD0Ev@Base {QGIS_ABI}
 _ZN26QgsProviderExtentCalcEventD1Ev@Base {QGIS_ABI}
 _ZN26QgsSimpleFillSymbolLayerV210stopRenderER16QgsRenderContext@Base {QGIS_ABI}
 _ZN26QgsSimpleFillSymbolLayerV211startRenderER16QgsRenderContext@Base {QGIS_ABI}
 _ZN26QgsSimpleFillSymbolLayerV213renderPolygonERK9QPolygonFP5QListIS0_ER16QgsRenderContext@Base {QGIS_ABI}
 _ZN26QgsSimpleFillSymbolLayerV26createERK4QMapI7QStringS1_E@Base {QGIS_ABI}
 _ZN26QgsSimpleFillSymbolLayerV2C1E6QColorN2Qt10BrushStyleES0_NS1_8PenStyleEd@Base {QGIS_ABI}
 _ZN26QgsSimpleFillSymbolLayerV2C1E6QColorS0_N2Qt10BrushStyleE@Base {QGIS_ABI}
 _ZN26QgsSimpleFillSymbolLayerV2C2E6QColorN2Qt10BrushStyleES0_NS1_8PenStyleEd@Base {QGIS_ABI}
 _ZN26QgsSimpleFillSymbolLayerV2C2E6QColorS0_N2Qt10BrushStyleE@Base {QGIS_ABI}
 _ZN26QgsSimpleFillSymbolLayerV2D0Ev@Base {QGIS_ABI}
 _ZN26QgsSimpleFillSymbolLayerV2D1Ev@Base {QGIS_ABI}
 _ZN26QgsSimpleLineSymbolLayerV210stopRenderER16QgsRenderContext@Base {QGIS_ABI}
 _ZN26QgsSimpleLineSymbolLayerV211startRenderER16QgsRenderContext@Base {QGIS_ABI}
 _ZN26QgsSimpleLineSymbolLayerV214renderPolylineERK9QPolygonFR16QgsRenderContext@Base {QGIS_ABI}
 _ZN26QgsSimpleLineSymbolLayerV26createERK4QMapI7QStringS1_E@Base {QGIS_ABI}
 _ZN26QgsSimpleLineSymbolLayerV2C1E6QColordN2Qt8PenStyleE@Base {QGIS_ABI}
 _ZN26QgsSimpleLineSymbolLayerV2C2E6QColordN2Qt8PenStyleE@Base {QGIS_ABI}
 _ZN26QgsSimpleLineSymbolLayerV2D0Ev@Base {QGIS_ABI}
 _ZN26QgsSimpleLineSymbolLayerV2D1Ev@Base {QGIS_ABI}
 _ZN26QgsVectorRandomColorRampV212updateColorsEv@Base {QGIS_ABI}
 _ZN26QgsVectorRandomColorRampV26createERK4QMapI7QStringS1_E@Base {QGIS_ABI}
 _ZN26QgsVectorRandomColorRampV2C1Eiiiiiii@Base {QGIS_ABI}
 _ZN26QgsVectorRandomColorRampV2C2Eiiiiiii@Base {QGIS_ABI}
 _ZN26QgsVectorRandomColorRampV2D0Ev@Base {QGIS_ABI}
 _ZN26QgsVectorRandomColorRampV2D1Ev@Base {QGIS_ABI}
 _ZN27QgsPALObjectPositionManager12removeLayersEv@Base {QGIS_ABI}
 _ZN27QgsPALObjectPositionManager19deletePALGeometriesEv@Base {QGIS_ABI}
 _ZN27QgsPALObjectPositionManager19findObjectPositionsERK16QgsRenderContextN4QGis8UnitTypeE@Base {QGIS_ABI}
 _ZN27QgsPALObjectPositionManager21setPlacementAlgorithmERK7QString@Base {QGIS_ABI}
 _ZN27QgsPALObjectPositionManager8addLayerEP14QgsVectorLayerR5QListIP16QgsVectorOverlayE@Base {QGIS_ABI}
 _ZN27QgsPALObjectPositionManagerC1Ev@Base {QGIS_ABI}
 _ZN27QgsPALObjectPositionManagerC2Ev@Base {QGIS_ABI}
 _ZN27QgsPALObjectPositionManagerD0Ev@Base {QGIS_ABI}
 _ZN27QgsPALObjectPositionManagerD1Ev@Base {QGIS_ABI}
 _ZN27QgsPALObjectPositionManagerD2Ev@Base {QGIS_ABI}
 _ZN27QgsProjectBadLayerException4msg_E@Base {QGIS_ABI}
 _ZN27QgsProjectBadLayerExceptionD0Ev@Base {QGIS_ABI}
 _ZN27QgsProjectBadLayerExceptionD1Ev@Base {QGIS_ABI}
 _ZN28QgsCoordinateReferenceSystem10debugPrintEv@Base {QGIS_ABI}
 _ZN28QgsCoordinateReferenceSystem10loadFromDbE7QStringS0_l@Base {QGIS_ABI}
 _ZN28QgsCoordinateReferenceSystem11setMapUnitsEv@Base {QGIS_ABI}
 _ZN28QgsCoordinateReferenceSystem12createFromIdElNS_7CrsTypeE@Base {QGIS_ABI}
 _ZN28QgsCoordinateReferenceSystem13createFromWktE7QString@Base {QGIS_ABI}
 _ZN28QgsCoordinateReferenceSystem13saveAsUserCRSEv@Base {QGIS_ABI}
 _ZN28QgsCoordinateReferenceSystem13setInternalIdEl@Base {QGIS_ABI}
 _ZN28QgsCoordinateReferenceSystem13sqlSafeStringE7QString@Base {QGIS_ABI}
 _ZN28QgsCoordinateReferenceSystem14createFromEpsgEl@Base {QGIS_ABI}
 _ZN28QgsCoordinateReferenceSystem14createFromSridEl@Base {QGIS_ABI}
 _ZN28QgsCoordinateReferenceSystem14getRecordCountEv@Base {QGIS_ABI}
 _ZN28QgsCoordinateReferenceSystem14proj4FromSrsIdEi@Base {QGIS_ABI}
 _ZN28QgsCoordinateReferenceSystem14setDescriptionE7QString@Base {QGIS_ABI}
 _ZN28QgsCoordinateReferenceSystem14setProj4StringE7QString@Base {QGIS_ABI}
 _ZN28QgsCoordinateReferenceSystem14validationHintEv@Base {QGIS_ABI}
 _ZN28QgsCoordinateReferenceSystem15createFromProj4E7QString@Base {QGIS_ABI}
 _ZN28QgsCoordinateReferenceSystem15createFromSrsIdEl@Base {QGIS_ABI}
 _ZN28QgsCoordinateReferenceSystem16findMatchingProjEv@Base {QGIS_ABI}
 _ZN28QgsCoordinateReferenceSystem17setGeographicFlagEb@Base {QGIS_ABI}
 _ZN28QgsCoordinateReferenceSystem17setValidationHintE7QString@Base {QGIS_ABI}
 _ZN28QgsCoordinateReferenceSystem19createFromOgcWmsCrsE7QString@Base {QGIS_ABI}
 _ZN28QgsCoordinateReferenceSystem19customSrsValidationEv@Base {QGIS_ABI}
 _ZN28QgsCoordinateReferenceSystem19setEllipsoidAcronymE7QString@Base {QGIS_ABI}
 _ZN28QgsCoordinateReferenceSystem20mCustomSrsValidationE@Base {QGIS_ABI}
 _ZN28QgsCoordinateReferenceSystem20setProjectionAcronymE7QString@Base {QGIS_ABI}
 _ZN28QgsCoordinateReferenceSystem22setCustomSrsValidationEPFvPS_E@Base {QGIS_ABI}
 _ZN28QgsCoordinateReferenceSystem6equalsE7QString@Base {QGIS_ABI}
 _ZN28QgsCoordinateReferenceSystem6openDbE7QStringPP7sqlite3@Base {QGIS_ABI}
 _ZN28QgsCoordinateReferenceSystem7readXMLER8QDomNode@Base {QGIS_ABI}
 _ZN28QgsCoordinateReferenceSystem7setEpsgEl@Base {QGIS_ABI}
 _ZN28QgsCoordinateReferenceSystem7setSridEl@Base {QGIS_ABI}
 _ZN28QgsCoordinateReferenceSystem8validateEv@Base {QGIS_ABI}
 _ZN28QgsCoordinateReferenceSystem9getRecordE7QString@Base {QGIS_ABI}
 _ZN28QgsCoordinateReferenceSystemC1E7QString@Base {QGIS_ABI}
 _ZN28QgsCoordinateReferenceSystemC1ERKS_@Base {QGIS_ABI}
 _ZN28QgsCoordinateReferenceSystemC1ElNS_7CrsTypeE@Base {QGIS_ABI}
 _ZN28QgsCoordinateReferenceSystemC1Ev@Base {QGIS_ABI}
 _ZN28QgsCoordinateReferenceSystemC2E7QString@Base {QGIS_ABI}
 _ZN28QgsCoordinateReferenceSystemC2ERKS_@Base {QGIS_ABI}
 _ZN28QgsCoordinateReferenceSystemC2ElNS_7CrsTypeE@Base {QGIS_ABI}
 _ZN28QgsCoordinateReferenceSystemC2Ev@Base {QGIS_ABI}
 _ZN28QgsCoordinateReferenceSystemD1Ev@Base {QGIS_ABI}
 _ZN28QgsCoordinateReferenceSystemD2Ev@Base {QGIS_ABI}
 _ZN28QgsCoordinateReferenceSystemaSERKS_@Base {QGIS_ABI}
 _ZN28QgsCoordinateReferenceSystemeqERKS_@Base {QGIS_ABI}
 _ZN28QgsCoordinateReferenceSystemneERKS_@Base {QGIS_ABI}
 _ZN28QgsGraduatedSymbolRendererV210stopRenderER16QgsRenderContext@Base {QGIS_ABI}
 _ZN28QgsGraduatedSymbolRendererV211deleteClassEi@Base {QGIS_ABI}
 _ZN28QgsGraduatedSymbolRendererV211startRenderER16QgsRenderContextPK14QgsVectorLayer@Base {QGIS_ABI}
 _ZN28QgsGraduatedSymbolRendererV211startRenderER16QgsRenderContextRK4QMapIi8QgsFieldE@Base {QGIS_ABI}
 _ZN28QgsGraduatedSymbolRendererV212sourceSymbolEv@Base {QGIS_ABI}
 _ZN28QgsGraduatedSymbolRendererV214createRendererEP14QgsVectorLayer7QStringiNS_4ModeEP11QgsSymbolV2P20QgsVectorColorRampV2@Base {QGIS_ABI}
 _ZN28QgsGraduatedSymbolRendererV214symbolForValueEd@Base {QGIS_ABI}
 _ZN28QgsGraduatedSymbolRendererV214usedAttributesEv@Base {QGIS_ABI}
 _ZN28QgsGraduatedSymbolRendererV215setSourceSymbolEP11QgsSymbolV2@Base {QGIS_ABI}
 _ZN28QgsGraduatedSymbolRendererV215sourceColorRampEv@Base {QGIS_ABI}
 _ZN28QgsGraduatedSymbolRendererV216symbolForFeatureER10QgsFeature@Base {QGIS_ABI}
 _ZN28QgsGraduatedSymbolRendererV216updateRangeLabelEi7QString@Base {QGIS_ABI}
 _ZN28QgsGraduatedSymbolRendererV217updateRangeSymbolEiP11QgsSymbolV2@Base {QGIS_ABI}
 _ZN28QgsGraduatedSymbolRendererV218setSourceColorRampEP20QgsVectorColorRampV2@Base {QGIS_ABI}
 _ZN28QgsGraduatedSymbolRendererV220legendSymbologyItemsE5QSize@Base {QGIS_ABI}
 _ZN28QgsGraduatedSymbolRendererV221updateRangeLowerValueEid@Base {QGIS_ABI}
 _ZN28QgsGraduatedSymbolRendererV221updateRangeUpperValueEid@Base {QGIS_ABI}
 _ZN28QgsGraduatedSymbolRendererV24dumpEv@Base {QGIS_ABI}
 _ZN28QgsGraduatedSymbolRendererV24saveER12QDomDocument@Base {QGIS_ABI}
 _ZN28QgsGraduatedSymbolRendererV25cloneEv@Base {QGIS_ABI}
 _ZN28QgsGraduatedSymbolRendererV26createER11QDomElement@Base {QGIS_ABI}
 _ZN28QgsGraduatedSymbolRendererV27symbolsEv@Base {QGIS_ABI}
 _ZN28QgsGraduatedSymbolRendererV28addClassEP11QgsSymbolV2@Base {QGIS_ABI}
 _ZN28QgsGraduatedSymbolRendererV2C1E7QString5QListI18QgsRendererRangeV2E@Base {QGIS_ABI}
 _ZN28QgsGraduatedSymbolRendererV2C2E7QString5QListI18QgsRendererRangeV2E@Base {QGIS_ABI}
 _ZN28QgsGraduatedSymbolRendererV2D0Ev@Base {QGIS_ABI}
 _ZN28QgsGraduatedSymbolRendererV2D1Ev@Base {QGIS_ABI}
 _ZN28QgsGraduatedSymbolRendererV2D2Ev@Base {QGIS_ABI}
 _ZN28QgsSimpleMarkerSymbolLayerV210drawMarkerEP8QPainter@Base {QGIS_ABI}
 _ZN28QgsSimpleMarkerSymbolLayerV210stopRenderER16QgsRenderContext@Base {QGIS_ABI}
 _ZN28QgsSimpleMarkerSymbolLayerV211renderPointERK7QPointFR16QgsRenderContext@Base {QGIS_ABI}
 _ZN28QgsSimpleMarkerSymbolLayerV211startRenderER16QgsRenderContext@Base {QGIS_ABI}
 _ZN28QgsSimpleMarkerSymbolLayerV26createERK4QMapI7QStringS1_E@Base {QGIS_ABI}
 _ZN28QgsSimpleMarkerSymbolLayerV2C1E7QString6QColorS1_dd@Base {QGIS_ABI}
 _ZN28QgsSimpleMarkerSymbolLayerV2C2E7QString6QColorS1_dd@Base {QGIS_ABI}
 _ZN28QgsSimpleMarkerSymbolLayerV2D0Ev@Base {QGIS_ABI}
 _ZN28QgsSimpleMarkerSymbolLayerV2D1Ev@Base {QGIS_ABI}
 _ZN28QgsVectorGradientColorRampV26createERK4QMapI7QStringS1_E@Base {QGIS_ABI}
 _ZN28QgsVectorGradientColorRampV2C1E6QColorS0_@Base {QGIS_ABI}
 _ZN28QgsVectorGradientColorRampV2C2E6QColorS0_@Base {QGIS_ABI}
 _ZN28QgsVectorGradientColorRampV2D0Ev@Base {QGIS_ABI}
 _ZN28QgsVectorGradientColorRampV2D1Ev@Base {QGIS_ABI}
 _ZN30QgsCategorizedSymbolRendererV210stopRenderER16QgsRenderContext@Base {QGIS_ABI}
 _ZN30QgsCategorizedSymbolRendererV211rebuildHashEv@Base {QGIS_ABI}
 _ZN30QgsCategorizedSymbolRendererV211startRenderER16QgsRenderContextPK14QgsVectorLayer@Base {QGIS_ABI}
 _ZN30QgsCategorizedSymbolRendererV211startRenderER16QgsRenderContextRK4QMapIi8QgsFieldE@Base {QGIS_ABI}
 _ZN30QgsCategorizedSymbolRendererV212sourceSymbolEv@Base {QGIS_ABI}
 _ZN30QgsCategorizedSymbolRendererV214deleteCategoryEi@Base {QGIS_ABI}
 _ZN30QgsCategorizedSymbolRendererV214symbolForValueE8QVariant@Base {QGIS_ABI}
 _ZN30QgsCategorizedSymbolRendererV214usedAttributesEv@Base {QGIS_ABI}
 _ZN30QgsCategorizedSymbolRendererV215setSourceSymbolEP11QgsSymbolV2@Base {QGIS_ABI}
 _ZN30QgsCategorizedSymbolRendererV215sourceColorRampEv@Base {QGIS_ABI}
 _ZN30QgsCategorizedSymbolRendererV216symbolForFeatureER10QgsFeature@Base {QGIS_ABI}
 _ZN30QgsCategorizedSymbolRendererV218setSourceColorRampEP20QgsVectorColorRampV2@Base {QGIS_ABI}
 _ZN30QgsCategorizedSymbolRendererV219deleteAllCategoriesEv@Base {QGIS_ABI}
 _ZN30QgsCategorizedSymbolRendererV219updateCategoryLabelEi7QString@Base {QGIS_ABI}
 _ZN30QgsCategorizedSymbolRendererV220legendSymbologyItemsE5QSize@Base {QGIS_ABI}
 _ZN30QgsCategorizedSymbolRendererV220updateCategorySymbolEiP11QgsSymbolV2@Base {QGIS_ABI}
 _ZN30QgsCategorizedSymbolRendererV221categoryIndexForValueE8QVariant@Base {QGIS_ABI}
 _ZN30QgsCategorizedSymbolRendererV24dumpEv@Base {QGIS_ABI}
 _ZN30QgsCategorizedSymbolRendererV24saveER12QDomDocument@Base {QGIS_ABI}
 _ZN30QgsCategorizedSymbolRendererV25cloneEv@Base {QGIS_ABI}
 _ZN30QgsCategorizedSymbolRendererV26createER11QDomElement@Base {QGIS_ABI}
 _ZN30QgsCategorizedSymbolRendererV27symbolsEv@Base {QGIS_ABI}
 _ZN30QgsCategorizedSymbolRendererV2C1E7QString5QListI21QgsRendererCategoryV2E@Base {QGIS_ABI}
 _ZN30QgsCategorizedSymbolRendererV2C2E7QString5QListI21QgsRendererCategoryV2E@Base {QGIS_ABI}
 _ZN30QgsCategorizedSymbolRendererV2D0Ev@Base {QGIS_ABI}
 _ZN30QgsCategorizedSymbolRendererV2D1Ev@Base {QGIS_ABI}
 _ZN30QgsCategorizedSymbolRendererV2D2Ev@Base {QGIS_ABI}
 _ZN30QgsCentralPointPositionManager12removeLayersEv@Base {QGIS_ABI}
 _ZN30QgsCentralPointPositionManager19findObjectPositionsERK16QgsRenderContextN4QGis8UnitTypeE@Base {QGIS_ABI}
 _ZN30QgsCentralPointPositionManager8addLayerEP14QgsVectorLayerR5QListIP16QgsVectorOverlayE@Base {QGIS_ABI}
 _ZN30QgsCentralPointPositionManagerC1Ev@Base {QGIS_ABI}
 _ZN30QgsCentralPointPositionManagerC2Ev@Base {QGIS_ABI}
 _ZN30QgsCentralPointPositionManagerD0Ev@Base {QGIS_ABI}
 _ZN30QgsCentralPointPositionManagerD1Ev@Base {QGIS_ABI}
 _ZN30QgsCentralPointPositionManagerD2Ev@Base {QGIS_ABI}
 _ZN30QgsContrastEnhancementFunction15setMaximumValueEd@Base {QGIS_ABI}
 _ZN30QgsContrastEnhancementFunction15setMinimumValueEd@Base {QGIS_ABI}
 _ZN30QgsContrastEnhancementFunction25isValueInDisplayableRangeEd@Base {QGIS_ABI}
 _ZN30QgsContrastEnhancementFunction7enhanceEd@Base {QGIS_ABI}
 _ZN30QgsContrastEnhancementFunctionC1EN22QgsContrastEnhancement17QgsRasterDataTypeEdd@Base {QGIS_ABI}
 _ZN30QgsContrastEnhancementFunctionC2EN22QgsContrastEnhancement17QgsRasterDataTypeEdd@Base {QGIS_ABI}
 _ZN30QgsContrastEnhancementFunctionD0Ev@Base {QGIS_ABI}
 _ZN30QgsContrastEnhancementFunctionD1Ev@Base {QGIS_ABI}
 _ZN30QgsLineDecorationSymbolLayerV210stopRenderER16QgsRenderContext@Base {QGIS_ABI}
 _ZN30QgsLineDecorationSymbolLayerV211startRenderER16QgsRenderContext@Base {QGIS_ABI}
 _ZN30QgsLineDecorationSymbolLayerV214renderPolylineERK9QPolygonFR16QgsRenderContext@Base {QGIS_ABI}
 _ZN30QgsLineDecorationSymbolLayerV26createERK4QMapI7QStringS1_E@Base {QGIS_ABI}
 _ZN30QgsLineDecorationSymbolLayerV2C1E6QColor@Base {QGIS_ABI}
 _ZN30QgsLineDecorationSymbolLayerV2C2E6QColor@Base {QGIS_ABI}
 _ZN30QgsLineDecorationSymbolLayerV2D0Ev@Base {QGIS_ABI}
 _ZN30QgsLineDecorationSymbolLayerV2D1Ev@Base {QGIS_ABI}
 _ZN30QgsLineDecorationSymbolLayerV2D2Ev@Base {QGIS_ABI}
 _ZN31QgsOverlayObjectPositionManagerD0Ev@Base {QGIS_ABI}
 _ZN31QgsOverlayObjectPositionManagerD1Ev@Base {QGIS_ABI}
 _ZN31QgsVectorColorBrewerColorRampV211loadPaletteEv@Base {QGIS_ABI}
 _ZN31QgsVectorColorBrewerColorRampV215listSchemeNamesEv@Base {QGIS_ABI}
 _ZN31QgsVectorColorBrewerColorRampV218listSchemeVariantsE7QString@Base {QGIS_ABI}
 _ZN31QgsVectorColorBrewerColorRampV26createERK4QMapI7QStringS1_E@Base {QGIS_ABI}
 _ZN31QgsVectorColorBrewerColorRampV2C1E7QStringi@Base {QGIS_ABI}
 _ZN31QgsVectorColorBrewerColorRampV2C2E7QStringi@Base {QGIS_ABI}
 _ZN31QgsVectorColorBrewerColorRampV2D0Ev@Base {QGIS_ABI}
 _ZN31QgsVectorColorBrewerColorRampV2D1Ev@Base {QGIS_ABI}
 _ZN32QgsProjectBadLayerDefaultHandler15handleBadLayersE5QListI8QDomNodeE12QDomDocument@Base {QGIS_ABI}
 _ZN32QgsProjectBadLayerDefaultHandlerD0Ev@Base {QGIS_ABI}
 _ZN32QgsProjectBadLayerDefaultHandlerD1Ev@Base {QGIS_ABI}
 _ZN34QgsLinearMinMaxEnhancementWithClip25isValueInDisplayableRangeEd@Base {QGIS_ABI}
 _ZN34QgsLinearMinMaxEnhancementWithClip7enhanceEd@Base {QGIS_ABI}
 _ZN34QgsLinearMinMaxEnhancementWithClipC1EN22QgsContrastEnhancement17QgsRasterDataTypeEdd@Base {QGIS_ABI}
 _ZN34QgsLinearMinMaxEnhancementWithClipC2EN22QgsContrastEnhancement17QgsRasterDataTypeEdd@Base {QGIS_ABI}
 _ZN34QgsLinearMinMaxEnhancementWithClipD0Ev@Base {QGIS_ABI}
 _ZN34QgsLinearMinMaxEnhancementWithClipD1Ev@Base {QGIS_ABI}
 _ZN3pal10LinkedListIPK10GEOSGeom_tE9push_backES3_@Base {QGIS_ABI}
 _ZN3pal10LinkedListIPNS_11FeaturePartEE9pop_frontEv@Base {QGIS_ABI}
 _ZN3pal10LinkedListIPNS_11FeaturePartEE9push_backES2_@Base {QGIS_ABI}
 _ZN3pal10LinkedListIPNS_13LabelPositionEE9push_backES2_@Base {QGIS_ABI}
 _ZN3pal10LinkedListIPNS_14HashTableEntryIPNS0_IPNS_11FeaturePartEEEEEE9push_backES7_@Base {QGIS_ABI}
 _ZN3pal10LinkedListIPNS_14HashTableEntryIPNS_4CellIPNS_7FeatureEEEEEE9push_backES8_@Base {QGIS_ABI}
 _ZN3pal10LinkedListIPNS_14HashTableEntryIPNS_7FeatureEEEE9push_backES5_@Base {QGIS_ABI}
 _ZN3pal10LinkedListIPNS_26_elementary_transformationEE9push_backES2_@Base {QGIS_ABI}
 _ZN3pal10LinkedListIPNS_4FeatEE9push_backES2_@Base {QGIS_ABI}
 _ZN3pal10LinkedListIPNS_5FeatsEE9push_backES2_@Base {QGIS_ABI}
 _ZN3pal10LinkedListIPNS_6_crossEE9push_backES2_@Base {QGIS_ABI}
 _ZN3pal10LinkedListIPNS_6_featsEE9push_backES2_@Base {QGIS_ABI}
 _ZN3pal10LinkedListIPNS_8PointSetEE9push_backES2_@Base {QGIS_ABI}
 _ZN3pal10LinkedListIiE9pop_frontEv@Base {QGIS_ABI}
 _ZN3pal10LinkedListIiE9push_backEi@Base {QGIS_ABI}
 _ZN3pal10costShrinkEPvS0_@Base {QGIS_ABI}
 _ZN3pal10geosNoticeEPKcz@Base {QGIS_ABI}
 _ZN3pal10intCompareEii@Base {QGIS_ABI}
 _ZN3pal10strCompareEPcS0_@Base {QGIS_ABI}
 _ZN3pal11FeaturePart11isConnectedEPS0_@Base {QGIS_ABI}
 _ZN3pal11FeaturePart11setPositionEdPPPNS_13LabelPositionEPdS5_PNS_8PointSetEPNS_5RTreeIS2_dLi2EdLi8ELi4EEE@Base {QGIS_ABI}
 _ZN3pal11FeaturePart13extractCoordsEPK10GEOSGeom_t@Base {QGIS_ABI}
 _ZN3pal11FeaturePart14addSizePenaltyEiPPNS_13LabelPositionEPdS4_@Base {QGIS_ABI}
 _ZN3pal11FeaturePart18setPositionForLineEdPPPNS_13LabelPositionEPNS_8PointSetEd@Base {QGIS_ABI}
 _ZN3pal11FeaturePart19setPositionForPointEdddPPPNS_13LabelPositionEd@Base {QGIS_ABI}
 _ZN3pal11FeaturePart20mergeWithFeaturePartEPS0_@Base {QGIS_ABI}
 _ZN3pal11FeaturePart20setPositionOverPointEdddPPPNS_13LabelPositionEd@Base {QGIS_ABI}
 _ZN3pal11FeaturePart21removeDuplicatePointsEv@Base {QGIS_ABI}
 _ZN3pal11FeaturePart21setPositionForPolygonEdPPPNS_13LabelPositionEPNS_8PointSetEd@Base {QGIS_ABI}
 _ZN3pal11FeaturePart23curvedPlacementAtOffsetEPNS_8PointSetEPdiid@Base {QGIS_ABI}
 _ZN3pal11FeaturePart24setPositionForLineCurvedEPPPNS_13LabelPositionEPNS_8PointSetE@Base {QGIS_ABI}
 _ZN3pal11FeaturePart5printEv@Base {QGIS_ABI}
 _ZN3pal11FeaturePart6getUIDEv@Base {QGIS_ABI}
 _ZN3pal11FeaturePart8getLayerEv@Base {QGIS_ABI}
 _ZN3pal11FeaturePartC1EPNS_7FeatureEPK10GEOSGeom_t@Base {QGIS_ABI}
 _ZN3pal11FeaturePartC2EPNS_7FeatureEPK10GEOSGeom_t@Base {QGIS_ABI}
 _ZN3pal11FeaturePartD0Ev@Base {QGIS_ABI}
 _ZN3pal11FeaturePartD1Ev@Base {QGIS_ABI}
 _ZN3pal11FeaturePartD2Ev@Base {QGIS_ABI}
 _ZN3pal11PalGeometryD0Ev@Base {QGIS_ABI}
 _ZN3pal11PalGeometryD1Ev@Base {QGIS_ABI}
 _ZN3pal11ignoreLabelEPNS_13LabelPositionEPNS_13PriorityQueueEPNS_5RTreeIS1_dLi2EdLi8ELi4EEE@Base {QGIS_ABI}
 _ZN3pal11nokCallbackEPNS_13LabelPositionEPv@Base {QGIS_ABI}
 _ZN3pal12PalException11LayerExistsD0Ev@Base {QGIS_ABI}
 _ZN3pal12PalException11LayerExistsD1Ev@Base {QGIS_ABI}
 _ZN3pal12PalException12UnknownLayerD0Ev@Base {QGIS_ABI}
 _ZN3pal12PalException12UnknownLayerD1Ev@Base {QGIS_ABI}
 _ZN3pal12PalException13FeatureExistsD0Ev@Base {QGIS_ABI}
 _ZN3pal12PalException13FeatureExistsD1Ev@Base {QGIS_ABI}
 _ZN3pal12PalException14UnknownFeatureD0Ev@Base {QGIS_ABI}
 _ZN3pal12PalException14UnknownFeatureD1Ev@Base {QGIS_ABI}
 _ZN3pal12PalException15ValueNotInRangeD0Ev@Base {QGIS_ABI}
 _ZN3pal12PalException15ValueNotInRangeD1Ev@Base {QGIS_ABI}
 _ZN3pal12convexHullIdEPiPKdS2_iRS0_@Base {QGIS_ABI}
 _ZN3pal12crossingDistEPvS0_@Base {QGIS_ABI}
 _ZN3pal12decreaseCostEPvS0_@Base {QGIS_ABI}
 _ZN3pal12degree2meterEd@Base {QGIS_ABI}
 _ZN3pal12increaseCostEPvS0_@Base {QGIS_ABI}
 _ZN3pal12ptrETCompareEPNS_26_elementary_transformationES1_@Base {QGIS_ABI}
 _ZN3pal13LabelPosition10costShrinkEPvS1_@Base {QGIS_ABI}
 _ZN3pal13LabelPosition10getFeatureEv@Base {QGIS_ABI}
 _ZN3pal13LabelPosition12isInConflictEPS0_@Base {QGIS_ABI}
 _ZN3pal13LabelPosition12validateCostEv@Base {QGIS_ABI}
 _ZN3pal13LabelPosition13pruneCallbackEPS0_Pv@Base {QGIS_ABI}
 _ZN3pal13LabelPosition14getFeaturePartEv@Base {QGIS_ABI}
 _ZN3pal13LabelPosition14offsetPositionEdd@Base {QGIS_ABI}
 _ZN3pal13LabelPosition15insertIntoIndexEPNS_5RTreeIPS0_dLi2EdLi8ELi4EEE@Base {QGIS_ABI}
 _ZN3pal13LabelPosition15removeFromIndexEPNS_5RTreeIPS0_dLi2EdLi8ELi4EEE@Base {QGIS_ABI}
 _ZN3pal13LabelPosition18getDistanceToPointEdd@Base {QGIS_ABI}
 _ZN3pal13LabelPosition18setCostFromPolygonEPNS_5RTreeIPNS_8PointSetEdLi2EdLi8ELi4EEEPdS6_@Base {QGIS_ABI}
 _ZN3pal13LabelPosition20countOverlapCallbackEPS0_Pv@Base {QGIS_ABI}
 _ZN3pal13LabelPosition20isBorderCrossingLineEPNS_8PointSetE@Base {QGIS_ABI}
 _ZN3pal13LabelPosition21PolygonCostCalculator11updatePointEPNS_8PointSetE@Base {QGIS_ABI}
 _ZN3pal13LabelPosition21PolygonCostCalculator14updateLinePolyEPNS_8PointSetE@Base {QGIS_ABI}
 _ZN3pal13LabelPosition21PolygonCostCalculator6updateEPNS_8PointSetE@Base {QGIS_ABI}
 _ZN3pal13LabelPosition21PolygonCostCalculator7getCostEv@Base {QGIS_ABI}
 _ZN3pal13LabelPosition21PolygonCostCalculator8getLabelEv@Base {QGIS_ABI}
 _ZN3pal13LabelPosition21PolygonCostCalculatorC1EPS0_@Base {QGIS_ABI}
 _ZN3pal13LabelPosition21PolygonCostCalculatorC2EPS0_@Base {QGIS_ABI}
 _ZN3pal13LabelPosition21getNumPointsInPolygonEiPdS1_@Base {QGIS_ABI}
 _ZN3pal13LabelPosition21isInConflictMultiPartEPS0_@Base {QGIS_ABI}
 _ZN3pal13LabelPosition21removeOverlapCallbackEPS0_Pv@Base {QGIS_ABI}
 _ZN3pal13LabelPosition22isInConflictSinglePartEPS0_@Base {QGIS_ABI}
 _ZN3pal13LabelPosition23polygonObstacleCallbackEPNS_8PointSetEPv@Base {QGIS_ABI}
 _ZN3pal13LabelPosition24countFullOverlapCallbackEPS0_Pv@Base {QGIS_ABI}
 _ZN3pal13LabelPosition4getXEv@Base {QGIS_ABI}
 _ZN3pal13LabelPosition4getYEv@Base {QGIS_ABI}
 _ZN3pal13LabelPosition4isInEPd@Base {QGIS_ABI}
 _ZN3pal13LabelPosition5getIdEv@Base {QGIS_ABI}
 _ZN3pal13LabelPosition5printEv@Base {QGIS_ABI}
 _ZN3pal13LabelPosition7getCostEv@Base {QGIS_ABI}
 _ZN3pal13LabelPosition7setCostEiPPS0_iPNS_5RTreeIPNS_8PointSetEdLi2EdLi8ELi4EEEPdS8_@Base {QGIS_ABI}
 _ZN3pal13LabelPosition7toLabelEb@Base {QGIS_ABI}
 _ZN3pal13LabelPosition8costGrowEPvS1_@Base {QGIS_ABI}
 _ZN3pal13LabelPosition8getAlphaEv@Base {QGIS_ABI}
 _ZN3pal13LabelPositionC1ERKS0_@Base {QGIS_ABI}
 _ZN3pal13LabelPositionC1EiddddddPNS_11FeaturePartE@Base {QGIS_ABI}
 _ZN3pal13LabelPositionC1EiddddddPNS_7FeatureE@Base {QGIS_ABI}
 _ZN3pal13LabelPositionC2ERKS0_@Base {QGIS_ABI}
 _ZN3pal13LabelPositionC2EiddddddPNS_11FeaturePartE@Base {QGIS_ABI}
 _ZN3pal13LabelPositionC2EiddddddPNS_7FeatureE@Base {QGIS_ABI}
 _ZN3pal13LabelPositionD1Ev@Base {QGIS_ABI}
 _ZN3pal13PriorityQueue11decreaseKeyEi@Base {QGIS_ABI}
 _ZN3pal13PriorityQueue11setPriorityEid@Base {QGIS_ABI}
 _ZN3pal13PriorityQueue12getSizeByPosEv@Base {QGIS_ABI}
 _ZN3pal13PriorityQueue4isInEi@Base {QGIS_ABI}
 _ZN3pal13PriorityQueue4sortEv@Base {QGIS_ABI}
 _ZN3pal13PriorityQueue5getIdEi@Base {QGIS_ABI}
 _ZN3pal13PriorityQueue5printEv@Base {QGIS_ABI}
 _ZN3pal13PriorityQueue6insertEid@Base {QGIS_ABI}
 _ZN3pal13PriorityQueue6removeEi@Base {QGIS_ABI}
 _ZN3pal13PriorityQueue6upheapEi@Base {QGIS_ABI}
 _ZN3pal13PriorityQueue7getBestEv@Base {QGIS_ABI}
 _ZN3pal13PriorityQueue7getSizeEv@Base {QGIS_ABI}
 _ZN3pal13PriorityQueue8downheapEi@Base {QGIS_ABI}
 _ZN3pal13PriorityQueueC1Eiib@Base {QGIS_ABI}
 _ZN3pal13PriorityQueueC2Eiib@Base {QGIS_ABI}
 _ZN3pal13PriorityQueueD1Ev@Base {QGIS_ABI}
 _ZN3pal13PriorityQueueD2Ev@Base {QGIS_ABI}
 _ZN3pal13borderSizeIncEPvS0_@Base {QGIS_ABI}
 _ZN3pal13chainCallbackEPNS_13LabelPositionEPv@Base {QGIS_ABI}
 _ZN3pal13checkCallbackEPNS_13LabelPositionEPv@Base {QGIS_ABI}
 _ZN3pal13falpCallback1EPNS_13LabelPositionEPv@Base {QGIS_ABI}
 _ZN3pal13falpCallback2EPNS_13LabelPositionEPv@Base {QGIS_ABI}
 _ZN3pal14CostCalculator22addObstacleCostPenaltyEPNS_13LabelPositionEPNS_8PointSetE@Base {QGIS_ABI}
 _ZN3pal14CostCalculator23finalizeCandidatesCostsEPNS_5FeatsEiPNS_5RTreeIPNS_8PointSetEdLi2EdLi8ELi4EEEPdS8_@Base {QGIS_ABI}
 _ZN3pal14CostCalculator24setPolygonCandidatesCostEiPPNS_13LabelPositionEiPNS_5RTreeIPNS_8PointSetEdLi2EdLi8ELi4EEEPdS9_@Base {QGIS_ABI}
 _ZN3pal14CostCalculator27setCandidateCostFromPolygonEPNS_13LabelPositionEPNS_5RTreeIPNS_8PointSetEdLi2EdLi8ELi4EEEPdS8_@Base {QGIS_ABI}
 _ZN3pal14extractXYCoordEPNS_4FeatE@Base {QGIS_ABI}
 _ZN3pal14ptrFeatCompareEPNS_4FeatES1_@Base {QGIS_ABI}
 _ZN3pal14ptrLPosCompareEPNS_13LabelPositionES1_@Base {QGIS_ABI}
 _ZN3pal14ptrPSetCompareEPNS_8PointSetES1_@Base {QGIS_ABI}
 _ZN3pal14reorderPolygonEiPdS0_@Base {QGIS_ABI}
 _ZN3pal15isSegIntersectsEdddddddd@Base {QGIS_ABI}
 _ZN3pal15ptrFeatsCompareEPNS_5FeatsES1_@Base {QGIS_ABI}
 _ZN3pal15ptrFeatsCompareEPNS_6_featsES1_@Base {QGIS_ABI}
 _ZN3pal15releaseCallbackEPNS_8PointSetEPv@Base {QGIS_ABI}
 _ZN3pal15subPartCallbackEPNS_13LabelPositionEPv@Base {QGIS_ABI}
 _ZN3pal16hashEntryCompareIPNS_10LinkedListIPNS_11FeaturePartEEEEEbPNS_14HashTableEntryIT_EES9_@Base {QGIS_ABI}
 _ZN3pal16hashEntryCompareIPNS_4CellIPNS_7FeatureEEEEEbPNS_14HashTableEntryIT_EES9_@Base {QGIS_ABI}
 _ZN3pal16hashEntryCompareIPNS_7FeatureEEEbPNS_14HashTableEntryIT_EES6_@Base {QGIS_ABI}
 _ZN3pal16isPointInPolygonEiPdS0_dd@Base {QGIS_ABI}
 _ZN3pal16obstacleCallbackEPNS_8PointSetEPv@Base {QGIS_ABI}
 _ZN3pal17InternalException15UnknownGeometryD0Ev@Base {QGIS_ABI}
 _ZN3pal17InternalException15UnknownGeometryD1Ev@Base {QGIS_ABI}
 _ZN3pal17InternalException4FullD0Ev@Base {QGIS_ABI}
 _ZN3pal17InternalException4FullD1Ev@Base {QGIS_ABI}
 _ZN3pal17InternalException5EmptyD0Ev@Base {QGIS_ABI}
 _ZN3pal17InternalException5EmptyD1Ev@Base {QGIS_ABI}
 _ZN3pal17dist_pointToLabelEddPNS_13LabelPositionE@Base {QGIS_ABI}
 _ZN3pal17filteringCallbackEPNS_8PointSetEPv@Base {QGIS_ABI}
 _ZN3pal17ptrFeatureCompareEPNS_7FeatureES1_@Base {QGIS_ABI}
 _ZN3pal17releaseAllInIndexEPNS_5RTreeIPNS_8PointSetEdLi2EdLi8ELi4EEE@Base {QGIS_ABI}
 _ZN3pal18ptrCrossingCompareEPNS_6_crossES1_@Base {QGIS_ABI}
 _ZN3pal19extractFeatCallbackEPNS_11FeaturePartEPv@Base {QGIS_ABI}
 _ZN3pal19extractFeatCallbackEPNS_7FeatureEPv@Base {QGIS_ABI}
 _ZN3pal20countOverlapCallbackEPNS_13LabelPositionEPv@Base {QGIS_ABI}
 _ZN3pal20updateCandidatesCostEPNS_13LabelPositionEPv@Base {QGIS_ABI}
 _ZN3pal21PolygonCostCalculator11updatePointEPNS_8PointSetE@Base {QGIS_ABI}
 _ZN3pal21PolygonCostCalculator14updateLinePolyEPNS_8PointSetE@Base {QGIS_ABI}
 _ZN3pal21PolygonCostCalculator6updateEPNS_8PointSetE@Base {QGIS_ABI}
 _ZN3pal21PolygonCostCalculator7getCostEv@Base {QGIS_ABI}
 _ZN3pal21PolygonCostCalculator8getLabelEv@Base {QGIS_ABI}
 _ZN3pal21PolygonCostCalculatorC1EPNS_13LabelPositionE@Base {QGIS_ABI}
 _ZN3pal21PolygonCostCalculatorC2EPNS_13LabelPositionE@Base {QGIS_ABI}
 _ZN3pal21ptrFeaturePartCompareEPNS_11FeaturePartES1_@Base {QGIS_ABI}
 _ZN3pal21removeOverlapCallbackEPNS_13LabelPositionEPv@Base {QGIS_ABI}
 _ZN3pal22computeSegIntersectionEddddddddPdS0_@Base {QGIS_ABI}
 _ZN3pal23computeLineIntersectionEddddddddPdS0_@Base {QGIS_ABI}
 _ZN3pal24countFullOverlapCallbackEPNS_13LabelPositionEPv@Base {QGIS_ABI}
 _ZN3pal25computeSegIntersectionExtEddddddddddddPdS0_@Base {QGIS_ABI}
 _ZN3pal26computeLineSegIntersectionEddddddddPdS0_@Base {QGIS_ABI}
 _ZN3pal26findLineCircleIntersectionEdddddddRdS0_@Base {QGIS_ABI}
 _ZN3pal26pruneLabelPositionCallbackEPNS_13LabelPositionEPv@Base {QGIS_ABI}
 _ZN3pal3Pal10getMapUnitEv@Base {QGIS_ABI}
 _ZN3pal3Pal10setMapUnitENS_6_UnitsE@Base {QGIS_ABI}
 _ZN3pal3Pal11removeLayerEPNS_5LayerE@Base {QGIS_ABI}
 _ZN3pal3Pal12setPopmusicREi@Base {QGIS_ABI}
 _ZN3pal3Pal12solveProblemEPNS_7ProblemEb@Base {QGIS_ABI}
 _ZN3pal3Pal13setEjChainDegEi@Base {QGIS_ABI}
 _ZN3pal3Pal14extractProblemEdPd@Base {QGIS_ABI}
 _ZN3pal3Pal15setCandListSizeEd@Base {QGIS_ABI}
 _ZN3pal3Pal6getDpiEv@Base {QGIS_ABI}
 _ZN3pal3Pal6setDpiEi@Base {QGIS_ABI}
 _ZN3pal3Pal7extractEiPPcPddddddPSt14basic_ofstreamIcSt11char_traitsIcEE@Base {QGIS_ABI}
 _ZN3pal3Pal8addLayerEPKcddNS_12_arrangementENS_6_UnitsEdbbb@Base {QGIS_ABI}
 _ZN3pal3Pal8getLayerEPKc@Base {QGIS_ABI}
 _ZN3pal3Pal8getLinePEv@Base {QGIS_ABI}
 _ZN3pal3Pal8getMaxItEv@Base {QGIS_ABI}
 _ZN3pal3Pal8getMinItEv@Base {QGIS_ABI}
 _ZN3pal3Pal8getPolyPEv@Base {QGIS_ABI}
 _ZN3pal3Pal8labellerEdPdPPNS_7PalStatEb@Base {QGIS_ABI}
 _ZN3pal3Pal8labellerEiPPcPddS3_PPNS_7PalStatEb@Base {QGIS_ABI}
 _ZN3pal3Pal8setLinePEi@Base {QGIS_ABI}
 _ZN3pal3Pal8setMaxItEi@Base {QGIS_ABI}
 _ZN3pal3Pal8setMinItEi@Base {QGIS_ABI}
 _ZN3pal3Pal8setPolyPEi@Base {QGIS_ABI}
 _ZN3pal3Pal9getLayersEv@Base {QGIS_ABI}
 _ZN3pal3Pal9getPointPEv@Base {QGIS_ABI}
 _ZN3pal3Pal9getSearchEv@Base {QGIS_ABI}
 _ZN3pal3Pal9setPointPEi@Base {QGIS_ABI}
 _ZN3pal3Pal9setSearchENS_13_searchMethodE@Base {QGIS_ABI}
 _ZN3pal3Pal9setTenureEi@Base {QGIS_ABI}
 _ZN3pal3PalC1Ev@Base {QGIS_ABI}
 _ZN3pal3PalC2Ev@Base {QGIS_ABI}
 _ZN3pal3PalD1Ev@Base {QGIS_ABI}
 _ZN3pal3PalD2Ev@Base {QGIS_ABI}
 _ZN3pal4sortEPPviPFbS0_S0_E@Base {QGIS_ABI}
 _ZN3pal4sortEPdPiS1_i@Base {QGIS_ABI}
 _ZN3pal5Label11getGeometryEv@Base {QGIS_ABI}
 _ZN3pal5Label11getRotationEv@Base {QGIS_ABI}
 _ZN3pal5Label12getFeatureIdEv@Base {QGIS_ABI}
 _ZN3pal5Label12getLayerNameEv@Base {QGIS_ABI}
 _ZN3pal5Label4getXEj@Base {QGIS_ABI}
 _ZN3pal5Label4getXEm@Base {QGIS_ABI}
 _ZN3pal5Label4getYEj@Base {QGIS_ABI}
 _ZN3pal5Label4getYEm@Base {QGIS_ABI}
 _ZN3pal5Label8getOrigXEv@Base {QGIS_ABI}
 _ZN3pal5Label8getOrigYEv@Base {QGIS_ABI}
 _ZN3pal5LabelC1EPdS1_dPKcS3_PNS_11PalGeometryE@Base {QGIS_ABI}
 _ZN3pal5LabelC2EPdS1_dPKcS3_PNS_11PalGeometryE@Base {QGIS_ABI}
 _ZN3pal5LabelD1Ev@Base {QGIS_ABI}
 _ZN3pal5LabelD2Ev@Base {QGIS_ABI}
 _ZN3pal5Layer10getFeatureEPKc@Base {QGIS_ABI}
 _ZN3pal5Layer10isObstacleEv@Base {QGIS_ABI}
 _ZN3pal5Layer10setToLabelEb@Base {QGIS_ABI}
 _ZN3pal5Layer11getMaxScaleEv@Base {QGIS_ABI}
 _ZN3pal5Layer11getMinScaleEv@Base {QGIS_ABI}
 _ZN3pal5Layer11getPriorityEv@Base {QGIS_ABI}
 _ZN3pal5Layer11setMaxScaleEd@Base {QGIS_ABI}
 _ZN3pal5Layer11setMinScaleEd@Base {QGIS_ABI}
 _ZN3pal5Layer11setObstacleEb@Base {QGIS_ABI}
 _ZN3pal5Layer11setPriorityEd@Base {QGIS_ABI}
 _ZN3pal5Layer12getFeatureItEPKc@Base {QGIS_ABI}
 _ZN3pal5Layer12getLabelUnitEv@Base {QGIS_ABI}
 _ZN3pal5Layer12isScaleValidEd@Base {QGIS_ABI}
 _ZN3pal5Layer12setLabelUnitENS_6_UnitsE@Base {QGIS_ABI}
 _ZN3pal5Layer13getNbFeaturesEv@Base {QGIS_ABI}
 _ZN3pal5Layer14addFeaturePartEPNS_11FeaturePartEPKc@Base {QGIS_ABI}
 _ZN3pal5Layer14getArrangementEv@Base {QGIS_ABI}
 _ZN3pal5Layer14setArrangementENS_12_arrangementE@Base {QGIS_ABI}
 _ZN3pal5Layer15registerFeatureEPKcPNS_11PalGeometryEdd@Base {QGIS_ABI}
 _ZN3pal5Layer15registerFeatureEPKcPNS_11PalGeometryEddS2_@Base {QGIS_ABI}
 _ZN3pal5Layer19getFeatureDistlabelEPKc@Base {QGIS_ABI}
 _ZN3pal5Layer19setFeatureDistlabelEPKci@Base {QGIS_ABI}
 _ZN3pal5Layer19setFeatureLabelSizeEPKcdd@Base {QGIS_ABI}
 _ZN3pal5Layer20getFeatureLabelWidthEPKc@Base {QGIS_ABI}
 _ZN3pal5Layer21getFeatureLabelHeightEPKc@Base {QGIS_ABI}
 _ZN3pal5Layer21joinConnectedFeaturesEv@Base {QGIS_ABI}
 _ZN3pal5Layer6renameEPc@Base {QGIS_ABI}
 _ZN3pal5Layer7getNameEv@Base {QGIS_ABI}
 _ZN3pal5Layer8isActiveEv@Base {QGIS_ABI}
 _ZN3pal5Layer9isToLabelEv@Base {QGIS_ABI}
 _ZN3pal5Layer9setActiveEb@Base {QGIS_ABI}
 _ZN3pal5LayerC1EPKcddNS_12_arrangementENS_6_UnitsEdbbbPNS_3PalE@Base {QGIS_ABI}
 _ZN3pal5LayerC2EPKcddNS_12_arrangementENS_6_UnitsEdbbbPNS_3PalE@Base {QGIS_ABI}
 _ZN3pal5LayerD0Ev@Base {QGIS_ABI}
 _ZN3pal5LayerD1Ev@Base {QGIS_ABI}
 _ZN3pal5LayerD2Ev@Base {QGIS_ABI}
 _ZN3pal5RTreeIPNS_11FeaturePartEdLi2EdLi8ELi4EE10InsertRectEPNS3_4RectERKS2_PPNS3_4NodeEi@Base {QGIS_ABI}
 _ZN3pal5RTreeIPNS_11FeaturePartEdLi2EdLi8ELi4EE10PickBranchEPNS3_4RectEPNS3_4NodeE@Base {QGIS_ABI}
 _ZN3pal5RTreeIPNS_11FeaturePartEdLi2EdLi8ELi4EE10RemoveRectEPNS3_4RectERKS2_PPNS3_4NodeE@Base {QGIS_ABI}
 _ZN3pal5RTreeIPNS_11FeaturePartEdLi2EdLi8ELi4EE11CombineRectEPNS3_4RectES5_@Base {QGIS_ABI}
 _ZN3pal5RTreeIPNS_11FeaturePartEdLi2EdLi8ELi4EE11GetBranchesEPNS3_4NodeEPNS3_6BranchEPNS3_13PartitionVarsE@Base {QGIS_ABI}
 _ZN3pal5RTreeIPNS_11FeaturePartEdLi2EdLi8ELi4EE11InitParVarsEPNS3_13PartitionVarsEii@Base {QGIS_ABI}
 _ZN3pal5RTreeIPNS_11FeaturePartEdLi2EdLi8ELi4EE12RemoveAllRecEPNS3_4NodeE@Base {QGIS_ABI}
 _ZN3pal5RTreeIPNS_11FeaturePartEdLi2EdLi8ELi4EE13InsertRectRecEPNS3_4RectERKS2_PNS3_4NodeEPS9_i@Base {QGIS_ABI}
 _ZN3pal5RTreeIPNS_11FeaturePartEdLi2EdLi8ELi4EE13RemoveRectRecEPNS3_4RectERKS2_PNS3_4NodeEPPNS3_8ListNodeE@Base {QGIS_ABI}
 _ZN3pal5RTreeIPNS_11FeaturePartEdLi2EdLi8ELi4EE14CalcRectVolumeEPNS3_4RectE@Base {QGIS_ABI}
 _ZN3pal5RTreeIPNS_11FeaturePartEdLi2EdLi8ELi4EE15ChoosePartitionEPNS3_13PartitionVarsEi@Base {QGIS_ABI}
 _ZN3pal5RTreeIPNS_11FeaturePartEdLi2EdLi8ELi4EE16DisconnectBranchEPNS3_4NodeEi@Base {QGIS_ABI}
 _ZN3pal5RTreeIPNS_11FeaturePartEdLi2EdLi8ELi4EE19RectSphericalVolumeEPNS3_4RectE@Base {QGIS_ABI}
 _ZN3pal5RTreeIPNS_11FeaturePartEdLi2EdLi8ELi4EE6SearchEPNS3_4NodeEPNS3_4RectERiPFbS2_PvES9_@Base {QGIS_ABI}
 _ZN3pal5RTreeIPNS_11FeaturePartEdLi2EdLi8ELi4EE7OverlapEPNS3_4RectES5_@Base {QGIS_ABI}
 _ZN3pal5RTreeIPNS_11FeaturePartEdLi2EdLi8ELi4EE8ClassifyEiiPNS3_13PartitionVarsE@Base {QGIS_ABI}
 _ZN3pal5RTreeIPNS_11FeaturePartEdLi2EdLi8ELi4EE8FreeNodeEPNS3_4NodeE@Base {QGIS_ABI}
 _ZN3pal5RTreeIPNS_11FeaturePartEdLi2EdLi8ELi4EE9AddBranchEPNS3_6BranchEPNS3_4NodeEPS7_@Base {QGIS_ABI}
 _ZN3pal5RTreeIPNS_11FeaturePartEdLi2EdLi8ELi4EE9LoadNodesEPNS3_4NodeES5_PNS3_13PartitionVarsE@Base {QGIS_ABI}
 _ZN3pal5RTreeIPNS_11FeaturePartEdLi2EdLi8ELi4EE9NodeCoverEPNS3_4NodeE@Base {QGIS_ABI}
 _ZN3pal5RTreeIPNS_11FeaturePartEdLi2EdLi8ELi4EE9PickSeedsEPNS3_13PartitionVarsE@Base {QGIS_ABI}
 _ZN3pal5RTreeIPNS_11FeaturePartEdLi2EdLi8ELi4EE9SplitNodeEPNS3_4NodeEPNS3_6BranchEPS5_@Base {QGIS_ABI}
 _ZN3pal5RTreeIPNS_11FeaturePartEdLi2EdLi8ELi4EED0Ev@Base {QGIS_ABI}
 _ZN3pal5RTreeIPNS_11FeaturePartEdLi2EdLi8ELi4EED1Ev@Base {QGIS_ABI}
 _ZN3pal5RTreeIPNS_13LabelPositionEdLi2EdLi8ELi4EE10InsertRectEPNS3_4RectERKS2_PPNS3_4NodeEi@Base {QGIS_ABI}
 _ZN3pal5RTreeIPNS_13LabelPositionEdLi2EdLi8ELi4EE10PickBranchEPNS3_4RectEPNS3_4NodeE@Base {QGIS_ABI}
 _ZN3pal5RTreeIPNS_13LabelPositionEdLi2EdLi8ELi4EE10RemoveRectEPNS3_4RectERKS2_PPNS3_4NodeE@Base {QGIS_ABI}
 _ZN3pal5RTreeIPNS_13LabelPositionEdLi2EdLi8ELi4EE11CombineRectEPNS3_4RectES5_@Base {QGIS_ABI}
 _ZN3pal5RTreeIPNS_13LabelPositionEdLi2EdLi8ELi4EE11GetBranchesEPNS3_4NodeEPNS3_6BranchEPNS3_13PartitionVarsE@Base {QGIS_ABI}
 _ZN3pal5RTreeIPNS_13LabelPositionEdLi2EdLi8ELi4EE11InitParVarsEPNS3_13PartitionVarsEii@Base {QGIS_ABI}
 _ZN3pal5RTreeIPNS_13LabelPositionEdLi2EdLi8ELi4EE12RemoveAllRecEPNS3_4NodeE@Base {QGIS_ABI}
 _ZN3pal5RTreeIPNS_13LabelPositionEdLi2EdLi8ELi4EE13InsertRectRecEPNS3_4RectERKS2_PNS3_4NodeEPS9_i@Base {QGIS_ABI}
 _ZN3pal5RTreeIPNS_13LabelPositionEdLi2EdLi8ELi4EE13RemoveRectRecEPNS3_4RectERKS2_PNS3_4NodeEPPNS3_8ListNodeE@Base {QGIS_ABI}
 _ZN3pal5RTreeIPNS_13LabelPositionEdLi2EdLi8ELi4EE14CalcRectVolumeEPNS3_4RectE@Base {QGIS_ABI}
 _ZN3pal5RTreeIPNS_13LabelPositionEdLi2EdLi8ELi4EE15ChoosePartitionEPNS3_13PartitionVarsEi@Base {QGIS_ABI}
 _ZN3pal5RTreeIPNS_13LabelPositionEdLi2EdLi8ELi4EE16DisconnectBranchEPNS3_4NodeEi@Base {QGIS_ABI}
 _ZN3pal5RTreeIPNS_13LabelPositionEdLi2EdLi8ELi4EE19RectSphericalVolumeEPNS3_4RectE@Base {QGIS_ABI}
 _ZN3pal5RTreeIPNS_13LabelPositionEdLi2EdLi8ELi4EE6SearchEPKdS5_PFbS2_PvES6_@Base {QGIS_ABI}
 _ZN3pal5RTreeIPNS_13LabelPositionEdLi2EdLi8ELi4EE6SearchEPNS3_4NodeEPNS3_4RectERiPFbS2_PvES9_@Base {QGIS_ABI}
 _ZN3pal5RTreeIPNS_13LabelPositionEdLi2EdLi8ELi4EE7OverlapEPNS3_4RectES5_@Base {QGIS_ABI}
 _ZN3pal5RTreeIPNS_13LabelPositionEdLi2EdLi8ELi4EE8ClassifyEiiPNS3_13PartitionVarsE@Base {QGIS_ABI}
 _ZN3pal5RTreeIPNS_13LabelPositionEdLi2EdLi8ELi4EE8FreeNodeEPNS3_4NodeE@Base {QGIS_ABI}
 _ZN3pal5RTreeIPNS_13LabelPositionEdLi2EdLi8ELi4EE9AddBranchEPNS3_6BranchEPNS3_4NodeEPS7_@Base {QGIS_ABI}
 _ZN3pal5RTreeIPNS_13LabelPositionEdLi2EdLi8ELi4EE9LoadNodesEPNS3_4NodeES5_PNS3_13PartitionVarsE@Base {QGIS_ABI}
 _ZN3pal5RTreeIPNS_13LabelPositionEdLi2EdLi8ELi4EE9NodeCoverEPNS3_4NodeE@Base {QGIS_ABI}
 _ZN3pal5RTreeIPNS_13LabelPositionEdLi2EdLi8ELi4EE9PickSeedsEPNS3_13PartitionVarsE@Base {QGIS_ABI}
 _ZN3pal5RTreeIPNS_13LabelPositionEdLi2EdLi8ELi4EE9SplitNodeEPNS3_4NodeEPNS3_6BranchEPS5_@Base {QGIS_ABI}
 _ZN3pal5RTreeIPNS_13LabelPositionEdLi2EdLi8ELi4EEC1Ev@Base {QGIS_ABI}
 _ZN3pal5RTreeIPNS_13LabelPositionEdLi2EdLi8ELi4EED0Ev@Base {QGIS_ABI}
 _ZN3pal5RTreeIPNS_13LabelPositionEdLi2EdLi8ELi4EED1Ev@Base {QGIS_ABI}
 _ZN3pal5RTreeIPNS_7FeatureEdLi2EdLi8ELi4EE10InsertRectEPNS3_4RectERKS2_PPNS3_4NodeEi@Base {QGIS_ABI}
 _ZN3pal5RTreeIPNS_7FeatureEdLi2EdLi8ELi4EE10PickBranchEPNS3_4RectEPNS3_4NodeE@Base {QGIS_ABI}
 _ZN3pal5RTreeIPNS_7FeatureEdLi2EdLi8ELi4EE11CombineRectEPNS3_4RectES5_@Base {QGIS_ABI}
 _ZN3pal5RTreeIPNS_7FeatureEdLi2EdLi8ELi4EE11GetBranchesEPNS3_4NodeEPNS3_6BranchEPNS3_13PartitionVarsE@Base {QGIS_ABI}
 _ZN3pal5RTreeIPNS_7FeatureEdLi2EdLi8ELi4EE11InitParVarsEPNS3_13PartitionVarsEii@Base {QGIS_ABI}
 _ZN3pal5RTreeIPNS_7FeatureEdLi2EdLi8ELi4EE12RemoveAllRecEPNS3_4NodeE@Base {QGIS_ABI}
 _ZN3pal5RTreeIPNS_7FeatureEdLi2EdLi8ELi4EE13InsertRectRecEPNS3_4RectERKS2_PNS3_4NodeEPS9_i@Base {QGIS_ABI}
 _ZN3pal5RTreeIPNS_7FeatureEdLi2EdLi8ELi4EE15ChoosePartitionEPNS3_13PartitionVarsEi@Base {QGIS_ABI}
 _ZN3pal5RTreeIPNS_7FeatureEdLi2EdLi8ELi4EE19RectSphericalVolumeEPNS3_4RectE@Base {QGIS_ABI}
 _ZN3pal5RTreeIPNS_7FeatureEdLi2EdLi8ELi4EE6SearchEPNS3_4NodeEPNS3_4RectERiPFbS2_PvES9_@Base {QGIS_ABI}
 _ZN3pal5RTreeIPNS_7FeatureEdLi2EdLi8ELi4EE7OverlapEPNS3_4RectES5_@Base {QGIS_ABI}
 _ZN3pal5RTreeIPNS_7FeatureEdLi2EdLi8ELi4EE8ClassifyEiiPNS3_13PartitionVarsE@Base {QGIS_ABI}
 _ZN3pal5RTreeIPNS_7FeatureEdLi2EdLi8ELi4EE8FreeNodeEPNS3_4NodeE@Base {QGIS_ABI}
 _ZN3pal5RTreeIPNS_7FeatureEdLi2EdLi8ELi4EE9AddBranchEPNS3_6BranchEPNS3_4NodeEPS7_@Base {QGIS_ABI}
 _ZN3pal5RTreeIPNS_7FeatureEdLi2EdLi8ELi4EE9LoadNodesEPNS3_4NodeES5_PNS3_13PartitionVarsE@Base {QGIS_ABI}
 _ZN3pal5RTreeIPNS_7FeatureEdLi2EdLi8ELi4EE9NodeCoverEPNS3_4NodeE@Base {QGIS_ABI}
 _ZN3pal5RTreeIPNS_7FeatureEdLi2EdLi8ELi4EE9PickSeedsEPNS3_13PartitionVarsE@Base {QGIS_ABI}
 _ZN3pal5RTreeIPNS_7FeatureEdLi2EdLi8ELi4EE9SplitNodeEPNS3_4NodeEPNS3_6BranchEPS5_@Base {QGIS_ABI}
 _ZN3pal5RTreeIPNS_7FeatureEdLi2EdLi8ELi4EED0Ev@Base {QGIS_ABI}
 _ZN3pal5RTreeIPNS_7FeatureEdLi2EdLi8ELi4EED1Ev@Base {QGIS_ABI}
 _ZN3pal5RTreeIPNS_8PointSetEdLi2EdLi8ELi4EE10InsertRectEPNS3_4RectERKS2_PPNS3_4NodeEi@Base {QGIS_ABI}
 _ZN3pal5RTreeIPNS_8PointSetEdLi2EdLi8ELi4EE10PickBranchEPNS3_4RectEPNS3_4NodeE@Base {QGIS_ABI}
 _ZN3pal5RTreeIPNS_8PointSetEdLi2EdLi8ELi4EE11CombineRectEPNS3_4RectES5_@Base {QGIS_ABI}
 _ZN3pal5RTreeIPNS_8PointSetEdLi2EdLi8ELi4EE11GetBranchesEPNS3_4NodeEPNS3_6BranchEPNS3_13PartitionVarsE@Base {QGIS_ABI}
 _ZN3pal5RTreeIPNS_8PointSetEdLi2EdLi8ELi4EE11InitParVarsEPNS3_13PartitionVarsEii@Base {QGIS_ABI}
 _ZN3pal5RTreeIPNS_8PointSetEdLi2EdLi8ELi4EE12RemoveAllRecEPNS3_4NodeE@Base {QGIS_ABI}
 _ZN3pal5RTreeIPNS_8PointSetEdLi2EdLi8ELi4EE13InsertRectRecEPNS3_4RectERKS2_PNS3_4NodeEPS9_i@Base {QGIS_ABI}
 _ZN3pal5RTreeIPNS_8PointSetEdLi2EdLi8ELi4EE14CalcRectVolumeEPNS3_4RectE@Base {QGIS_ABI}
 _ZN3pal5RTreeIPNS_8PointSetEdLi2EdLi8ELi4EE15ChoosePartitionEPNS3_13PartitionVarsEi@Base {QGIS_ABI}
 _ZN3pal5RTreeIPNS_8PointSetEdLi2EdLi8ELi4EE19RectSphericalVolumeEPNS3_4RectE@Base {QGIS_ABI}
 _ZN3pal5RTreeIPNS_8PointSetEdLi2EdLi8ELi4EE6SearchEPNS3_4NodeEPNS3_4RectERiPFbS2_PvES9_@Base {QGIS_ABI}
 _ZN3pal5RTreeIPNS_8PointSetEdLi2EdLi8ELi4EE7OverlapEPNS3_4RectES5_@Base {QGIS_ABI}
 _ZN3pal5RTreeIPNS_8PointSetEdLi2EdLi8ELi4EE8ClassifyEiiPNS3_13PartitionVarsE@Base {QGIS_ABI}
 _ZN3pal5RTreeIPNS_8PointSetEdLi2EdLi8ELi4EE8FreeNodeEPNS3_4NodeE@Base {QGIS_ABI}
 _ZN3pal5RTreeIPNS_8PointSetEdLi2EdLi8ELi4EE9AddBranchEPNS3_6BranchEPNS3_4NodeEPS7_@Base {QGIS_ABI}
 _ZN3pal5RTreeIPNS_8PointSetEdLi2EdLi8ELi4EE9LoadNodesEPNS3_4NodeES5_PNS3_13PartitionVarsE@Base {QGIS_ABI}
 _ZN3pal5RTreeIPNS_8PointSetEdLi2EdLi8ELi4EE9NodeCoverEPNS3_4NodeE@Base {QGIS_ABI}
 _ZN3pal5RTreeIPNS_8PointSetEdLi2EdLi8ELi4EE9PickSeedsEPNS3_13PartitionVarsE@Base {QGIS_ABI}
 _ZN3pal5RTreeIPNS_8PointSetEdLi2EdLi8ELi4EE9SplitNodeEPNS3_4NodeEPNS3_6BranchEPS5_@Base {QGIS_ABI}
 _ZN3pal5RTreeIPNS_8PointSetEdLi2EdLi8ELi4EED0Ev@Base {QGIS_ABI}
 _ZN3pal5RTreeIPNS_8PointSetEdLi2EdLi8ELi4EED1Ev@Base {QGIS_ABI}
 _ZN3pal5xGrowEPvS0_@Base {QGIS_ABI}
 _ZN3pal5yGrowEPvS0_@Base {QGIS_ABI}
 _ZN3pal6biggerEdd@Base {QGIS_ABI}
 _ZN3pal6tabcpyEiPKiS1_PKdPiS4_Pd@Base {QGIS_ABI}
 _ZN3pal7Feature11deleteCoordEv@Base {QGIS_ABI}
 _ZN3pal7Feature11setPositionEdPPPNS_13LabelPositionEPdS5_PNS_8PointSetEPNS_5RTreeIS2_dLi2EdLi8ELi4EEE@Base {QGIS_ABI}
 _ZN3pal7Feature16fetchCoordinatesEv@Base {QGIS_ABI}
 _ZN3pal7Feature18releaseCoordinatesEv@Base {QGIS_ABI}
 _ZN3pal7Feature18setPositionForLineEdPPPNS_13LabelPositionEPNS_8PointSetEd@Base {QGIS_ABI}
 _ZN3pal7Feature19setPositionForPointEdddPPPNS_13LabelPositionEd@Base {QGIS_ABI}
 _ZN3pal7Feature21setPositionForPolygonEdPPPNS_13LabelPositionEPNS_8PointSetEd@Base {QGIS_ABI}
 _ZN3pal7Feature5printEv@Base {QGIS_ABI}
 _ZN3pal7Feature6getUIDEv@Base {QGIS_ABI}
 _ZN3pal7Feature8getLayerEv@Base {QGIS_ABI}
 _ZN3pal7FeatureC1EPNS_4FeatEPNS_5LayerEiiPNS_11PalGeometryE@Base {QGIS_ABI}
 _ZN3pal7FeatureC1EPNS_5LayerEPKcPNS_11PalGeometryEdd@Base {QGIS_ABI}
 _ZN3pal7FeatureC2EPNS_4FeatEPNS_5LayerEiiPNS_11PalGeometryE@Base {QGIS_ABI}
 _ZN3pal7FeatureC2EPNS_5LayerEPKcPNS_11PalGeometryEdd@Base {QGIS_ABI}
 _ZN3pal7FeatureD0Ev@Base {QGIS_ABI}
 _ZN3pal7FeatureD1Ev@Base {QGIS_ABI}
 _ZN3pal7FeatureD2Ev@Base {QGIS_ABI}
 _ZN3pal7PalStat11getNbLayersEv@Base {QGIS_ABI}
 _ZN3pal7PalStat12getLayerNameEi@Base {QGIS_ABI}
 _ZN3pal7PalStat12getNbObjectsEv@Base {QGIS_ABI}
 _ZN3pal7PalStat17getLayerNbObjectsEi@Base {QGIS_ABI}
 _ZN3pal7PalStat20getNbLabelledObjectsEv@Base {QGIS_ABI}
 _ZN3pal7PalStat25getLayerNbLabelledObjectsEi@Base {QGIS_ABI}
 _ZN3pal7PalStatC1Ev@Base {QGIS_ABI}
 _ZN3pal7PalStatC2Ev@Base {QGIS_ABI}
 _ZN3pal7PalStatD1Ev@Base {QGIS_ABI}
 _ZN3pal7PalStatD2Ev@Base {QGIS_ABI}
 _ZN3pal7Problem11getSolutionEb@Base {QGIS_ABI}
 _ZN3pal7Problem12chain_searchEv@Base {QGIS_ABI}
 _ZN3pal7Problem13init_sol_falpEv@Base {QGIS_ABI}
 _ZN3pal7Problem13popmusic_tabuEPNS_8_subpartE@Base {QGIS_ABI}
 _ZN3pal7Problem13solution_costEv@Base {QGIS_ABI}
 _ZN3pal7Problem14check_solutionEv@Base {QGIS_ABI}
 _ZN3pal7Problem14init_sol_emptyEv@Base {QGIS_ABI}
 _ZN3pal7Problem14popmusic_chainEPNS_8_subpartE@Base {QGIS_ABI}
 _ZN3pal7Problem17post_optimizationEv@Base {QGIS_ABI}
 _ZN3pal7Problem19popmusic_tabu_chainEPNS_8_subpartE@Base {QGIS_ABI}
 _ZN3pal7Problem20compute_feature_costEPNS_8_subpartEiiPi@Base {QGIS_ABI}
 _ZN3pal7Problem24compute_subsolution_costEPNS_8_subpartEPiS3_@Base {QGIS_ABI}
 _ZN3pal7Problem5chainEPNS_8_subpartEi@Base {QGIS_ABI}
 _ZN3pal7Problem5chainEi@Base {QGIS_ABI}
 _ZN3pal7Problem6reduceEv@Base {QGIS_ABI}
 _ZN3pal7Problem7subPartEiiPi@Base {QGIS_ABI}
 _ZN3pal7Problem8getStatsEv@Base {QGIS_ABI}
 _ZN3pal7Problem8popmusicEv@Base {QGIS_ABI}
 _ZN3pal7ProblemC1Ev@Base {QGIS_ABI}
 _ZN3pal7ProblemC2Ev@Base {QGIS_ABI}
 _ZN3pal7ProblemD1Ev@Base {QGIS_ABI}
 _ZN3pal7ProblemD2Ev@Base {QGIS_ABI}
 _ZN3pal7smallerEdd@Base {QGIS_ABI}
 _ZN3pal7unmultiEP10GEOSGeom_t@Base {QGIS_ABI}
 _ZN3pal7xShrinkEPvS0_@Base {QGIS_ABI}
 _ZN3pal7yShrinkEPvS0_@Base {QGIS_ABI}
 _ZN3pal8PointSet10reduceLineEPS0_PNS_10LinkedListIS1_EEPdS5_@Base {QGIS_ABI}
 _ZN3pal8PointSet11extractPathEiiiPdS1_PNS_6_crossES3_i@Base {QGIS_ABI}
 _ZN3pal8PointSet11getCentroidERdS1_@Base {QGIS_ABI}
 _ZN3pal8PointSet12deleteCoordsEv@Base {QGIS_ABI}
 _ZN3pal8PointSet12extractShapeEiiiiidd@Base {QGIS_ABI}
 _ZN3pal8PointSet13reducePolygonEPS0_PNS_10LinkedListIS1_EEPdS5_@Base {QGIS_ABI}
 _ZN3pal8PointSet13splitPolygonsEPNS_10LinkedListIPS0_EES4_ddPc@Base {QGIS_ABI}
 _ZN3pal8PointSet18compute_chull_bboxEv@Base {QGIS_ABI}
 _ZN3pal8PointSet29createProblemSpecificPointSetEPdS1_Pb@Base {QGIS_ABI}
 _ZN3pal8PointSet29createProblemSpecificPointSetEPdS1_PbS2_@Base {QGIS_ABI}
 _ZN3pal8PointSet7getDistEddPdS1_@Base {QGIS_ABI}
 _ZN3pal8PointSet7getPathEiiPi@Base {QGIS_ABI}
 _ZN3pal8PointSetC1ERS0_@Base {QGIS_ABI}
 _ZN3pal8PointSetC1Edd@Base {QGIS_ABI}
 _ZN3pal8PointSetC1EiPdS1_@Base {QGIS_ABI}
 _ZN3pal8PointSetC1Ev@Base {QGIS_ABI}
 _ZN3pal8PointSetC2ERS0_@Base {QGIS_ABI}
 _ZN3pal8PointSetC2Edd@Base {QGIS_ABI}
 _ZN3pal8PointSetC2EiPdS1_@Base {QGIS_ABI}
 _ZN3pal8PointSetC2Ev@Base {QGIS_ABI}
 _ZN3pal8PointSetD0Ev@Base {QGIS_ABI}
 _ZN3pal8PointSetD1Ev@Base {QGIS_ABI}
 _ZN3pal8PointSetD2Ev@Base {QGIS_ABI}
 _ZN3pal8costGrowEPvS0_@Base {QGIS_ABI}
 _ZN3pal8heapsortEPiS0_PKdi@Base {QGIS_ABI}
 _ZN3pal9HashTableIPNS_10LinkedListIPNS_11FeaturePartEEEE10insertItemEPKcS5_@Base {QGIS_ABI}
 _ZN3pal9HashTableIPNS_10LinkedListIPNS_11FeaturePartEEEE4findEPKc@Base {QGIS_ABI}
 _ZN3pal9HashTableIPNS_10LinkedListIPNS_11FeaturePartEEEED1Ev@Base {QGIS_ABI}
 _ZN3pal9HashTableIPNS_4CellIPNS_7FeatureEEEE10insertItemEPKcS5_@Base {QGIS_ABI}
 _ZN3pal9HashTableIPNS_4CellIPNS_7FeatureEEEE4findEPKc@Base {QGIS_ABI}
 _ZN3pal9HashTableIPNS_4CellIPNS_7FeatureEEEED1Ev@Base {QGIS_ABI}
 _ZN3pal9HashTableIPNS_7FeatureEE10insertItemEPKcS2_@Base {QGIS_ABI}
 _ZN3pal9HashTableIPNS_7FeatureEE4findEPKc@Base {QGIS_ABI}
 _ZN3pal9HashTableIPNS_7FeatureEED1Ev@Base {QGIS_ABI}
 _ZN3pal9geosErrorEPKcz@Base {QGIS_ABI}
 _ZN3pal9heapsort2EPiPdi@Base {QGIS_ABI}
 _ZN3pal9ptrGeomEqEPK10GEOSGeom_tS2_@Base {QGIS_ABI}
 _ZN3pal9splitGeomEP10GEOSGeom_tPKc@Base {QGIS_ABI}
 _ZN4QGis12QGIS_VERSIONE@Base {QGIS_ABI}
 _ZN4QGis16QGIS_SVN_VERSIONE@Base {QGIS_ABI}
 _ZN4QGis16QGIS_VERSION_INTE@Base {QGIS_ABI}
 _ZN4QGis16qgisFeatureTypesE@Base {QGIS_ABI}
 _ZN4QGis17QGIS_RELEASE_NAMEE@Base {QGIS_ABI}
 _ZN4QGis22qgisVectorGeometryTypeE@Base {QGIS_ABI}
 _ZN4QGis23DEFAULT_IDENTIFY_RADIUSE@Base {QGIS_ABI}
 _ZN4QMapI7QString21QgsRendererV2MetadataE11node_createEP8QMapDataPPNS3_4NodeERKS0_RKS1_@Base {QGIS_ABI}
 _ZN4QMapI7QString21QgsRendererV2MetadataE6removeERKS0_@Base {QGIS_ABI}
 _ZN4QMapI7QString21QgsRendererV2MetadataE8freeDataEP8QMapData@Base {QGIS_ABI}
 _ZN4QMapI7QString24QgsSymbolLayerV2MetadataE11node_createEP8QMapDataPPNS3_4NodeERKS0_RKS1_@Base {QGIS_ABI}
 _ZN4QMapI7QString24QgsSymbolLayerV2MetadataE8freeDataEP8QMapData@Base {QGIS_ABI}
 _ZN4QMapI7QString5QPairIS0_S0_EE11node_createEP8QMapDataPPNS4_4NodeERKS0_RKS2_@Base {QGIS_ABI}
 _ZN4QMapI7QString5QPairIS0_S0_EE8freeDataEP8QMapData@Base {QGIS_ABI}
 _ZN4QMapI7QString5QPairIS0_S0_EED1Ev@Base {QGIS_ABI}
 _ZN4QMapI7QString5QPairIS0_S0_EEixERKS0_@Base {QGIS_ABI}
 _ZN4QMapI7QString8QVariantE11node_createEP8QMapDataPPNS3_4NodeERKS0_RKS1_@Base {QGIS_ABI}
 _ZN4QMapI7QString8QVariantE13detach_helperEv@Base {QGIS_ABI}
 _ZN4QMapI7QString8QVariantE6removeERKS0_@Base {QGIS_ABI}
 _ZN4QMapI7QString8QVariantE8freeDataEP8QMapData@Base {QGIS_ABI}
 _ZN4QMapI7QString8QVariantED1Ev@Base {QGIS_ABI}
 _ZN4QMapI7QStringN14QgsVectorLayer8EditTypeEE11node_createEP8QMapDataPPNS4_4NodeERKS0_RKS2_@Base {QGIS_ABI}
 _ZN4QMapI7QStringN14QgsVectorLayer8EditTypeEE13detach_helperEv@Base {QGIS_ABI}
 _ZN4QMapI7QStringN14QgsVectorLayer8EditTypeEE8freeDataEP8QMapData@Base {QGIS_ABI}
 _ZN4QMapI7QStringN14QgsVectorLayer8EditTypeEED1Ev@Base {QGIS_ABI}
 _ZN4QMapI7QStringN14QgsVectorLayer9RangeDataEE11node_createEP8QMapDataPPNS4_4NodeERKS0_RKS2_@Base {QGIS_ABI}
 _ZN4QMapI7QStringN14QgsVectorLayer9RangeDataEE8freeDataEP8QMapData@Base {QGIS_ABI}
 _ZN4QMapI7QStringN14QgsVectorLayer9RangeDataEED1Ev@Base {QGIS_ABI}
 _ZN4QMapI7QStringN14QgsVectorLayer9RangeDataEEixERKS0_@Base {QGIS_ABI}
 _ZN4QMapI7QStringN8QVariant4TypeEE8freeDataEP8QMapData@Base {QGIS_ABI}
 _ZN4QMapI7QStringN8QVariant4TypeEED1Ev@Base {QGIS_ABI}
 _ZN4QMapI7QStringP11QgsMapLayerE11node_createEP8QMapDataPPNS4_4NodeERKS0_RKS2_@Base {QGIS_ABI}
 _ZN4QMapI7QStringP11QgsMapLayerE13detach_helperEv@Base {QGIS_ABI}
 _ZN4QMapI7QStringP11QgsMapLayerE6removeERKS0_@Base {QGIS_ABI}
 _ZN4QMapI7QStringP11QgsMapLayerE8freeDataEP8QMapData@Base {QGIS_ABI}
 _ZN4QMapI7QStringP11QgsMapLayerED1Ev@Base {QGIS_ABI}
 _ZN4QMapI7QStringP11QgsMapLayerEixERKS0_@Base {QGIS_ABI}
 _ZN4QMapI7QStringP11QgsSymbolV2E11node_createEP8QMapDataPPNS4_4NodeERKS0_RKS2_@Base {QGIS_ABI}
 _ZN4QMapI7QStringP11QgsSymbolV2E13detach_helperEv@Base {QGIS_ABI}
 _ZN4QMapI7QStringP11QgsSymbolV2E4takeERKS0_@Base {QGIS_ABI}
 _ZN4QMapI7QStringP11QgsSymbolV2E8freeDataEP8QMapData@Base {QGIS_ABI}
 _ZN4QMapI7QStringP11QgsSymbolV2ED1Ev@Base {QGIS_ABI}
 _ZN4QMapI7QStringP11QgsSymbolV2EaSERKS3_@Base {QGIS_ABI}
 _ZN4QMapI7QStringP20QgsVectorColorRampV2E11node_createEP8QMapDataPPNS4_4NodeERKS0_RKS2_@Base {QGIS_ABI}
 _ZN4QMapI7QStringP20QgsVectorColorRampV2E13detach_helperEv@Base {QGIS_ABI}
 _ZN4QMapI7QStringP20QgsVectorColorRampV2E4takeERKS0_@Base {QGIS_ABI}
 _ZN4QMapI7QStringP20QgsVectorColorRampV2E8freeDataEP8QMapData@Base {QGIS_ABI}
 _ZN4QMapI7QStringP20QgsVectorColorRampV2ED1Ev@Base {QGIS_ABI}
 _ZN4QMapI7QStringP9QgsSymbolE11node_createEP8QMapDataPPNS4_4NodeERKS0_RKS2_@Base {QGIS_ABI}
 _ZN4QMapI7QStringP9QgsSymbolE13detach_helperEv@Base {QGIS_ABI}
 _ZN4QMapI7QStringP9QgsSymbolE8freeDataEP8QMapData@Base {QGIS_ABI}
 _ZN4QMapI7QStringP9QgsSymbolED1Ev@Base {QGIS_ABI}
 _ZN4QMapI7QStringP9QgsSymbolEixERKS0_@Base {QGIS_ABI}
 _ZN4QMapI7QStringS0_E11node_createEP8QMapDataPPNS2_4NodeERKS0_S8_@Base {QGIS_ABI}
 _ZN4QMapI7QStringS0_E13detach_helperEv@Base {QGIS_ABI}
 _ZN4QMapI7QStringS0_E8freeDataEP8QMapData@Base {QGIS_ABI}
 _ZN4QMapI7QStringS0_ED1Ev@Base {QGIS_ABI}
 _ZN4QMapI7QStringS0_EaSERKS1_@Base {QGIS_ABI}
 _ZN4QMapI7QStringS0_EixERKS0_@Base {QGIS_ABI}
 _ZN4QMapI7QStringS_IS0_8QVariantEE11node_createEP8QMapDataPPNS4_4NodeERKS0_RKS2_@Base {QGIS_ABI}
 _ZN4QMapI7QStringS_IS0_8QVariantEE8freeDataEP8QMapData@Base {QGIS_ABI}
 _ZN4QMapI7QStringS_IS0_8QVariantEED1Ev@Base {QGIS_ABI}
 _ZN4QMapI7QStringiE11node_createEP8QMapDataPPNS2_4NodeERKS0_RKi@Base {QGIS_ABI}
 _ZN4QMapI7QStringiE8freeDataEP8QMapData@Base {QGIS_ABI}
 _ZN4QMapId17QgsSnappingResultE6detachEv@Base {QGIS_ABI}
 _ZN4QMapId6QColorE13detach_helperEv@Base {QGIS_ABI}
 _ZN4QMapId6QColorE6insertERKdRKS0_@Base {QGIS_ABI}
 _ZN4QMapId6QColorED1Ev@Base {QGIS_ABI}
 _ZN4QMapIi11QgsGeometryE11node_createEP8QMapDataPPNS2_4NodeERKiRKS0_@Base {QGIS_ABI}
 _ZN4QMapIi11QgsGeometryE13detach_helperEv@Base {QGIS_ABI}
 _ZN4QMapIi11QgsGeometryE3endEv@Base {QGIS_ABI}
 _ZN4QMapIi11QgsGeometryE4findERKi@Base {QGIS_ABI}
 _ZN4QMapIi11QgsGeometryE4takeERKi@Base {QGIS_ABI}
 _ZN4QMapIi11QgsGeometryE6removeERKi@Base {QGIS_ABI}
 _ZN4QMapIi11QgsGeometryE8freeDataEP8QMapData@Base {QGIS_ABI}
 _ZN4QMapIi11QgsGeometryED1Ev@Base {QGIS_ABI}
 _ZN4QMapIi11QgsGeometryEixERKi@Base {QGIS_ABI}
 _ZN4QMapIi7QStringE13detach_helperEv@Base {QGIS_ABI}
 _ZN4QMapIi7QStringE8freeDataEP8QMapData@Base {QGIS_ABI}
 _ZN4QMapIi7QStringED1Ev@Base {QGIS_ABI}
 _ZN4QMapIi8QVariantE11node_createEP8QMapDataPPNS2_4NodeERKiRKS0_@Base {QGIS_ABI}
 _ZN4QMapIi8QVariantE13detach_helperEv@Base {QGIS_ABI}
 _ZN4QMapIi8QVariantE6removeERKi@Base {QGIS_ABI}
 _ZN4QMapIi8QVariantE8freeDataEP8QMapData@Base {QGIS_ABI}
 _ZN4QMapIi8QVariantED1Ev@Base {QGIS_ABI}
 _ZN4QMapIi8QVariantEixERKi@Base {QGIS_ABI}
 _ZN4QMapIi8QgsFieldE11node_createEP8QMapDataPPNS2_4NodeERKiRKS0_@Base {QGIS_ABI}
 _ZN4QMapIi8QgsFieldE13detach_helperEv@Base {QGIS_ABI}
 _ZN4QMapIi8QgsFieldE6insertERKiRKS0_@Base {QGIS_ABI}
 _ZN4QMapIi8QgsFieldE6removeERKi@Base {QGIS_ABI}
 _ZN4QMapIi8QgsFieldE8freeDataEP8QMapData@Base {QGIS_ABI}
 _ZN4QMapIi8QgsFieldED1Ev@Base {QGIS_ABI}
 _ZN4QMapIi8QgsFieldEixERKi@Base {QGIS_ABI}
 _ZN4QMapIiN14QgsUndoCommand19GeometryChangeEntryEE8freeDataEP8QMapData@Base {QGIS_ABI}
 _ZN4QMapIiN14QgsUndoCommand19GeometryChangeEntryEED1Ev@Base {QGIS_ABI}
 _ZN4QMapIiN14QgsUndoCommand20AttributeChangeEntryEE13detach_helperEv@Base {QGIS_ABI}
 _ZN4QMapIiN14QgsUndoCommand20AttributeChangeEntryEE8freeDataEP8QMapData@Base {QGIS_ABI}
 _ZN4QMapIiP16QgsOverlayObjectE13detach_helperEv@Base {QGIS_ABI}
 _ZN4QMapIiP16QgsOverlayObjectED1Ev@Base {QGIS_ABI}
 _ZN4QMapIiS_Ii8QVariantEE11node_createEP8QMapDataPPNS3_4NodeERKiRKS1_@Base {QGIS_ABI}
 _ZN4QMapIiS_Ii8QVariantEE13detach_helperEv@Base {QGIS_ABI}
 _ZN4QMapIiS_Ii8QVariantEE5clearEv@Base {QGIS_ABI}
 _ZN4QMapIiS_Ii8QVariantEE8freeDataEP8QMapData@Base {QGIS_ABI}
 _ZN4QMapIiS_Ii8QVariantEED1Ev@Base {QGIS_ABI}
 _ZN4QMapIiS_IiN14QgsUndoCommand20AttributeChangeEntryEEE13detach_helperEv@Base {QGIS_ABI}
 _ZN4QMapIiS_IiN14QgsUndoCommand20AttributeChangeEntryEEE8freeDataEP8QMapData@Base {QGIS_ABI}
 _ZN4QMapIiS_IiN14QgsUndoCommand20AttributeChangeEntryEEED1Ev@Base {QGIS_ABI}
 _ZN4QMapIiiE13detach_helperEv@Base {QGIS_ABI}
 _ZN4QMapIiiED1Ev@Base {QGIS_ABI}
 _ZN4QSetI7QStringED1Ev@Base {QGIS_ABI}
 _ZN4QSetIP15QgsComposerItemED1Ev@Base {QGIS_ABI}
 _ZN4QSetIP9QgsSymbolED1Ev@Base {QGIS_ABI}
 _ZN4QSetIiE5beginEv@Base {QGIS_ABI}
 _ZN4QSetIiE5clearEv@Base {QGIS_ABI}
 _ZN4QSetIiE6insertERKi@Base {QGIS_ABI}
 _ZN4QSetIiE6removeERKi@Base {QGIS_ABI}
 _ZN4QSetIiED1Ev@Base {QGIS_ABI}
 _ZN5QHashI7QString15QHashDummyValueE13duplicateNodeEPN9QHashData4NodeEPv@Base {QGIS_ABI}
 _ZN5QHashI7QString15QHashDummyValueE8freeDataEP9QHashData@Base {QGIS_ABI}
 _ZN5QHashI7QStringP11QgsPropertyE13detach_helperEv@Base {QGIS_ABI}
 _ZN5QHashI7QStringP11QgsPropertyE13duplicateNodeEPN9QHashData4NodeEPv@Base {QGIS_ABI}
 _ZN5QHashI7QStringP11QgsPropertyE4takeERKS0_@Base {QGIS_ABI}
 _ZN5QHashI7QStringP11QgsPropertyE8freeDataEP9QHashData@Base {QGIS_ABI}
 _ZN5QHashI7QStringP11QgsPropertyED1Ev@Base {QGIS_ABI}
 _ZN5QHashI7QStringP11QgsSymbolV2E13detach_helperEv@Base {QGIS_ABI}
 _ZN5QHashI7QStringP11QgsSymbolV2E13duplicateNodeEPN9QHashData4NodeEPv@Base {QGIS_ABI}
 _ZN5QHashI7QStringP11QgsSymbolV2E8freeDataEP9QHashData@Base {QGIS_ABI}
 _ZN5QHashI7QStringP11QgsSymbolV2ED1Ev@Base {QGIS_ABI}
 _ZN5QHashIP11QgsSymbolV25QListI10QgsFeatureEE10createNodeEjRKS1_RKS4_PP9QHashNodeIS1_S4_E@Base {QGIS_ABI}
 _ZN5QHashIP11QgsSymbolV25QListI10QgsFeatureEE13duplicateNodeEPN9QHashData4NodeEPv@Base {QGIS_ABI}
 _ZN5QHashIP11QgsSymbolV25QListI10QgsFeatureEE8freeDataEP9QHashData@Base {QGIS_ABI}
 _ZN5QHashIP15QgsComposerItem15QHashDummyValueE13detach_helperEv@Base {QGIS_ABI}
 _ZN5QHashIP15QgsComposerItem15QHashDummyValueE13duplicateNodeEPN9QHashData4NodeEPv@Base {QGIS_ABI}
 _ZN5QHashIP15QgsComposerItem15QHashDummyValueE8freeDataEP9QHashData@Base {QGIS_ABI}
 _ZN5QHashIP9QgsSymbol15QHashDummyValueE13detach_helperEv@Base {QGIS_ABI}
 _ZN5QHashIP9QgsSymbol15QHashDummyValueE13duplicateNodeEPN9QHashData4NodeEPv@Base {QGIS_ABI}
 _ZN5QHashIP9QgsSymbol15QHashDummyValueE8freeDataEP9QHashData@Base {QGIS_ABI}
 _ZN5QHashIi15QHashDummyValueE13detach_helperEv@Base {QGIS_ABI}
 _ZN5QHashIi15QHashDummyValueE13duplicateNodeEPN9QHashData4NodeEPv@Base {QGIS_ABI}
 _ZN5QHashIi15QHashDummyValueE8freeDataEP9QHashData@Base {QGIS_ABI}
 _ZN5QListI10QgsFeatureE13detach_helperEv@Base {QGIS_ABI}
 _ZN5QListI10QgsFeatureE3endEv@Base {QGIS_ABI}
 _ZN5QListI10QgsFeatureE4freeEPN9QListData4DataE@Base {QGIS_ABI}
 _ZN5QListI10QgsFeatureE5beginEv@Base {QGIS_ABI}
 _ZN5QListI10QgsFeatureE5clearEv@Base {QGIS_ABI}
 _ZN5QListI10QgsFeatureE5eraseENS1_8iteratorE@Base {QGIS_ABI}
 _ZN5QListI10QgsFeatureE6appendERKS0_@Base {QGIS_ABI}
 _ZN5QListI10QgsFeatureED1Ev@Base {QGIS_ABI}
 _ZN5QListI10QgsFeatureEaSERKS1_@Base {QGIS_ABI}
 _ZN5QListI16QgsRasterPyramidE13detach_helperEv@Base {QGIS_ABI}
 _ZN5QListI16QgsRasterPyramidE4freeEPN9QListData4DataE@Base {QGIS_ABI}
 _ZN5QListI16QgsRasterPyramidE5clearEv@Base {QGIS_ABI}
 _ZN5QListI16QgsRasterPyramidED1Ev@Base {QGIS_ABI}
 _ZN5QListI17QgsSnappingResultE13detach_helperEv@Base {QGIS_ABI}
 _ZN5QListI17QgsSnappingResultE4freeEPN9QListData4DataE@Base {QGIS_ABI}
 _ZN5QListI17QgsSnappingResultE5clearEv@Base {QGIS_ABI}
 _ZN5QListI17QgsSnappingResultE6appendERKS0_@Base {QGIS_ABI}
 _ZN5QListI17QgsSnappingResultE9push_backERKS0_@Base {QGIS_ABI}
 _ZN5QListI18QgsRasterBandStatsE13detach_helperEv@Base {QGIS_ABI}
 _ZN5QListI18QgsRasterBandStatsE4freeEPN9QListData4DataE@Base {QGIS_ABI}
 _ZN5QListI18QgsRasterBandStatsED1Ev@Base {QGIS_ABI}
 _ZN5QListI18QgsRasterBandStatsEixEi@Base {QGIS_ABI}
 _ZN5QListI18QgsRendererRangeV2E13detach_helperEv@Base {QGIS_ABI}
 _ZN5QListI18QgsRendererRangeV2E4freeEPN9QListData4DataE@Base {QGIS_ABI}
 _ZN5QListI18QgsRendererRangeV2E5clearEv@Base {QGIS_ABI}
 _ZN5QListI18QgsRendererRangeV2E6appendERKS0_@Base {QGIS_ABI}
 _ZN5QListI18QgsRendererRangeV2ED1Ev@Base {QGIS_ABI}
 _ZN5QListI20QgsSymbolV2LevelItemE13detach_helperEv@Base {QGIS_ABI}
 _ZN5QListI20QgsSymbolV2LevelItemE4freeEPN9QListData4DataE@Base {QGIS_ABI}
 _ZN5QListI20QgsSymbolV2LevelItemED1Ev@Base {QGIS_ABI}
 _ZN5QListI21QgsRendererCategoryV2E13detach_helperEv@Base {QGIS_ABI}
 _ZN5QListI21QgsRendererCategoryV2E4freeEPN9QListData4DataE@Base {QGIS_ABI}
 _ZN5QListI21QgsRendererCategoryV2E5clearEv@Base {QGIS_ABI}
 _ZN5QListI21QgsRendererCategoryV2ED1Ev@Base {QGIS_ABI}
 _ZN5QListI22QgsContrastEnhancementE4freeEPN9QListData4DataE@Base {QGIS_ABI}
 _ZN5QListI22QgsContrastEnhancementED1Ev@Base {QGIS_ABI}
 _ZN5QListI5QPairI7QString7QPixmapEE4freeEPN9QListData4DataE@Base {QGIS_ABI}
 _ZN5QListI5QPairI7QString7QPixmapEE6appendERKS3_@Base {QGIS_ABI}
 _ZN5QListI5QPairId6QLineFEE13detach_helperEv@Base {QGIS_ABI}
 _ZN5QListI5QPairId6QLineFEE4freeEPN9QListData4DataE@Base {QGIS_ABI}
 _ZN5QListI5QPairId6QLineFEE5clearEv@Base {QGIS_ABI}
 _ZN5QListI5QPairId6QLineFEED1Ev@Base {QGIS_ABI}
 _ZN5QListI5QPairIddEE13detach_helperEv@Base {QGIS_ABI}
 _ZN5QListI5QPairIddEE4freeEPN9QListData4DataE@Base {QGIS_ABI}
 _ZN5QListI5QPairIddEE5clearEv@Base {QGIS_ABI}
 _ZN5QListI5QPairIddEED1Ev@Base {QGIS_ABI}
 _ZN5QListI6QColorE13detach_helperEv@Base {QGIS_ABI}
 _ZN5QListI6QColorE4freeEPN9QListData4DataE@Base {QGIS_ABI}
 _ZN5QListI6QColorE6appendERKS0_@Base {QGIS_ABI}
 _ZN5QListI6QColorED1Ev@Base {QGIS_ABI}
 _ZN5QListI6QLineFE4freeEPN9QListData4DataE@Base {QGIS_ABI}
 _ZN5QListI6QLineFE6appendERKS0_@Base {QGIS_ABI}
 _ZN5QListI7QPointFE13detach_helperEv@Base {QGIS_ABI}
 _ZN5QListI7QPointFE4freeEPN9QListData4DataE@Base {QGIS_ABI}
 _ZN5QListI7QPointFE5clearEv@Base {QGIS_ABI}
 _ZN5QListI7QPointFED1Ev@Base {QGIS_ABI}
 _ZN5QListI7QStringE13detach_helperEv@Base {QGIS_ABI}
 _ZN5QListI7QStringE4freeEPN9QListData4DataE@Base {QGIS_ABI}
 _ZN5QListI7QStringE5clearEv@Base {QGIS_ABI}
 _ZN5QListI7QStringE5eraseENS1_8iteratorE@Base {QGIS_ABI}
 _ZN5QListI7QStringE6appendERKS0_@Base {QGIS_ABI}
 _ZN5QListI7QStringE6detachEv@Base {QGIS_ABI}
 _ZN5QListI7QStringE6insertEiRKS0_@Base {QGIS_ABI}
 _ZN5QListI7QStringE9removeAllERKS0_@Base {QGIS_ABI}
 _ZN5QListI7QStringED1Ev@Base {QGIS_ABI}
 _ZN5QListI7QStringEixEi@Base {QGIS_ABI}
 _ZN5QListI7QStringEpLERKS1_@Base {QGIS_ABI}
 _ZN5QListI8QDomNodeE13detach_helperEv@Base {QGIS_ABI}
 _ZN5QListI8QDomNodeE4freeEPN9QListData4DataE@Base {QGIS_ABI}
 _ZN5QListI8QDomNodeED1Ev@Base {QGIS_ABI}
 _ZN5QListI8QVariantE13detach_helperEv@Base {QGIS_ABI}
 _ZN5QListI8QVariantE4freeEPN9QListData4DataE@Base {QGIS_ABI}
 _ZN5QListI8QVariantE5clearEv@Base {QGIS_ABI}
 _ZN5QListI8QgsFieldE4freeEPN9QListData4DataE@Base {QGIS_ABI}
 _ZN5QListI8QgsFieldE6appendERKS0_@Base {QGIS_ABI}
 _ZN5QListI8QgsPointE13detach_helperEv@Base {QGIS_ABI}
 _ZN5QListI8QgsPointE4freeEPN9QListData4DataE@Base {QGIS_ABI}
 _ZN5QListI8QgsPointE5clearEv@Base {QGIS_ABI}
 _ZN5QListI8QgsPointE6appendERKS0_@Base {QGIS_ABI}
 _ZN5QListI8QgsPointED1Ev@Base {QGIS_ABI}
 _ZN5QListI9QFileInfoE4freeEPN9QListData4DataE@Base {QGIS_ABI}
 _ZN5QListI9QFileInfoED1Ev@Base {QGIS_ABI}
 _ZN5QListI9QPolygonFE13detach_helperEv@Base {QGIS_ABI}
 _ZN5QListI9QPolygonFE4freeEPN9QListData4DataE@Base {QGIS_ABI}
 _ZN5QListI9QPolygonFED1Ev@Base {QGIS_ABI}
 _ZN5QListI9QgsActionE13detach_helperEv@Base {QGIS_ABI}
 _ZN5QListI9QgsActionE4freeEPN9QListData4DataE@Base {QGIS_ABI}
 _ZN5QListI9QgsActionE5clearEv@Base {QGIS_ABI}
 _ZN5QListIN10QgsSnapper9SnapLayerEE13detach_helperEv@Base {QGIS_ABI}
 _ZN5QListIN10QgsSnapper9SnapLayerEE4freeEPN9QListData4DataE@Base {QGIS_ABI}
 _ZN5QListIN18QgsColorRampShader13ColorRampItemEE13detach_helperEv@Base {QGIS_ABI}
 _ZN5QListIN18QgsColorRampShader13ColorRampItemEE4freeEPN9QListData4DataE@Base {QGIS_ABI}
 _ZN5QListIN18QgsColorRampShader13ColorRampItemEE6appendERKS1_@Base {QGIS_ABI}
 _ZN5QListIN18QgsColorRampShader13ColorRampItemEED1Ev@Base {QGIS_ABI}
 _ZN5QListIN21QgsRasterTransparency26TransparentThreeValuePixelEE13detach_helperEv@Base {QGIS_ABI}
 _ZN5QListIN21QgsRasterTransparency26TransparentThreeValuePixelEE4freeEPN9QListData4DataE@Base {QGIS_ABI}
 _ZN5QListIN21QgsRasterTransparency26TransparentThreeValuePixelEED1Ev@Base {QGIS_ABI}
 _ZN5QListIN21QgsRasterTransparency27TransparentSingleValuePixelEE13detach_helperEv@Base {QGIS_ABI}
 _ZN5QListIN21QgsRasterTransparency27TransparentSingleValuePixelEE4freeEPN9QListData4DataE@Base {QGIS_ABI}
 _ZN5QListIN21QgsRasterTransparency27TransparentSingleValuePixelEED1Ev@Base {QGIS_ABI}
 _ZN5QListIN21QgsVectorDataProvider10NativeTypeEE4freeEPN9QListData4DataE@Base {QGIS_ABI}
 _ZN5QListIN21QgsVectorDataProvider10NativeTypeEED1Ev@Base {QGIS_ABI}
 _ZN5QListIP10GEOSGeom_tE9push_backERKS1_@Base {QGIS_ABI}
 _ZN5QListIP10GEOSGeom_tED1Ev@Base {QGIS_ABI}
 _ZN5QListIP10GEOSGeom_tEixEi@Base {QGIS_ABI}
 _ZN5QListIP11QgsGeometryE13detach_helperEv@Base {QGIS_ABI}
 _ZN5QListIP11QgsGeometryE6appendERKS1_@Base {QGIS_ABI}
 _ZN5QListIP11QgsGeometryED1Ev@Base {QGIS_ABI}
 _ZN5QListIP13QGraphicsItemED1Ev@Base {QGIS_ABI}
 _ZN5QListIP13QGraphicsViewED1Ev@Base {QGIS_ABI}
 _ZN5QListIP14QgsPALGeometryE13detach_helperEv@Base {QGIS_ABI}
 _ZN5QListIP14QgsPALGeometryED1Ev@Base {QGIS_ABI}
 _ZN5QListIP15QgsComposerItemED1Ev@Base {QGIS_ABI}
 _ZN5QListIP16QgsSymbolLayerV2E13detach_helperEv@Base {QGIS_ABI}
 _ZN5QListIP16QgsSymbolLayerV2E6appendERKS1_@Base {QGIS_ABI}
 _ZN5QListIP16QgsSymbolLayerV2ED1Ev@Base {QGIS_ABI}
 _ZN5QListIP16QgsVectorOverlayE13detach_helperEv@Base {QGIS_ABI}
 _ZN5QListIP16QgsVectorOverlayE6detachEv@Base {QGIS_ABI}
 _ZN5QListIP16QgsVectorOverlayED1Ev@Base {QGIS_ABI}
 _ZN5QListIP17QgsSearchTreeNodeE5eraseENS2_8iteratorE@Base {QGIS_ABI}
 _ZN5QListIP17QgsSearchTreeNodeE9removeAllERKS1_@Base {QGIS_ABI}
 _ZN5QListIP17QgsSearchTreeNodeED1Ev@Base {QGIS_ABI}
 _ZN5QListIP9QgsSymbolE13detach_helperEv@Base {QGIS_ABI}
 _ZN5QListIP9QgsSymbolE6appendERKS1_@Base {QGIS_ABI}
 _ZN5QListIP9QgsSymbolE6detachEv@Base {QGIS_ABI}
 _ZN5QListIP9QgsSymbolED1Ev@Base {QGIS_ABI}
 _ZN5QListIPK14QgsComposerMapED1Ev@Base {QGIS_ABI}
 _ZN5QListIS_I20QgsSymbolV2LevelItemEE4freeEPN9QListData4DataE@Base {QGIS_ABI}
 _ZN5QListIdE13detach_helperEv@Base {QGIS_ABI}
 _ZN5QListIdE4freeEPN9QListData4DataE@Base {QGIS_ABI}
 _ZN5QListIdE6appendERKd@Base {QGIS_ABI}
 _ZN5QListIdED1Ev@Base {QGIS_ABI}
 _ZN5QListIiE13detach_helperEv@Base {QGIS_ABI}
 _ZN5QListIiE6appendERKi@Base {QGIS_ABI}
 _ZN5QListIiED1Ev@Base {QGIS_ABI}
 _ZN5QPairI7QString7QPixmapED1Ev@Base {QGIS_ABI}
 _ZN5QPairI7QStringS0_EC1ERKS0_S3_@Base {QGIS_ABI}
 _ZN5QPairI7QStringS0_ED1Ev@Base {QGIS_ABI}
 _ZN5Tools11PointerPoolIN12SpatialIndex5RTree4NodeEE7releaseEPS3_@Base {QGIS_ABI}
 _ZN5Tools11PointerPoolIN12SpatialIndex5RTree4NodeEED1Ev@Base {QGIS_ABI}
 _ZN5Tools11PointerPoolINS_8Geometry5PointEE7releaseEPS2_@Base {QGIS_ABI}
 _ZN5Tools11PointerPoolINS_8Geometry5PointEED1Ev@Base {QGIS_ABI}
 _ZN5Tools11PointerPoolINS_8Geometry6RegionEE7acquireEv@Base {QGIS_ABI}
 _ZN5Tools11PointerPoolINS_8Geometry6RegionEE7releaseEPS2_@Base {QGIS_ABI}
 _ZN5Tools11PointerPoolINS_8Geometry6RegionEED1Ev@Base {QGIS_ABI}
 _ZN5Tools11PoolPointerIN12SpatialIndex5RTree4NodeEE10relinquishEv@Base {QGIS_ABI}
 _ZN5Tools11PoolPointerIN12SpatialIndex5RTree4NodeEE7releaseEv@Base {QGIS_ABI}
 _ZN5Tools11PoolPointerIN12SpatialIndex5RTree4NodeEED1Ev@Base {QGIS_ABI}
 _ZN5Tools11PoolPointerIN12SpatialIndex5RTree4NodeEEaSERKS4_@Base {QGIS_ABI}
 _ZN5Tools11PoolPointerINS_8Geometry5PointEED1Ev@Base {QGIS_ABI}
 _ZN5Tools11PoolPointerINS_8Geometry6RegionEE7releaseEv@Base {QGIS_ABI}
 _ZN5Tools11PoolPointerINS_8Geometry6RegionEED1Ev@Base {QGIS_ABI}
 _ZN5Tools11PoolPointerINS_8Geometry6RegionEEaSERKS3_@Base {QGIS_ABI}
 _ZN5Tools11PropertySet11getPropertyESs@Base {QGIS_ABI}
 _ZN5Tools11PropertySet11setPropertyESsRNS_7VariantE@Base {QGIS_ABI}
 _ZN5Tools11PropertySet14removePropertyESs@Base {QGIS_ABI}
 _ZN5Tools11PropertySet16getByteArraySizeEv@Base {QGIS_ABI}
 _ZN5Tools11PropertySet16storeToByteArrayEPPhRm@Base {QGIS_ABI}
 _ZN5Tools11PropertySet17loadFromByteArrayEPKh@Base {QGIS_ABI}
 _ZN5Tools11PropertySetC1EPKh@Base {QGIS_ABI}
 _ZN5Tools11PropertySetC2EPKh@Base {QGIS_ABI}
 _ZN5Tools11PropertySetD0Ev@Base {QGIS_ABI}
 _ZN5Tools11PropertySetD1Ev@Base {QGIS_ABI}
 _ZN5Tools11toLowerCaseERKSs@Base {QGIS_ABI}
 _ZN5Tools11toUpperCaseERKSs@Base {QGIS_ABI}
 _ZN5Tools12ExternalSort14initializeRunsERSt5dequeINS_12SmartPointerINS_13TemporaryFileEEESaIS4_EE@Base {QGIS_ABI}
 _ZN5Tools12ExternalSort4sizeEv@Base {QGIS_ABI}
 _ZN5Tools12ExternalSort6rewindEv@Base {QGIS_ABI}
 _ZN5Tools12ExternalSort7PQEntryC1EPNS_13ISerializableEPNS_17IObjectComparatorERNS_12SmartPointerINS_13TemporaryFileEEE@Base {QGIS_ABI}
 _ZN5Tools12ExternalSort7PQEntryC2EPNS_13ISerializableEPNS_17IObjectComparatorERNS_12SmartPointerINS_13TemporaryFileEEE@Base {QGIS_ABI}
 _ZN5Tools12ExternalSort7PQEntryD1Ev@Base {QGIS_ABI}
 _ZN5Tools12ExternalSort7PQEntryD2Ev@Base {QGIS_ABI}
 _ZN5Tools12ExternalSort7getNextEv@Base {QGIS_ABI}
 _ZN5Tools12ExternalSort7hasNextEv@Base {QGIS_ABI}
 _ZN5Tools12ExternalSort9mergeRunsEv@Base {QGIS_ABI}
 _ZN5Tools12ExternalSortC1ERNS_13IObjectStreamERNS_17IObjectComparatorEm@Base {QGIS_ABI}
 _ZN5Tools12ExternalSortC1ERNS_13IObjectStreamEm@Base {QGIS_ABI}
 _ZN5Tools12ExternalSortC2ERNS_13IObjectStreamERNS_17IObjectComparatorEm@Base {QGIS_ABI}
 _ZN5Tools12ExternalSortC2ERNS_13IObjectStreamEm@Base {QGIS_ABI}
 _ZN5Tools12ExternalSortD0Ev@Base {QGIS_ABI}
 _ZN5Tools12ExternalSortD1Ev@Base {QGIS_ABI}
 _ZN5Tools12ExternalSortD2Ev@Base {QGIS_ABI}
 _ZN5Tools12SmartPointerIN12SpatialIndex5IDataEE7releaseEv@Base {QGIS_ABI}
 _ZN5Tools12SmartPointerIN12SpatialIndex5IDataEED1Ev@Base {QGIS_ABI}
 _ZN5Tools12SmartPointerIN12SpatialIndex8ICommandEE7releaseEv@Base {QGIS_ABI}
 _ZN5Tools12SmartPointerIN12SpatialIndex8ICommandEED1Ev@Base {QGIS_ABI}
 _ZN5Tools12SmartPointerINS_13IObjectStreamEED1Ev@Base {QGIS_ABI}
 _ZN5Tools12SmartPointerINS_13TemporaryFileEE7releaseEv@Base {QGIS_ABI}
 _ZN5Tools12SmartPointerINS_13TemporaryFileEED1Ev@Base {QGIS_ABI}
 _ZN5Tools12externalSortERNS_13IObjectStreamERNS_17IObjectComparatorEm@Base {QGIS_ABI}
 _ZN5Tools12externalSortERNS_13IObjectStreamEm@Base {QGIS_ABI}
 _ZN5Tools13IObjectStreamD0Ev@Base {QGIS_ABI}
 _ZN5Tools13IObjectStreamD1Ev@Base {QGIS_ABI}
 _ZN5Tools13ISerializableD0Ev@Base {QGIS_ABI}
 _ZN5Tools13ISerializableD1Ev@Base {QGIS_ABI}
 _ZN5Tools13TemporaryFile14loadNextObjectEPNS_13ISerializableE@Base {QGIS_ABI}
 _ZN5Tools13TemporaryFile14loadNextObjectEPPhRm@Base {QGIS_ABI}
 _ZN5Tools13TemporaryFile15storeNextObjectEPNS_13ISerializableE@Base {QGIS_ABI}
 _ZN5Tools13TemporaryFile15storeNextObjectEmPKh@Base {QGIS_ABI}
 _ZN5Tools13TemporaryFile16rewindForReadingEv@Base {QGIS_ABI}
 _ZN5Tools13TemporaryFile16rewindForWritingEv@Base {QGIS_ABI}
 _ZN5Tools13TemporaryFileC1Ev@Base {QGIS_ABI}
 _ZN5Tools13TemporaryFileC2Ev@Base {QGIS_ABI}
 _ZN5Tools13TemporaryFileD0Ev@Base {QGIS_ABI}
 _ZN5Tools13TemporaryFileD1Ev@Base {QGIS_ABI}
 _ZN5Tools13TemporaryFileD2Ev@Base {QGIS_ABI}
 _ZN5Tools13uncompressRLEEmPhmPS0_Rm@Base {QGIS_ABI}
 _ZN5Tools15StringTokenizer12getNextTokenEv@Base {QGIS_ABI}
 _ZN5Tools15StringTokenizer13hasMoreTokensEv@Base {QGIS_ABI}
 _ZN5Tools15StringTokenizer5resetEv@Base {QGIS_ABI}
 _ZN5Tools15StringTokenizerC1ERKSsS2_@Base {QGIS_ABI}
 _ZN5Tools15StringTokenizerC2ERKSsS2_@Base {QGIS_ABI}
 _ZN5Tools17IObjectComparatorD0Ev@Base {QGIS_ABI}
 _ZN5Tools17IObjectComparatorD1Ev@Base {QGIS_ABI}
 _ZN5Tools19ParseErrorException4whatEv@Base {QGIS_ABI}
 _ZN5Tools19ParseErrorExceptionC1ESs@Base {QGIS_ABI}
 _ZN5Tools19ParseErrorExceptionC2ESs@Base {QGIS_ABI}
 _ZN5Tools19ParseErrorExceptionD0Ev@Base {QGIS_ABI}
 _ZN5Tools19ParseErrorExceptionD1Ev@Base {QGIS_ABI}
 _ZN5Tools20EndOfStreamException4whatEv@Base {QGIS_ABI}
 _ZN5Tools20EndOfStreamExceptionC1ESs@Base {QGIS_ABI}
 _ZN5Tools20EndOfStreamExceptionC2ESs@Base {QGIS_ABI}
 _ZN5Tools20EndOfStreamExceptionD0Ev@Base {QGIS_ABI}
 _ZN5Tools20EndOfStreamExceptionD1Ev@Base {QGIS_ABI}
 _ZN5Tools20InvalidPageException4whatEv@Base {QGIS_ABI}
 _ZN5Tools20InvalidPageExceptionC1El@Base {QGIS_ABI}
 _ZN5Tools20InvalidPageExceptionC2El@Base {QGIS_ABI}
 _ZN5Tools20InvalidPageExceptionD0Ev@Base {QGIS_ABI}
 _ZN5Tools20InvalidPageExceptionD1Ev@Base {QGIS_ABI}
 _ZN5Tools21IllegalStateException4whatEv@Base {QGIS_ABI}
 _ZN5Tools21IllegalStateExceptionC1ESs@Base {QGIS_ABI}
 _ZN5Tools21IllegalStateExceptionC2ESs@Base {QGIS_ABI}
 _ZN5Tools21IllegalStateExceptionD0Ev@Base {QGIS_ABI}
 _ZN5Tools21IllegalStateExceptionD1Ev@Base {QGIS_ABI}
 _ZN5Tools21NotSupportedException4whatEv@Base {QGIS_ABI}
 _ZN5Tools21NotSupportedExceptionC1ESs@Base {QGIS_ABI}
 _ZN5Tools21NotSupportedExceptionC2ESs@Base {QGIS_ABI}
 _ZN5Tools21NotSupportedExceptionD0Ev@Base {QGIS_ABI}
 _ZN5Tools21NotSupportedExceptionD1Ev@Base {QGIS_ABI}
 _ZN5Tools23ResourceLockedException4whatEv@Base {QGIS_ABI}
 _ZN5Tools23ResourceLockedExceptionC1ESs@Base {QGIS_ABI}
 _ZN5Tools23ResourceLockedExceptionC2ESs@Base {QGIS_ABI}
 _ZN5Tools23ResourceLockedExceptionD0Ev@Base {QGIS_ABI}
 _ZN5Tools23ResourceLockedExceptionD1Ev@Base {QGIS_ABI}
 _ZN5Tools24IllegalArgumentException4whatEv@Base {QGIS_ABI}
 _ZN5Tools24IllegalArgumentExceptionC1ESs@Base {QGIS_ABI}
 _ZN5Tools24IllegalArgumentExceptionC2ESs@Base {QGIS_ABI}
 _ZN5Tools24IllegalArgumentExceptionD0Ev@Base {QGIS_ABI}
 _ZN5Tools24IllegalArgumentExceptionD1Ev@Base {QGIS_ABI}
 _ZN5Tools25IndexOutOfBoundsException4whatEv@Base {QGIS_ABI}
 _ZN5Tools25IndexOutOfBoundsExceptionC1Ei@Base {QGIS_ABI}
 _ZN5Tools25IndexOutOfBoundsExceptionC2Ei@Base {QGIS_ABI}
 _ZN5Tools25IndexOutOfBoundsExceptionD0Ev@Base {QGIS_ABI}
 _ZN5Tools25IndexOutOfBoundsExceptionD1Ev@Base {QGIS_ABI}
 _ZN5Tools4trimERKSsS1_@Base {QGIS_ABI}
 _ZN5Tools6System15getArchitectureEv@Base {QGIS_ABI}
 _ZN5Tools7IObjectD0Ev@Base {QGIS_ABI}
 _ZN5Tools7IObjectD1Ev@Base {QGIS_ABI}
 _ZN5Tools7VariantC1Ev@Base {QGIS_ABI}
 _ZN5Tools7VariantC2Ev@Base {QGIS_ABI}
 _ZN5Tools7toLowerEc@Base {QGIS_ABI}
 _ZN5Tools7toUpperEc@Base {QGIS_ABI}
 _ZN5Tools8Geometry11LineSegment12makeInfiniteEm@Base {QGIS_ABI}
 _ZN5Tools8Geometry11LineSegment13makeDimensionEm@Base {QGIS_ABI}
 _ZN5Tools8Geometry11LineSegment16getByteArraySizeEv@Base {QGIS_ABI}
 _ZN5Tools8Geometry11LineSegment16storeToByteArrayEPPhRm@Base {QGIS_ABI}
 _ZN5Tools8Geometry11LineSegment17loadFromByteArrayEPKh@Base {QGIS_ABI}
 _ZN5Tools8Geometry11LineSegment26getAngleOfPerpendicularRayEv@Base {QGIS_ABI}
 _ZN5Tools8Geometry11LineSegment5cloneEv@Base {QGIS_ABI}
 _ZN5Tools8Geometry11LineSegmentC1EPKdS3_m@Base {QGIS_ABI}
 _ZN5Tools8Geometry11LineSegmentC1ERKNS0_5PointES4_@Base {QGIS_ABI}
 _ZN5Tools8Geometry11LineSegmentC1ERKS1_@Base {QGIS_ABI}
 _ZN5Tools8Geometry11LineSegmentC1Ev@Base {QGIS_ABI}
 _ZN5Tools8Geometry11LineSegmentC2EPKdS3_m@Base {QGIS_ABI}
 _ZN5Tools8Geometry11LineSegmentC2ERKNS0_5PointES4_@Base {QGIS_ABI}
 _ZN5Tools8Geometry11LineSegmentC2ERKS1_@Base {QGIS_ABI}
 _ZN5Tools8Geometry11LineSegmentC2Ev@Base {QGIS_ABI}
 _ZN5Tools8Geometry11LineSegmentD0Ev@Base {QGIS_ABI}
 _ZN5Tools8Geometry11LineSegmentD1Ev@Base {QGIS_ABI}
 _ZN5Tools8Geometry11LineSegmentD2Ev@Base {QGIS_ABI}
 _ZN5Tools8Geometry11LineSegmentaSERKS1_@Base {QGIS_ABI}
 _ZN5Tools8Geometry5Point12makeInfiniteEm@Base {QGIS_ABI}
 _ZN5Tools8Geometry5Point13makeDimensionEm@Base {QGIS_ABI}
 _ZN5Tools8Geometry5Point16getByteArraySizeEv@Base {QGIS_ABI}
 _ZN5Tools8Geometry5Point16storeToByteArrayEPPhRm@Base {QGIS_ABI}
 _ZN5Tools8Geometry5Point17loadFromByteArrayEPKh@Base {QGIS_ABI}
 _ZN5Tools8Geometry5Point5cloneEv@Base {QGIS_ABI}
 _ZN5Tools8Geometry5PointC1EPKdm@Base {QGIS_ABI}
 _ZN5Tools8Geometry5PointC1ERKS1_@Base {QGIS_ABI}
 _ZN5Tools8Geometry5PointC1Ev@Base {QGIS_ABI}
 _ZN5Tools8Geometry5PointC2EPKdm@Base {QGIS_ABI}
 _ZN5Tools8Geometry5PointC2ERKS1_@Base {QGIS_ABI}
 _ZN5Tools8Geometry5PointC2Ev@Base {QGIS_ABI}
 _ZN5Tools8Geometry5PointD0Ev@Base {QGIS_ABI}
 _ZN5Tools8Geometry5PointD1Ev@Base {QGIS_ABI}
 _ZN5Tools8Geometry5PointD2Ev@Base {QGIS_ABI}
 _ZN5Tools8Geometry5PointaSERKS1_@Base {QGIS_ABI}
 _ZN5Tools8Geometry6IShapeD0Ev@Base {QGIS_ABI}
 _ZN5Tools8Geometry6IShapeD1Ev@Base {QGIS_ABI}
 _ZN5Tools8Geometry6Region10initializeEPKdS3_m@Base {QGIS_ABI}
 _ZN5Tools8Geometry6Region12combinePointERKNS0_5PointE@Base {QGIS_ABI}
 _ZN5Tools8Geometry6Region12makeInfiniteEm@Base {QGIS_ABI}
 _ZN5Tools8Geometry6Region13combineRegionERKS1_@Base {QGIS_ABI}
 _ZN5Tools8Geometry6Region13makeDimensionEm@Base {QGIS_ABI}
 _ZN5Tools8Geometry6Region16getByteArraySizeEv@Base {QGIS_ABI}
 _ZN5Tools8Geometry6Region16storeToByteArrayEPPhRm@Base {QGIS_ABI}
 _ZN5Tools8Geometry6Region17loadFromByteArrayEPKh@Base {QGIS_ABI}
 _ZN5Tools8Geometry6Region5cloneEv@Base {QGIS_ABI}
 _ZN5Tools8Geometry6RegionC1EPKdS3_m@Base {QGIS_ABI}
 _ZN5Tools8Geometry6RegionC1ERKNS0_5PointES4_@Base {QGIS_ABI}
 _ZN5Tools8Geometry6RegionC1ERKS1_@Base {QGIS_ABI}
 _ZN5Tools8Geometry6RegionC1Ev@Base {QGIS_ABI}
 _ZN5Tools8Geometry6RegionC2EPKdS3_m@Base {QGIS_ABI}
 _ZN5Tools8Geometry6RegionC2ERKNS0_5PointES4_@Base {QGIS_ABI}
 _ZN5Tools8Geometry6RegionC2ERKS1_@Base {QGIS_ABI}
 _ZN5Tools8Geometry6RegionC2Ev@Base {QGIS_ABI}
 _ZN5Tools8Geometry6RegionD0Ev@Base {QGIS_ABI}
 _ZN5Tools8Geometry6RegionD1Ev@Base {QGIS_ABI}
 _ZN5Tools8Geometry6RegionD2Ev@Base {QGIS_ABI}
 _ZN5Tools8Geometry6RegionaSERKS1_@Base {QGIS_ABI}
 _ZN5Tools8GeometrylsERSoRKNS0_11LineSegmentE@Base {QGIS_ABI}
 _ZN5Tools8GeometrylsERSoRKNS0_5PointE@Base {QGIS_ABI}
 _ZN5Tools8GeometrylsERSoRKNS0_6RegionE@Base {QGIS_ABI}
 _ZN5Tools8Interval9setBoundsEdd@Base {QGIS_ABI}
 _ZN5Tools8IntervalC1ENS_12IntervalTypeEdd@Base {QGIS_ABI}
 _ZN5Tools8IntervalC1ERKS0_@Base {QGIS_ABI}
 _ZN5Tools8IntervalC1Edd@Base {QGIS_ABI}
 _ZN5Tools8IntervalC1Ev@Base {QGIS_ABI}
 _ZN5Tools8IntervalC2ENS_12IntervalTypeEdd@Base {QGIS_ABI}
 _ZN5Tools8IntervalC2ERKS0_@Base {QGIS_ABI}
 _ZN5Tools8IntervalC2Edd@Base {QGIS_ABI}
 _ZN5Tools8IntervalC2Ev@Base {QGIS_ABI}
 _ZN5Tools8IntervalD0Ev@Base {QGIS_ABI}
 _ZN5Tools8IntervalD1Ev@Base {QGIS_ABI}
 _ZN5Tools8IntervalaSERKNS_9IIntervalE@Base {QGIS_ABI}
 _ZN5Tools8IntervalaSERKS0_@Base {QGIS_ABI}
 _ZN5Tools8trimLeftERKSsS1_@Base {QGIS_ABI}
 _ZN5Tools9ExceptionD0Ev@Base {QGIS_ABI}
 _ZN5Tools9ExceptionD1Ev@Base {QGIS_ABI}
 _ZN5Tools9IIntervalD0Ev@Base {QGIS_ABI}
 _ZN5Tools9IIntervalD1Ev@Base {QGIS_ABI}
 _ZN5Tools9trimRightERKSsS1_@Base {QGIS_ABI}
 _ZN5ToolslsERSoRKNS_11PropertySetE@Base {QGIS_ABI}
 _ZN5ToolslsERSoRKNS_13UniversalHashE@Base {QGIS_ABI}
 _ZN5ToolslsERSoRKNS_8IntervalE@Base {QGIS_ABI}
 _ZN7QObject2trEPKcS1_@Base {QGIS_ABI}
 _ZN7QStringC1EPKc@Base {QGIS_ABI}
 _ZN7QStringC1ERKS_@Base {QGIS_ABI}
 _ZN7QStringD1Ev@Base {QGIS_ABI}
 _ZN7QStringaSEPKc@Base {QGIS_ABI}
 _ZN7QStringpLEPKc@Base {QGIS_ABI}
 _ZN7QVectorI6QLineFE7reallocEii@Base {QGIS_ABI}
 _ZN7QVectorI6QLineFED1Ev@Base {QGIS_ABI}
 _ZN7QVectorI6QPointE7reallocEii@Base {QGIS_ABI}
 _ZN7QVectorI7QPointFE6appendERKS0_@Base {QGIS_ABI}
 _ZN7QVectorI7QPointFE7reallocEii@Base {QGIS_ABI}
 _ZN7QVectorI7QPointFEaSERKS1_@Base {QGIS_ABI}
 _ZN7QVectorI7QPointFElsERKS0_@Base {QGIS_ABI}
 _ZN7QVectorI8QgsPointE6appendERKS0_@Base {QGIS_ABI}
 _ZN7QVectorI8QgsPointE7reallocEii@Base {QGIS_ABI}
 _ZN7QVectorI8QgsPointEC1Ei@Base {QGIS_ABI}
 _ZN7QVectorI8QgsPointED1Ev@Base {QGIS_ABI}
 _ZN7QVectorI8QgsPointEaSERKS1_@Base {QGIS_ABI}
 _ZN7QVectorIP10GEOSGeom_tE5clearEv@Base {QGIS_ABI}
 _ZN7QVectorIP10GEOSGeom_tE7reallocEii@Base {QGIS_ABI}
 _ZN7QVectorIP10GEOSGeom_tEC1ERKS2_@Base {QGIS_ABI}
 _ZN7QVectorIP10GEOSGeom_tED1Ev@Base {QGIS_ABI}
 _ZN7QVectorIP10GEOSGeom_tEixEi@Base {QGIS_ABI}
 _ZN7QVectorIP10GEOSGeom_tElsERKS1_@Base {QGIS_ABI}
 _ZN7QVectorIPK10GEOSGeom_tE7reallocEii@Base {QGIS_ABI}
 _ZN7QVectorIPK10GEOSGeom_tElsERKS2_@Base {QGIS_ABI}
 _ZN7QVectorIS_I8QgsPointEE4freeEP16QVectorTypedDataIS1_E@Base {QGIS_ABI}
 _ZN7QVectorIS_I8QgsPointEE6appendERKS1_@Base {QGIS_ABI}
 _ZN7QVectorIS_I8QgsPointEE6removeEi@Base {QGIS_ABI}
 _ZN7QVectorIS_I8QgsPointEE7reallocEii@Base {QGIS_ABI}
 _ZN7QVectorIS_I8QgsPointEEC1Ei@Base {QGIS_ABI}
 _ZN7QVectorIS_I8QgsPointEED1Ev@Base {QGIS_ABI}
 _ZN7QVectorIS_I8QgsPointEEaSERKS2_@Base {QGIS_ABI}
 _ZN7QVectorIS_IS_I8QgsPointEEE4freeEP16QVectorTypedDataIS2_E@Base {QGIS_ABI}
 _ZN7QVectorIS_IS_I8QgsPointEEE7reallocEii@Base {QGIS_ABI}
 _ZN7QVectorIS_IS_I8QgsPointEEED1Ev@Base {QGIS_ABI}
 _ZN7QVectorIS_IS_I8QgsPointEEEixEi@Base {QGIS_ABI}
 _ZN7QVectorIiE7reallocEii@Base {QGIS_ABI}
 _ZN8GEOSInitD1Ev@Base {QGIS_ABI}
 _ZN8QPainter8drawLineERK7QPointFS2_@Base {QGIS_ABI}
 _ZN8QPainter9drawImageEiiRK6QImageiiii6QFlagsIN2Qt19ImageConversionFlagEE@Base {QGIS_ABI}
 _ZN8QPainter9drawPointEii@Base {QGIS_ABI}
 _ZN8QgsField10setCommentERK7QString@Base {QGIS_ABI}
 _ZN8QgsField11setTypeNameERK7QString@Base {QGIS_ABI}
 _ZN8QgsField12setPrecisionEi@Base {QGIS_ABI}
 _ZN8QgsField7setNameERK7QString@Base {QGIS_ABI}
 _ZN8QgsField7setTypeEN8QVariant4TypeE@Base {QGIS_ABI}
 _ZN8QgsField9setLengthEi@Base {QGIS_ABI}
 _ZN8QgsFieldC1E7QStringN8QVariant4TypeES0_iiS0_@Base {QGIS_ABI}
 _ZN8QgsFieldC1ERKS_@Base {QGIS_ABI}
 _ZN8QgsFieldC2E7QStringN8QVariant4TypeES0_iiS0_@Base {QGIS_ABI}
 _ZN8QgsFieldD1Ev@Base {QGIS_ABI}
 _ZN8QgsFieldD2Ev@Base {QGIS_ABI}
 _ZN8QgsLabel10fieldValueEiR10QgsFeature@Base {QGIS_ABI}
 _ZN8QgsLabel10labelPointERNS_10labelpointEPhj@Base {QGIS_ABI}
 _ZN8QgsLabel10labelPointERNS_10labelpointEPhm@Base {QGIS_ABI}
 _ZN8QgsLabel10labelPointERSt6vectorINS_10labelpointESaIS1_EER10QgsFeature@Base {QGIS_ABI}
 _ZN8QgsLabel11renderLabelER16QgsRenderContext8QgsPoint7QString5QFont4QPeniidddiii@Base {QGIS_ABI}
 _ZN8QgsLabel11renderLabelER16QgsRenderContextR10QgsFeaturebP18QgsLabelAttributes@Base {QGIS_ABI}
 _ZN8QgsLabel11setMaxScaleEf@Base {QGIS_ABI}
 _ZN8QgsLabel11setMinScaleEf@Base {QGIS_ABI}
 _ZN8QgsLabel13setLabelFieldEii@Base {QGIS_ABI}
 _ZN8QgsLabel14readLabelFieldER11QDomElementi7QString@Base {QGIS_ABI}
 _ZN8QgsLabel15labelAttributesEv@Base {QGIS_ABI}
 _ZN8QgsLabel15layerAttributesEv@Base {QGIS_ABI}
 _ZN8QgsLabel23setScaleBasedVisibilityEb@Base {QGIS_ABI}
 _ZN8QgsLabel6fieldsEv@Base {QGIS_ABI}
 _ZN8QgsLabel7readXMLERK8QDomNode@Base {QGIS_ABI}
 _ZN8QgsLabel9setFieldsERK4QMapIi8QgsFieldE@Base {QGIS_ABI}
 _ZN8QgsLabelC1ERK4QMapIi8QgsFieldE@Base {QGIS_ABI}
 _ZN8QgsLabelC2ERK4QMapIi8QgsFieldE@Base {QGIS_ABI}
 _ZN8QgsLabelD1Ev@Base {QGIS_ABI}
 _ZN8QgsLabelD2Ev@Base {QGIS_ABI}
 _ZN8QgsPoint8multiplyERKd@Base {QGIS_ABI}
 _ZN8QgsPointC1ERKS_@Base {QGIS_ABI}
 _ZN8QgsPointC2ERKS_@Base {QGIS_ABI}
 _ZN8QgsPointaSERKS_@Base {QGIS_ABI}
 _ZN8QgsPointeqERKS_@Base {QGIS_ABI}
 _ZN9QMultiMapId17QgsSnappingResultE6insertERKdRKS0_@Base {QGIS_ABI}
 _ZN9QMultiMapId17QgsSnappingResultED1Ev@Base {QGIS_ABI}
 _ZN9QPolygonFD1Ev@Base {QGIS_ABI}
 _ZN9QgsActionD1Ev@Base {QGIS_ABI}
 _ZN9QgsLogger10debugLevelEv@Base {QGIS_ABI}
 _ZN9QgsLogger5debugERK7QStringdiPKcS4_i@Base {QGIS_ABI}
 _ZN9QgsLogger5debugERK7QStringiPKcS4_i@Base {QGIS_ABI}
 _ZN9QgsLogger5debugERK7QStringiiPKcS4_i@Base {QGIS_ABI}
 _ZN9QgsLogger5debugIdEEvRK7QStringT_PKcS6_ii@Base {QGIS_ABI}
 _ZN9QgsLogger5debugIiEEvRK7QStringT_PKcS6_ii@Base {QGIS_ABI}
 _ZN9QgsLogger5fatalERK7QString@Base {QGIS_ABI}
 _ZN9QgsLogger7warningERK7QString@Base {QGIS_ABI}
 _ZN9QgsLogger8criticalERK7QString@Base {QGIS_ABI}
 _ZN9QgsLogger9debugFileEv@Base {QGIS_ABI}
 _ZN9QgsSymbol12setFillColorE6QColor@Base {QGIS_ABI}
 _ZN9QgsSymbol12setFillStyleEN2Qt10BrushStyleE@Base {QGIS_ABI}
 _ZN9QgsSymbol12setLineStyleEN2Qt8PenStyleE@Base {QGIS_ABI}
 _ZN9QgsSymbol12setLineWidthEd@Base {QGIS_ABI}
 _ZN9QgsSymbol12setPointSizeEd@Base {QGIS_ABI}
 _ZN9QgsSymbol13readFieldNameER8QDomNode7QStringRK14QgsVectorLayer@Base {QGIS_ABI}
 _ZN9QgsSymbol13setLowerValueE7QString@Base {QGIS_ABI}
 _ZN9QgsSymbol13setUpperValueE7QString@Base {QGIS_ABI}
 _ZN9QgsSymbol14setSymbolFieldEi@Base {QGIS_ABI}
 _ZN9QgsSymbol16setCustomTextureE7QString@Base {QGIS_ABI}
 _ZN9QgsSymbol17setPointSizeUnitsEb@Base {QGIS_ABI}
 _ZN9QgsSymbol19setNamedPointSymbolE7QString@Base {QGIS_ABI}
 _ZN9QgsSymbol20getLineSymbolAsImageEv@Base {QGIS_ABI}
 _ZN9QgsSymbol21getPointSymbolAsImageEdb6QColordddd@Base {QGIS_ABI}
 _ZN9QgsSymbol23getPolygonSymbolAsImageEv@Base {QGIS_ABI}
 _ZN9QgsSymbol27getCachedPointSymbolAsImageEdb6QColord@Base {QGIS_ABI}
 _ZN9QgsSymbol27setScaleClassificationFieldEi@Base {QGIS_ABI}
 _ZN9QgsSymbol30setRotationClassificationFieldEi@Base {QGIS_ABI}
 _ZN9QgsSymbol5cacheE6QColor@Base {QGIS_ABI}
 _ZN9QgsSymbol6cache2Ed6QColord@Base {QGIS_ABI}
 _ZN9QgsSymbol6setPenE4QPen@Base {QGIS_ABI}
 _ZN9QgsSymbol7readXMLER8QDomNodePK14QgsVectorLayer@Base {QGIS_ABI}
 _ZN9QgsSymbol8setBrushE6QBrush@Base {QGIS_ABI}
 _ZN9QgsSymbol8setColorE6QColor@Base {QGIS_ABI}
 _ZN9QgsSymbol8setLabelE7QString@Base {QGIS_ABI}
 _ZN9QgsSymbolC1E6QColor@Base {QGIS_ABI}
 _ZN9QgsSymbolC1EN4QGis12GeometryTypeE7QStringS2_S2_6QColor@Base {QGIS_ABI}
 _ZN9QgsSymbolC1EN4QGis12GeometryTypeE7QStringS2_S2_@Base {QGIS_ABI}
 _ZN9QgsSymbolC1ERKS_@Base {QGIS_ABI}
 _ZN9QgsSymbolC1Ev@Base {QGIS_ABI}
 _ZN9QgsSymbolC2E6QColor@Base {QGIS_ABI}
 _ZN9QgsSymbolC2EN4QGis12GeometryTypeE7QStringS2_S2_6QColor@Base {QGIS_ABI}
 _ZN9QgsSymbolC2EN4QGis12GeometryTypeE7QStringS2_S2_@Base {QGIS_ABI}
 _ZN9QgsSymbolC2ERKS_@Base {QGIS_ABI}
 _ZN9QgsSymbolC2Ev@Base {QGIS_ABI}
 _ZN9QgsSymbolD0Ev@Base {QGIS_ABI}
 _ZN9QgsSymbolD1Ev@Base {QGIS_ABI}
 _ZN9QgsSymbolD2Ev@Base {QGIS_ABI}
 _ZNK10QgsFeature12attributeMapEv@Base {QGIS_ABI}
 _ZNK10QgsFeature2idEv@Base {QGIS_ABI}
 _ZNK10QgsFeature7isDirtyEv@Base {QGIS_ABI}
 _ZNK10QgsFeature7isValidEv@Base {QGIS_ABI}
 _ZNK10QgsFeature8typeNameEv@Base {QGIS_ABI}
 _ZNK10QgsProject10metaObjectEv@Base {QGIS_ABI}
 _ZNK10QgsProject10subkeyListERK7QStringS2_@Base {QGIS_ABI}
 _ZNK10QgsProject12readNumEntryERK7QStringS2_iPb@Base {QGIS_ABI}
 _ZNK10QgsProject13readBoolEntryERK7QStringS2_bPb@Base {QGIS_ABI}
 _ZNK10QgsProject13readListEntryERK7QStringS2_Pb@Base {QGIS_ABI}
 _ZNK10QgsProject14dumpPropertiesEv@Base {QGIS_ABI}
 _ZNK10QgsProject15readDoubleEntryERK7QStringS2_dPb@Base {QGIS_ABI}
 _ZNK10QgsProject5errorEv@Base {QGIS_ABI}
 _ZNK10QgsProject5titleEv@Base {QGIS_ABI}
 _ZNK10QgsProject7isDirtyEv@Base {QGIS_ABI}
 _ZNK10QgsProject8fileNameEv@Base {QGIS_ABI}
 _ZNK10QgsProject8readPathE7QString@Base {QGIS_ABI}
 _ZNK10QgsProject9entryListERK7QStringS2_@Base {QGIS_ABI}
 _ZNK10QgsProject9readEntryERK7QStringS2_S2_Pb@Base {QGIS_ABI}
 _ZNK10QgsProject9writePathE7QString@Base {QGIS_ABI}
 _ZNK10QgsSnapper15cleanResultListER9QMultiMapId17QgsSnappingResultERK5QListI8QgsPointE@Base {QGIS_ABI}
 _ZNK10QgsStyleV212colorRampRefE7QString@Base {QGIS_ABI}
 _ZNK10QgsStyleV29symbolRefE7QString@Base {QGIS_ABI}
 _ZNK11QgsGeometry18numberOfGeometriesEP10GEOSGeom_t@Base {QGIS_ABI}
 _ZNK11QgsGeometry26topologicalTestPointsSplitEPK10GEOSGeom_tR5QListI8QgsPointE@Base {QGIS_ABI}
 _ZNK11QgsMapLayer10getLayerIDEv@Base {QGIS_ABI}
 _ZNK11QgsMapLayer10metaObjectEv@Base {QGIS_ABI}
 _ZNK11QgsMapLayer12publicSourceEv@Base {QGIS_ABI}
 _ZNK11QgsMapLayer14customPropertyERK7QStringRK8QVariant@Base {QGIS_ABI}
 _ZNK11QgsMapLayer4nameEv@Base {QGIS_ABI}
 _ZNK11QgsMapLayer4typeEv@Base {QGIS_ABI}
 _ZNK11QgsMapLayer6extentEv@Base {QGIS_ABI}
 _ZNK11QgsMapLayer6sourceEv@Base {QGIS_ABI}
 _ZNK11QgsRenderer14containsPixmapEv@Base {QGIS_ABI}
 _ZNK11QgsRenderer16usesTransparencyEv@Base {QGIS_ABI}
 _ZNK11QgsSymbolV211cloneLayersEv@Base {QGIS_ABI}
 _ZNK12QgsException4whatEv@Base {QGIS_ABI}
 _ZNK12QgsPaperItem8writeXMLER11QDomElementR12QDomDocument@Base {QGIS_ABI}
 _ZNK12QgsRectangle10intersectsERKS_@Base {QGIS_ABI}
 _ZNK12QgsRectangle16asWktCoordinatesEv@Base {QGIS_ABI}
 _ZNK12QgsRectangle7isEmptyEv@Base {QGIS_ABI}
 _ZNK12QgsRectangle8containsERK8QgsPoint@Base {QGIS_ABI}
 _ZNK12QgsRectangle8containsERKS_@Base {QGIS_ABI}
 _ZNK12QgsRectangle8isFiniteEv@Base {QGIS_ABI}
 _ZNK12QgsRectangle8toStringEb@Base {QGIS_ABI}
 _ZNK12QgsRectangle8toStringEi@Base {QGIS_ABI}
 _ZNK12QgsRectangle9asPolygonEv@Base {QGIS_ABI}
 _ZNK12QgsRectangle9intersectEPKS_@Base {QGIS_ABI}
 _ZNK12QgsRectangleeqERKS_@Base {QGIS_ABI}
 _ZNK12QgsRectangleneERKS_@Base {QGIS_ABI}
 _ZNK12SpatialIndex5RTree10Statistics13getTreeHeightEv@Base {QGIS_ABI}
 _ZNK12SpatialIndex5RTree10Statistics14getAdjustmentsEv@Base {QGIS_ABI}
 _ZNK12SpatialIndex5RTree10Statistics15getNumberOfDataEv@Base {QGIS_ABI}
 _ZNK12SpatialIndex5RTree10Statistics15getQueryResultsEv@Base {QGIS_ABI}
 _ZNK12SpatialIndex5RTree10Statistics16getNumberOfNodesEv@Base {QGIS_ABI}
 _ZNK12SpatialIndex5RTree10Statistics23getNumberOfNodesInLevelEm@Base {QGIS_ABI}
 _ZNK12SpatialIndex5RTree10Statistics7getHitsEv@Base {QGIS_ABI}
 _ZNK12SpatialIndex5RTree10Statistics8getReadsEv@Base {QGIS_ABI}
 _ZNK12SpatialIndex5RTree10Statistics9getMissesEv@Base {QGIS_ABI}
 _ZNK12SpatialIndex5RTree10Statistics9getSplitsEv@Base {QGIS_ABI}
 _ZNK12SpatialIndex5RTree10Statistics9getWritesEv@Base {QGIS_ABI}
 _ZNK12SpatialIndex5RTree4Data13getIdentifierEv@Base {QGIS_ABI}
 _ZNK12SpatialIndex5RTree4Data7getDataERmPPh@Base {QGIS_ABI}
 _ZNK12SpatialIndex5RTree4Data8getShapeEPPN5Tools8Geometry6IShapeE@Base {QGIS_ABI}
 _ZNK12SpatialIndex5RTree4Node13getChildShapeEmPPN5Tools8Geometry6IShapeE@Base {QGIS_ABI}
 _ZNK12SpatialIndex5RTree4Node13getIdentifierEv@Base {QGIS_ABI}
 _ZNK12SpatialIndex5RTree4Node16getChildrenCountEv@Base {QGIS_ABI}
 _ZNK12SpatialIndex5RTree4Node18getChildIdentifierEm@Base {QGIS_ABI}
 _ZNK12SpatialIndex5RTree4Node6isLeafEv@Base {QGIS_ABI}
 _ZNK12SpatialIndex5RTree4Node7isIndexEv@Base {QGIS_ABI}
 _ZNK12SpatialIndex5RTree4Node8getLevelEv@Base {QGIS_ABI}
 _ZNK12SpatialIndex5RTree4Node8getShapeEPPN5Tools8Geometry6IShapeE@Base {QGIS_ABI}
 _ZNK12SpatialIndex5RTree5Index16findLeastOverlapERKN5Tools8Geometry6RegionE@Base {QGIS_ABI}
 _ZNK12SpatialIndex5RTree5Index20findLeastEnlargementERKN5Tools8Geometry6RegionE@Base {QGIS_ABI}
 _ZNK12SpatialIndex5RTree5RTree13getStatisticsEPPNS_11IStatisticsE@Base {QGIS_ABI}
 _ZNK12SpatialIndex5RTree5RTree18getIndexPropertiesERN5Tools11PropertySetE@Base {QGIS_ABI}
 _ZNK13QgsMapToPixel10toMapPointEii@Base {QGIS_ABI}
 _ZNK13QgsMapToPixel16mapUnitsPerPixelEv@Base {QGIS_ABI}
 _ZNK13QgsMapToPixel16toMapCoordinatesE6QPoint@Base {QGIS_ABI}
 _ZNK13QgsMapToPixel16toMapCoordinatesEii@Base {QGIS_ABI}
 _ZNK13QgsMapToPixel16transformInPlaceERSt6vectorIdSaIdEES3_@Base {QGIS_ABI}
 _ZNK13QgsMapToPixel16transformInPlaceERdS0_@Base {QGIS_ABI}
 _ZNK13QgsMapToPixel9transformEP8QgsPoint@Base {QGIS_ABI}
 _ZNK13QgsMapToPixel9transformERK8QgsPoint@Base {QGIS_ABI}
 _ZNK13QgsMapToPixel9transformEdd@Base {QGIS_ABI}
 _ZNK13QgsRunProcess10metaObjectEv@Base {QGIS_ABI}
 _ZNK14QgsApplication10metaObjectEv@Base {QGIS_ABI}
 _ZNK14QgsComposerMap10mapPolygonER9QPolygonF@Base {QGIS_ABI}
 _ZNK14QgsComposerMap10metaObjectEv@Base {QGIS_ABI}
 _ZNK14QgsComposerMap10xGridLinesER5QListI5QPairId6QLineFEE@Base {QGIS_ABI}
 _ZNK14QgsComposerMap10yGridLinesER5QListI5QPairId6QLineFEE@Base {QGIS_ABI}
 _ZNK14QgsComposerMap12boundingRectEv@Base {QGIS_ABI}
 _ZNK14QgsComposerMap12mapUnitsToMMEv@Base {QGIS_ABI}
 _ZNK14QgsComposerMap12maxExtensionEv@Base {QGIS_ABI}
 _ZNK14QgsComposerMap14transformShiftERdS0_@Base {QGIS_ABI}
 _ZNK14QgsComposerMap15mapToItemCoordsERK7QPointF@Base {QGIS_ABI}
 _ZNK14QgsComposerMap15requestedExtentER12QgsRectangle@Base {QGIS_ABI}
 _ZNK14QgsComposerMap16containsWMSLayerEv@Base {QGIS_ABI}
 _ZNK14QgsComposerMap17transformedExtentEv@Base {QGIS_ABI}
 _ZNK14QgsComposerMap17verticalGridLinesER5QListI5QPairId6QLineFEE@Base {QGIS_ABI}
 _ZNK14QgsComposerMap18borderForLineCoordERK7QPointF@Base {QGIS_ABI}
 _ZNK14QgsComposerMap19horizontalGridLinesER5QListI5QPairId6QLineFEE@Base {QGIS_ABI}
 _ZNK14QgsComposerMap21transformedMapPolygonEv@Base {QGIS_ABI}
 _ZNK14QgsComposerMap22maxExtensionXDirectionEv@Base {QGIS_ABI}
 _ZNK14QgsComposerMap22maxExtensionYDirectionEv@Base {QGIS_ABI}
 _ZNK14QgsComposerMap23pointOnLineWithDistanceERK7QPointFS2_d@Base {QGIS_ABI}
 _ZNK14QgsComposerMap5scaleEv@Base {QGIS_ABI}
 _ZNK14QgsComposerMap6rotateEdRdS0_@Base {QGIS_ABI}
 _ZNK14QgsComposerMap8writeXMLER11QDomElementR12QDomDocument@Base {QGIS_ABI}
 _ZNK14QgsComposition10metaObjectEv@Base {QGIS_ABI}
 _ZNK14QgsComposition10paperWidthEv@Base {QGIS_ABI}
 _ZNK14QgsComposition11paperHeightEv@Base {QGIS_ABI}
 _ZNK14QgsComposition13pixelFontSizeEd@Base {QGIS_ABI}
 _ZNK14QgsComposition13pointFontSizeEi@Base {QGIS_ABI}
 _ZNK14QgsComposition15snapPointToGridERK7QPointF@Base {QGIS_ABI}
 _ZNK14QgsComposition16composerMapItemsEv@Base {QGIS_ABI}
 _ZNK14QgsComposition18getComposerMapByIdEi@Base {QGIS_ABI}
 _ZNK14QgsContextHelp10metaObjectEv@Base {QGIS_ABI}
 _ZNK14QgsLegendModel10metaObjectEv@Base {QGIS_ABI}
 _ZNK14QgsLegendModel8writeXMLER11QDomElementR12QDomDocument@Base {QGIS_ABI}
 _ZNK14QgsMapRenderer10metaObjectEv@Base {QGIS_ABI}
 _ZNK14QgsMapRenderer6extentEv@Base {QGIS_ABI}
 _ZNK14QgsMapRenderer8mapUnitsEv@Base {QGIS_ABI}
 _ZNK14QgsPropertyKey10subkeyListER11QStringList@Base {QGIS_ABI}
 _ZNK14QgsPropertyKey4dumpEj@Base {QGIS_ABI}
 _ZNK14QgsPropertyKey4dumpEm@Base {QGIS_ABI}
 _ZNK14QgsPropertyKey5isKeyEv@Base {QGIS_ABI}
 _ZNK14QgsPropertyKey5valueEv@Base {QGIS_ABI}
 _ZNK14QgsPropertyKey6isLeafEv@Base {QGIS_ABI}
 _ZNK14QgsPropertyKey7isValueEv@Base {QGIS_ABI}
 _ZNK14QgsPropertyKey9entryListER11QStringList@Base {QGIS_ABI}
 _ZNK14QgsRasterLayer10isEditableEv@Base {QGIS_ABI}
 _ZNK14QgsRasterLayer10metaObjectEv@Base {QGIS_ABI}
 _ZNK14QgsRasterLayer12dataProviderEv@Base {QGIS_ABI}
 _ZNK14QgsRasterLayer14writeSymbologyER8QDomNodeR12QDomDocumentR7QString@Base {QGIS_ABI}
 _ZNK14QgsRasterLayer20drawingStyleAsStringEv@Base {QGIS_ABI}
 _ZNK14QgsRasterLayer22hasCompatibleSymbologyERK11QgsMapLayer@Base {QGIS_ABI}
 _ZNK14QgsRasterLayer29colorShadingAlgorithmAsStringEv@Base {QGIS_ABI}
 _ZNK14QgsRasterLayer36contrastEnhancementAlgorithmAsStringEv@Base {QGIS_ABI}
 _ZNK14QgsRasterLayer9subLayersEv@Base {QGIS_ABI}
 _ZNK14QgsVectorLayer10isEditableEv@Base {QGIS_ABI}
 _ZNK14QgsVectorLayer10isModifiedEv@Base {QGIS_ABI}
 _ZNK14QgsVectorLayer10metaObjectEv@Base {QGIS_ABI}
 _ZNK14QgsVectorLayer11dataCommentEv@Base {QGIS_ABI}
 _ZNK14QgsVectorLayer11storageTypeEv@Base {QGIS_ABI}
 _ZNK14QgsVectorLayer12dataProviderEv@Base {QGIS_ABI}
 _ZNK14QgsVectorLayer12displayFieldEv@Base {QGIS_ABI}
 _ZNK14QgsVectorLayer12featureCountEv@Base {QGIS_ABI}
 _ZNK14QgsVectorLayer12geometryTypeEv@Base {QGIS_ABI}
 _ZNK14QgsVectorLayer12providerTypeEv@Base {QGIS_ABI}
 _ZNK14QgsVectorLayer13pendingFieldsEv@Base {QGIS_ABI}
 _ZNK14QgsVectorLayer14attributeAliasEi@Base {QGIS_ABI}
 _ZNK14QgsVectorLayer14fieldNameIndexERK7QString@Base {QGIS_ABI}
 _ZNK14QgsVectorLayer14snapToGeometryERK8QgsPointiP11QgsGeometrydR9QMultiMapId17QgsSnappingResultEN10QgsSnapper12SnappingTypeE@Base {QGIS_ABI}
 _ZNK14QgsVectorLayer14writeSymbologyER8QDomNodeR12QDomDocumentR7QString@Base {QGIS_ABI}
 _ZNK14QgsVectorLayer16hasLabelsEnabledEv@Base {QGIS_ABI}
 _ZNK14QgsVectorLayer18capabilitiesStringEv@Base {QGIS_ABI}
 _ZNK14QgsVectorLayer18updateFeatureCountEv@Base {QGIS_ABI}
 _ZNK14QgsVectorLayer19selectedFeaturesIdsEv@Base {QGIS_ABI}
 _ZNK14QgsVectorLayer20attributeDisplayNameEi@Base {QGIS_ABI}
 _ZNK14QgsVectorLayer22hasCompatibleSymbologyERK11QgsMapLayer@Base {QGIS_ABI}
 _ZNK14QgsVectorLayer24boundingBoxFromPointListERK5QListI8QgsPointERdS5_S5_S5_@Base {QGIS_ABI}
 _ZNK14QgsVectorLayer5labelEv@Base {QGIS_ABI}
 _ZNK14QgsVectorLayer7wkbTypeEv@Base {QGIS_ABI}
 _ZNK14QgsVectorLayer8rendererEv@Base {QGIS_ABI}
 _ZNK15QgsComposerItem10metaObjectEv@Base {QGIS_ABI}
 _ZNK15QgsComposerItem13pixelFontSizeEd@Base {QGIS_ABI}
 _ZNK15QgsComposerItem14lockSymbolSizeEv@Base {QGIS_ABI}
 _ZNK15QgsComposerItem19scaledFontPixelSizeERK5QFont@Base {QGIS_ABI}
 _ZNK15QgsComposerItem20textWidthMillimetersERK5QFontRK7QString@Base {QGIS_ABI}
 _ZNK15QgsComposerItem21fontAscentMillimetersERK5QFont@Base {QGIS_ABI}
 _ZNK15QgsComposerItem23pointOnLineWithDistanceERK7QPointFS2_d@Base {QGIS_ABI}
 _ZNK15QgsComposerItem25horizontalViewScaleFactorEv@Base {QGIS_ABI}
 _ZNK15QgsComposerItem26rectHandlerBorderToleranceEv@Base {QGIS_ABI}
 _ZNK15QgsComposerItem28imageSizeConsideringRotationERdS0_@Base {QGIS_ABI}
 _ZNK15QgsComposerItem33cornerPointOnRotatedAndScaledRectERdS0_dd@Base {QGIS_ABI}
 _ZNK15QgsComposerItem6rotateEdRdS0_@Base {QGIS_ABI}
 _ZNK15QgsComposerItem8drawTextEP8QPainterRK6QRectFRK7QStringRK5QFont@Base {QGIS_ABI}
 _ZNK15QgsComposerItem8drawTextEP8QPainterddRK7QStringRK5QFont@Base {QGIS_ABI}
 _ZNK15QgsComposerItem8drawTextEP8QPainteriiRK7QStringRK5QFont@Base {QGIS_ABI}
 _ZNK15QgsComposerItem9_writeXMLER11QDomElementR12QDomDocument@Base {QGIS_ABI}
 _ZNK15QgsDataProvider10metaObjectEv@Base {QGIS_ABI}
 _ZNK15QgsDataProvider13dataSourceUriEv@Base {QGIS_ABI}
 _ZNK15QgsDataProvider13subLayerCountEv@Base {QGIS_ABI}
 _ZNK15QgsDataProvider14subLayerStylesEv@Base {QGIS_ABI}
 _ZNK15QgsDataProvider17fileRasterFiltersEv@Base {QGIS_ABI}
 _ZNK15QgsDataProvider17fileVectorFiltersEv@Base {QGIS_ABI}
 _ZNK15QgsDataProvider9subLayersEv@Base {QGIS_ABI}
 _ZNK15QgsFillSymbolV25cloneEv@Base {QGIS_ABI}
 _ZNK15QgsLineSymbolV25cloneEv@Base {QGIS_ABI}
 _ZNK16QgsComposerArrow10arrowAngleEv@Base {QGIS_ABI}
 _ZNK16QgsComposerArrow8writeXMLER11QDomElementR12QDomDocument@Base {QGIS_ABI}
 _ZNK16QgsComposerLabel11displayTextEv@Base {QGIS_ABI}
 _ZNK16QgsComposerLabel15replaceDateTextER7QString@Base {QGIS_ABI}
 _ZNK16QgsComposerLabel4fontEv@Base {QGIS_ABI}
 _ZNK16QgsComposerLabel8writeXMLER11QDomElementR12QDomDocument@Base {QGIS_ABI}
 _ZNK16QgsComposerShape10metaObjectEv@Base {QGIS_ABI}
 _ZNK16QgsComposerShape12outlineColorEv@Base {QGIS_ABI}
 _ZNK16QgsComposerShape15transparentFillEv@Base {QGIS_ABI}
 _ZNK16QgsComposerShape8writeXMLER11QDomElementR12QDomDocument@Base {QGIS_ABI}
 _ZNK16QgsComposerShape9fillColorEv@Base {QGIS_ABI}
 _ZNK16QgsComposerShape9lineWidthEv@Base {QGIS_ABI}
 _ZNK16QgsDataSourceURI14connectionInfoEv@Base {QGIS_ABI}
 _ZNK16QgsDataSourceURI14geometryColumnEv@Base {QGIS_ABI}
 _ZNK16QgsDataSourceURI15quotedTablenameEv@Base {QGIS_ABI}
 _ZNK16QgsDataSourceURI3sqlEv@Base {QGIS_ABI}
 _ZNK16QgsDataSourceURI3uriEv@Base {QGIS_ABI}
 _ZNK16QgsDataSourceURI4hostEv@Base {QGIS_ABI}
 _ZNK16QgsDataSourceURI4portEv@Base {QGIS_ABI}
 _ZNK16QgsDataSourceURI5tableEv@Base {QGIS_ABI}
 _ZNK16QgsDataSourceURI6escapeERK7QString@Base {QGIS_ABI}
 _ZNK16QgsDataSourceURI6schemaEv@Base {QGIS_ABI}
 _ZNK16QgsDataSourceURI7sslModeEv@Base {QGIS_ABI}
 _ZNK16QgsDataSourceURI8databaseEv@Base {QGIS_ABI}
 _ZNK16QgsDataSourceURI8passwordEv@Base {QGIS_ABI}
 _ZNK16QgsDataSourceURI8usernameEv@Base {QGIS_ABI}
 _ZNK16QgsDataSourceURI9keyColumnEv@Base {QGIS_ABI}
 _ZNK16QgsOverlayObject8positionEv@Base {QGIS_ABI}
 _ZNK16QgsPropertyValue4dumpEj@Base {QGIS_ABI}
 _ZNK16QgsPropertyValue4dumpEm@Base {QGIS_ABI}
 _ZNK16QgsPropertyValue5isKeyEv@Base {QGIS_ABI}
 _ZNK16QgsPropertyValue5valueEv@Base {QGIS_ABI}
 _ZNK16QgsPropertyValue6isLeafEv@Base {QGIS_ABI}
 _ZNK16QgsPropertyValue7isValueEv@Base {QGIS_ABI}
 _ZNK16QgsScaleBarStyle10drawLabelsEP8QPainter@Base {QGIS_ABI}
 _ZNK16QgsScaleBarStyle16calculateBoxSizeEv@Base {QGIS_ABI}
 _ZNK16QgsSymbolLayerV25colorEv@Base {QGIS_ABI}
 _ZNK17QgsComposerLegend10drawSymbolEP8QPainterP9QgsSymboldRdS4_i@Base {QGIS_ABI}
 _ZNK17QgsComposerLegend10metaObjectEv@Base {QGIS_ABI}
 _ZNK17QgsComposerLegend11layerIdListEv@Base {QGIS_ABI}
 _ZNK17QgsComposerLegend14drawLineSymbolEP8QPainterP9QgsSymboldRdi@Base {QGIS_ABI}
 _ZNK17QgsComposerLegend15drawPointSymbolEP8QPainterP9QgsSymboldRdS4_i@Base {QGIS_ABI}
 _ZNK17QgsComposerLegend17drawPolygonSymbolEP8QPainterP9QgsSymboldRdi@Base {QGIS_ABI}
 _ZNK17QgsComposerLegend8itemFontEv@Base {QGIS_ABI}
 _ZNK17QgsComposerLegend8writeXMLER11QDomElementR12QDomDocument@Base {QGIS_ABI}
 _ZNK17QgsComposerLegend9layerFontEv@Base {QGIS_ABI}
 _ZNK17QgsComposerLegend9titleFontEv@Base {QGIS_ABI}
 _ZNK17QgsMarkerSymbolV25cloneEv@Base {QGIS_ABI}
 _ZNK18QgsAttributeAction14retrieveActionEj@Base {QGIS_ABI}
 _ZNK18QgsAttributeAction8writeXMLER8QDomNodeR12QDomDocument@Base {QGIS_ABI}
 _ZNK18QgsComposerPicture10metaObjectEv@Base {QGIS_ABI}
 _ZNK18QgsComposerPicture11pictureFileEv@Base {QGIS_ABI}
 _ZNK18QgsComposerPicture11rotationMapEv@Base {QGIS_ABI}
 _ZNK18QgsComposerPicture28imageSizeConsideringRotationERdS0_@Base {QGIS_ABI}
 _ZNK18QgsComposerPicture33cornerPointOnRotatedAndScaledRectERdS0_dd@Base {QGIS_ABI}
 _ZNK18QgsComposerPicture8writeXMLER11QDomElementR12QDomDocument@Base {QGIS_ABI}
 _ZNK18QgsHttpTransaction10metaObjectEv@Base {QGIS_ABI}
 _ZNK18QgsLabelAttributes10angleIsSetEv@Base {QGIS_ABI}
 _ZNK18QgsLabelAttributes10bufferSizeEv@Base {QGIS_ABI}
 _ZNK18QgsLabelAttributes10colorIsSetEv@Base {QGIS_ABI}
 _ZNK18QgsLabelAttributes10offsetTypeEv@Base {QGIS_ABI}
 _ZNK18QgsLabelAttributes11angleIsAutoEv@Base {QGIS_ABI}
 _ZNK18QgsLabelAttributes11borderColorEv@Base {QGIS_ABI}
 _ZNK18QgsLabelAttributes11borderStyleEv@Base {QGIS_ABI}
 _ZNK18QgsLabelAttributes11borderWidthEv@Base {QGIS_ABI}
 _ZNK18QgsLabelAttributes11bufferColorEv@Base {QGIS_ABI}
 _ZNK18QgsLabelAttributes11bufferStyleEv@Base {QGIS_ABI}
 _ZNK18QgsLabelAttributes11familyIsSetEv@Base {QGIS_ABI}
 _ZNK18QgsLabelAttributes11italicIsSetEv@Base {QGIS_ABI}
 _ZNK18QgsLabelAttributes11offsetIsSetEv@Base {QGIS_ABI}
 _ZNK18QgsLabelAttributes13bufferEnabledEv@Base {QGIS_ABI}
 _ZNK18QgsLabelAttributes14alignmentIsSetEv@Base {QGIS_ABI}
 _ZNK18QgsLabelAttributes14bufferSizeTypeEv@Base {QGIS_ABI}
 _ZNK18QgsLabelAttributes14strikeOutIsSetEv@Base {QGIS_ABI}
 _ZNK18QgsLabelAttributes14underlineIsSetEv@Base {QGIS_ABI}
 _ZNK18QgsLabelAttributes15bufferSizeIsSetEv@Base {QGIS_ABI}
 _ZNK18QgsLabelAttributes16borderColorIsSetEv@Base {QGIS_ABI}
 _ZNK18QgsLabelAttributes16borderStyleIsSetEv@Base {QGIS_ABI}
 _ZNK18QgsLabelAttributes16borderWidthIsSetEv@Base {QGIS_ABI}
 _ZNK18QgsLabelAttributes16bufferColorIsSetEv@Base {QGIS_ABI}
 _ZNK18QgsLabelAttributes16bufferStyleIsSetEv@Base {QGIS_ABI}
 _ZNK18QgsLabelAttributes16multilineEnabledEv@Base {QGIS_ABI}
 _ZNK18QgsLabelAttributes4boldEv@Base {QGIS_ABI}
 _ZNK18QgsLabelAttributes4sizeEv@Base {QGIS_ABI}
 _ZNK18QgsLabelAttributes4textEv@Base {QGIS_ABI}
 _ZNK18QgsLabelAttributes5angleEv@Base {QGIS_ABI}
 _ZNK18QgsLabelAttributes5colorEv@Base {QGIS_ABI}
 _ZNK18QgsLabelAttributes6familyEv@Base {QGIS_ABI}
 _ZNK18QgsLabelAttributes6italicEv@Base {QGIS_ABI}
 _ZNK18QgsLabelAttributes7xOffsetEv@Base {QGIS_ABI}
 _ZNK18QgsLabelAttributes7yOffsetEv@Base {QGIS_ABI}
 _ZNK18QgsLabelAttributes8sizeTypeEv@Base {QGIS_ABI}
 _ZNK18QgsLabelAttributes9alignmentEv@Base {QGIS_ABI}
 _ZNK18QgsLabelAttributes9boldIsSetEv@Base {QGIS_ABI}
 _ZNK18QgsLabelAttributes9sizeIsSetEv@Base {QGIS_ABI}
 _ZNK18QgsLabelAttributes9strikeOutEv@Base {QGIS_ABI}
 _ZNK18QgsLabelAttributes9textIsSetEv@Base {QGIS_ABI}
 _ZNK18QgsLabelAttributes9underlineEv@Base {QGIS_ABI}
 _ZNK18QgsMarkerCatalogue10metaObjectEv@Base {QGIS_ABI}
 _ZNK18QgsRendererRangeV210lowerValueEv@Base {QGIS_ABI}
 _ZNK18QgsRendererRangeV210upperValueEv@Base {QGIS_ABI}
 _ZNK18QgsRendererRangeV25labelEv@Base {QGIS_ABI}
 _ZNK18QgsRendererRangeV26symbolEv@Base {QGIS_ABI}
 _ZNK18QgsScaleCalculator8mapUnitsEv@Base {QGIS_ABI}
 _ZNK19QgsComposerScaleBar10metaObjectEv@Base {QGIS_ABI}
 _ZNK19QgsComposerScaleBar16firstLabelStringEv@Base {QGIS_ABI}
 _ZNK19QgsComposerScaleBar16segmentPositionsER5QListI5QPairIddEE@Base {QGIS_ABI}
 _ZNK19QgsComposerScaleBar4fontEv@Base {QGIS_ABI}
 _ZNK19QgsComposerScaleBar5styleEv@Base {QGIS_ABI}
 _ZNK19QgsComposerScaleBar8writeXMLER11QDomElementR12QDomDocument@Base {QGIS_ABI}
 _ZNK19QgsMapLayerRegistry10metaObjectEv@Base {QGIS_ABI}
 _ZNK19QgsProviderMetadata11descriptionEv@Base {QGIS_ABI}
 _ZNK19QgsProviderMetadata3keyEv@Base {QGIS_ABI}
 _ZNK19QgsProviderMetadata7libraryEv@Base {QGIS_ABI}
 _ZNK19QgsProviderRegistry10pluginListEb@Base {QGIS_ABI}
 _ZNK19QgsProviderRegistry12providerListEv@Base {QGIS_ABI}
 _ZNK19QgsProviderRegistry15databaseDriversEv@Base {QGIS_ABI}
 _ZNK19QgsProviderRegistry15protocolDriversEv@Base {QGIS_ABI}
 _ZNK19QgsProviderRegistry16directoryDriversEv@Base {QGIS_ABI}
 _ZNK19QgsProviderRegistry16libraryDirectoryEv@Base {QGIS_ABI}
 _ZNK19QgsProviderRegistry16providerMetadataERK7QString@Base {QGIS_ABI}
 _ZNK19QgsProviderRegistry17fileVectorFiltersEv@Base {QGIS_ABI}
 _ZNK19QgsProviderRegistry7libraryERK7QString@Base {QGIS_ABI}
 _ZNK20QgsComposerItemGroup10metaObjectEv@Base {QGIS_ABI}
 _ZNK20QgsComposerItemGroup8writeXMLER11QDomElementR12QDomDocument@Base {QGIS_ABI}
 _ZNK21QgsRasterDataProvider10metaObjectEv@Base {QGIS_ABI}
 _ZNK21QgsRasterDataProvider12capabilitiesEv@Base {QGIS_ABI}
 _ZNK21QgsRasterDataProvider18capabilitiesStringEv@Base {QGIS_ABI}
 _ZNK21QgsRasterTransparency10alphaValueEdddi@Base {QGIS_ABI}
 _ZNK21QgsRasterTransparency10alphaValueEdi@Base {QGIS_ABI}
 _ZNK21QgsRasterTransparency30transparentThreeValuePixelListEv@Base {QGIS_ABI}
 _ZNK21QgsRasterTransparency31transparentSingleValuePixelListEv@Base {QGIS_ABI}
 _ZNK21QgsRendererCategoryV25labelEv@Base {QGIS_ABI}
 _ZNK21QgsRendererCategoryV25valueEv@Base {QGIS_ABI}
 _ZNK21QgsRendererCategoryV26symbolEv@Base {QGIS_ABI}
 _ZNK21QgsTicksScaleBarStyle4drawEP8QPainterd@Base {QGIS_ABI}
 _ZNK21QgsTicksScaleBarStyle4nameEv@Base {QGIS_ABI}
 _ZNK21QgsVectorDataProvider11dataCommentEv@Base {QGIS_ABI}
 _ZNK21QgsVectorDataProvider11nativeTypesEv@Base {QGIS_ABI}
 _ZNK21QgsVectorDataProvider11storageTypeEv@Base {QGIS_ABI}
 _ZNK21QgsVectorDataProvider12capabilitiesEv@Base {QGIS_ABI}
 _ZNK21QgsVectorDataProvider12fieldNameMapEv@Base {QGIS_ABI}
 _ZNK21QgsVectorDataProvider13supportedTypeERK8QgsField@Base {QGIS_ABI}
 _ZNK21QgsVectorDataProvider14fieldNameIndexERK7QString@Base {QGIS_ABI}
 _ZNK21QgsVectorDataProvider18capabilitiesStringEv@Base {QGIS_ABI}
 _ZNK21QgsVectorDataProvider20supportedNativeTypesEv@Base {QGIS_ABI}
 _ZNK21QgsVectorDataProvider26doesStrictFeatureTypeCheckEv@Base {QGIS_ABI}
 _ZNK21QgsVectorDataProvider8encodingEv@Base {QGIS_ABI}
 _ZNK22QgsCoordinateTransform10metaObjectEv@Base {QGIS_ABI}
 _ZNK22QgsCoordinateTransform15transformCoordsERKiPdS2_S2_NS_18TransformDirectionE@Base {QGIS_ABI}
 _ZNK22QgsCoordinateTransform16transformInPlaceERSt6vectorIdSaIdEES3_S3_NS_18TransformDirectionE@Base {QGIS_ABI}
 _ZNK22QgsCoordinateTransform16transformInPlaceERdS0_S0_NS_18TransformDirectionE@Base {QGIS_ABI}
 _ZNK22QgsCoordinateTransform20transformBoundingBoxE12QgsRectangleNS_18TransformDirectionE@Base {QGIS_ABI}
 _ZNK22QgsCoordinateTransform21invalidTransformInputEv@Base {QGIS_ABI}
 _ZNK22QgsCoordinateTransform9transformE12QgsRectangleNS_18TransformDirectionE@Base {QGIS_ABI}
 _ZNK22QgsCoordinateTransform9transformE8QgsPointNS_18TransformDirectionE@Base {QGIS_ABI}
 _ZNK22QgsCoordinateTransform9transformEddNS_18TransformDirectionE@Base {QGIS_ABI}
 _ZNK22QgsUniqueValueRenderer15needsAttributesEv@Base {QGIS_ABI}
 _ZNK22QgsUniqueValueRenderer19classificationFieldEv@Base {QGIS_ABI}
 _ZNK22QgsUniqueValueRenderer24classificationAttributesEv@Base {QGIS_ABI}
 _ZNK22QgsUniqueValueRenderer4nameEv@Base {QGIS_ABI}
 _ZNK22QgsUniqueValueRenderer5cloneEv@Base {QGIS_ABI}
 _ZNK22QgsUniqueValueRenderer7symbolsEv@Base {QGIS_ABI}
 _ZNK22QgsUniqueValueRenderer8writeXMLER8QDomNodeR12QDomDocumentRK14QgsVectorLayer@Base {QGIS_ABI}
 _ZNK23QgsMessageOutputConsole10metaObjectEv@Base {QGIS_ABI}
 _ZNK23QgsNumericScaleBarStyle16calculateBoxSizeEv@Base {QGIS_ABI}
 _ZNK23QgsNumericScaleBarStyle4drawEP8QPainterd@Base {QGIS_ABI}
 _ZNK23QgsNumericScaleBarStyle4nameEv@Base {QGIS_ABI}
 _ZNK23QgsNumericScaleBarStyle9scaleTextEv@Base {QGIS_ABI}
 _ZNK23QgsSingleSymbolRenderer15needsAttributesEv@Base {QGIS_ABI}
 _ZNK23QgsSingleSymbolRenderer24classificationAttributesEv@Base {QGIS_ABI}
 _ZNK23QgsSingleSymbolRenderer4nameEv@Base {QGIS_ABI}
 _ZNK23QgsSingleSymbolRenderer5cloneEv@Base {QGIS_ABI}
 _ZNK23QgsSingleSymbolRenderer7symbolsEv@Base {QGIS_ABI}
 _ZNK23QgsSingleSymbolRenderer8writeXMLER8QDomNodeR12QDomDocumentRK14QgsVectorLayer@Base {QGIS_ABI}
 _ZNK24QgsSymbolLayerV2Registry17createSymbolLayerE7QStringRK4QMapIS0_S0_E@Base {QGIS_ABI}
 _ZNK24QgsSymbolLayerV2Registry19symbolLayerMetadataE7QString@Base {QGIS_ABI}
 _ZNK25QgsDoubleBoxScaleBarStyle4drawEP8QPainterd@Base {QGIS_ABI}
 _ZNK25QgsDoubleBoxScaleBarStyle4nameEv@Base {QGIS_ABI}
 _ZNK25QgsProviderCountCalcEvent15featuresCountedEv@Base {QGIS_ABI}
 _ZNK25QgsSingleBoxScaleBarStyle4drawEP8QPainterd@Base {QGIS_ABI}
 _ZNK25QgsSingleBoxScaleBarStyle4nameEv@Base {QGIS_ABI}
 _ZNK25QgsSingleSymbolRendererV26symbolEv@Base {QGIS_ABI}
 _ZNK25QgsSvgMarkerSymbolLayerV210propertiesEv@Base {QGIS_ABI}
 _ZNK25QgsSvgMarkerSymbolLayerV25cloneEv@Base {QGIS_ABI}
 _ZNK25QgsSvgMarkerSymbolLayerV29layerTypeEv@Base {QGIS_ABI}
 _ZNK26QgsContinuousColorRenderer15needsAttributesEv@Base {QGIS_ABI}
 _ZNK26QgsContinuousColorRenderer24classificationAttributesEv@Base {QGIS_ABI}
 _ZNK26QgsContinuousColorRenderer4nameEv@Base {QGIS_ABI}
 _ZNK26QgsContinuousColorRenderer5cloneEv@Base {QGIS_ABI}
 _ZNK26QgsContinuousColorRenderer7symbolsEv@Base {QGIS_ABI}
 _ZNK26QgsContinuousColorRenderer8writeXMLER8QDomNodeR12QDomDocumentRK14QgsVectorLayer@Base {QGIS_ABI}
 _ZNK26QgsGraduatedSymbolRenderer15needsAttributesEv@Base {QGIS_ABI}
 _ZNK26QgsGraduatedSymbolRenderer24classificationAttributesEv@Base {QGIS_ABI}
 _ZNK26QgsGraduatedSymbolRenderer4modeEv@Base {QGIS_ABI}
 _ZNK26QgsGraduatedSymbolRenderer4nameEv@Base {QGIS_ABI}
 _ZNK26QgsGraduatedSymbolRenderer5cloneEv@Base {QGIS_ABI}
 _ZNK26QgsGraduatedSymbolRenderer7symbolsEv@Base {QGIS_ABI}
 _ZNK26QgsGraduatedSymbolRenderer8writeXMLER8QDomNodeR12QDomDocumentRK14QgsVectorLayer@Base {QGIS_ABI}
 _ZNK26QgsMarkerLineSymbolLayerV210propertiesEv@Base {QGIS_ABI}
 _ZNK26QgsMarkerLineSymbolLayerV25cloneEv@Base {QGIS_ABI}
 _ZNK26QgsMarkerLineSymbolLayerV29layerTypeEv@Base {QGIS_ABI}
 _ZNK26QgsProviderExtentCalcEvent11layerExtentEv@Base {QGIS_ABI}
 _ZNK26QgsSimpleFillSymbolLayerV210propertiesEv@Base {QGIS_ABI}
 _ZNK26QgsSimpleFillSymbolLayerV25cloneEv@Base {QGIS_ABI}
 _ZNK26QgsSimpleFillSymbolLayerV29layerTypeEv@Base {QGIS_ABI}
 _ZNK26QgsSimpleLineSymbolLayerV210propertiesEv@Base {QGIS_ABI}
 _ZNK26QgsSimpleLineSymbolLayerV25cloneEv@Base {QGIS_ABI}
 _ZNK26QgsSimpleLineSymbolLayerV29layerTypeEv@Base {QGIS_ABI}
 _ZNK26QgsVectorRandomColorRampV210propertiesEv@Base {QGIS_ABI}
 _ZNK26QgsVectorRandomColorRampV24typeEv@Base {QGIS_ABI}
 _ZNK26QgsVectorRandomColorRampV25cloneEv@Base {QGIS_ABI}
 _ZNK26QgsVectorRandomColorRampV25colorEd@Base {QGIS_ABI}
 _ZNK28QgsCoordinateReferenceSystem11descriptionEv@Base {QGIS_ABI}
 _ZNK28QgsCoordinateReferenceSystem11postgisSridEv@Base {QGIS_ABI}
 _ZNK28QgsCoordinateReferenceSystem14geographicFlagEv@Base {QGIS_ABI}
 _ZNK28QgsCoordinateReferenceSystem16ellipsoidAcronymEv@Base {QGIS_ABI}
 _ZNK28QgsCoordinateReferenceSystem17projectionAcronymEv@Base {QGIS_ABI}
 _ZNK28QgsCoordinateReferenceSystem4epsgEv@Base {QGIS_ABI}
 _ZNK28QgsCoordinateReferenceSystem5srsidEv@Base {QGIS_ABI}
 _ZNK28QgsCoordinateReferenceSystem5toWktEv@Base {QGIS_ABI}
 _ZNK28QgsCoordinateReferenceSystem7isValidEv@Base {QGIS_ABI}
 _ZNK28QgsCoordinateReferenceSystem7toProj4Ev@Base {QGIS_ABI}
 _ZNK28QgsCoordinateReferenceSystem8mapUnitsEv@Base {QGIS_ABI}
 _ZNK28QgsCoordinateReferenceSystem8writeXMLER8QDomNodeR12QDomDocument@Base {QGIS_ABI}
 _ZNK28QgsSimpleMarkerSymbolLayerV210propertiesEv@Base {QGIS_ABI}
 _ZNK28QgsSimpleMarkerSymbolLayerV25cloneEv@Base {QGIS_ABI}
 _ZNK28QgsSimpleMarkerSymbolLayerV29layerTypeEv@Base {QGIS_ABI}
 _ZNK28QgsVectorGradientColorRampV210propertiesEv@Base {QGIS_ABI}
 _ZNK28QgsVectorGradientColorRampV24typeEv@Base {QGIS_ABI}
 _ZNK28QgsVectorGradientColorRampV25cloneEv@Base {QGIS_ABI}
 _ZNK28QgsVectorGradientColorRampV25colorEd@Base {QGIS_ABI}
 _ZNK30QgsCentralPointPositionManager18findObjectPositionEPKhR8QgsPoint@Base {QGIS_ABI}
 _ZNK30QgsCentralPointPositionManager24calculatePolygonCentroidEPdS0_iRdS1_@Base {QGIS_ABI}
 _ZNK30QgsLineDecorationSymbolLayerV210propertiesEv@Base {QGIS_ABI}
 _ZNK30QgsLineDecorationSymbolLayerV25cloneEv@Base {QGIS_ABI}
 _ZNK30QgsLineDecorationSymbolLayerV29layerTypeEv@Base {QGIS_ABI}
 _ZNK31QgsVectorColorBrewerColorRampV210propertiesEv@Base {QGIS_ABI}
 _ZNK31QgsVectorColorBrewerColorRampV24typeEv@Base {QGIS_ABI}
 _ZNK31QgsVectorColorBrewerColorRampV25cloneEv@Base {QGIS_ABI}
 _ZNK31QgsVectorColorBrewerColorRampV25colorEd@Base {QGIS_ABI}
 _ZNK3pal12PalException11LayerExists4whatEv@Base {QGIS_ABI}
 _ZNK3pal12PalException12UnknownLayer4whatEv@Base {QGIS_ABI}
 _ZNK3pal12PalException13FeatureExists4whatEv@Base {QGIS_ABI}
 _ZNK3pal12PalException14UnknownFeature4whatEv@Base {QGIS_ABI}
 _ZNK3pal12PalException15ValueNotInRange4whatEv@Base {QGIS_ABI}
 _ZNK3pal13LabelPosition12getLayerNameEv@Base {QGIS_ABI}
 _ZNK3pal13LabelPosition14getBoundingBoxEPdS1_@Base {QGIS_ABI}
 _ZNK3pal13LabelPosition4getXEi@Base {QGIS_ABI}
 _ZNK3pal13LabelPosition4getYEi@Base {QGIS_ABI}
 _ZNK3pal13LabelPosition5getIdEv@Base {QGIS_ABI}
 _ZNK3pal13LabelPosition7getCostEv@Base {QGIS_ABI}
 _ZNK3pal13LabelPosition8getAlphaEv@Base {QGIS_ABI}
 _ZNK3pal17InternalException15UnknownGeometry4whatEv@Base {QGIS_ABI}
 _ZNK3pal17InternalException4Full4whatEv@Base {QGIS_ABI}
 _ZNK3pal17InternalException5Empty4whatEv@Base {QGIS_ABI}
 _ZNK4QMapI7QStringN14QgsVectorLayer8EditTypeEE15mutableFindNodeEPPN8QMapData4NodeERKS0_@Base {QGIS_ABI}
 _ZNK4QMapI7QStringP11QgsSymbolV2E15mutableFindNodeEPPN8QMapData4NodeERKS0_@Base {QGIS_ABI}
 _ZNK4QMapI7QStringP11QgsSymbolV2E8findNodeERKS0_@Base {QGIS_ABI}
 _ZNK4QMapI7QStringP20QgsVectorColorRampV2E15mutableFindNodeEPPN8QMapData4NodeERKS0_@Base {QGIS_ABI}
 _ZNK4QMapI7QStringP20QgsVectorColorRampV2E8findNodeERKS0_@Base {QGIS_ABI}
 _ZNK4QMapI7QStringP9QgsSymbolE6valuesEv@Base {QGIS_ABI}
 _ZNK4QMapI7QStringS_IS0_8QVariantEE15mutableFindNodeEPPN8QMapData4NodeERKS0_@Base {QGIS_ABI}
 _ZNK4QMapIi8QgsFieldE8containsERKi@Base {QGIS_ABI}
 _ZNK4QMapIi8QgsFieldEixERKi@Base {QGIS_ABI}
 _ZNK5QHashI7QString15QHashDummyValueE8findNodeERKS0_Pj@Base {QGIS_ABI}
 _ZNK5QHashI7QStringP11QgsPropertyE8findNodeERKS0_Pj@Base {QGIS_ABI}
 _ZNK5QHashI7QStringP11QgsSymbolV2E8findNodeERKS0_Pj@Base {QGIS_ABI}
 _ZNK5QHashIP11QgsSymbolV25QListI10QgsFeatureEE8findNodeERKS1_Pj@Base {QGIS_ABI}
 _ZNK5QHashIP15QgsComposerItem15QHashDummyValueE8findNodeERKS1_Pj@Base {QGIS_ABI}
 _ZNK5QHashIP9QgsSymbol15QHashDummyValueE8findNodeERKS1_Pj@Base {QGIS_ABI}
 _ZNK5QHashIi15QHashDummyValueE8findNodeERKiPj@Base {QGIS_ABI}
 _ZNK5QListI8QgsPointE8toVectorEv@Base {QGIS_ABI}
 _ZNK5QListIN18QgsColorRampShader13ColorRampItemEE5valueEi@Base {QGIS_ABI}
 _ZNK5QListIN21QgsVectorDataProvider10NativeTypeEEixEi@Base {QGIS_ABI}
 _ZNK5Tools12ExternalSort7PQEntry19ascendingComparatorclEPS1_S3_@Base {QGIS_ABI}
 _ZNK5Tools8Geometry11LineSegment12getDimensionEv@Base {QGIS_ABI}
 _ZNK5Tools8Geometry11LineSegment12touchesShapeERKNS0_6IShapeE@Base {QGIS_ABI}
 _ZNK5Tools8Geometry11LineSegment13containsShapeERKNS0_6IShapeE@Base {QGIS_ABI}
 _ZNK5Tools8Geometry11LineSegment15intersectsShapeERKNS0_6IShapeE@Base {QGIS_ABI}
 _ZNK5Tools8Geometry11LineSegment18getMinimumDistanceERKNS0_5PointE@Base {QGIS_ABI}
 _ZNK5Tools8Geometry11LineSegment18getMinimumDistanceERKNS0_6IShapeE@Base {QGIS_ABI}
 _ZNK5Tools8Geometry11LineSegment26getRelativeMaximumDistanceERKNS0_6RegionE@Base {QGIS_ABI}
 _ZNK5Tools8Geometry11LineSegment26getRelativeMinimumDistanceERKNS0_5PointE@Base {QGIS_ABI}
 _ZNK5Tools8Geometry11LineSegment6getMBRERNS0_6RegionE@Base {QGIS_ABI}
 _ZNK5Tools8Geometry11LineSegment7getAreaEv@Base {QGIS_ABI}
 _ZNK5Tools8Geometry11LineSegment9getCenterERNS0_5PointE@Base {QGIS_ABI}
 _ZNK5Tools8Geometry11LineSegmenteqERKS1_@Base {QGIS_ABI}
 _ZNK5Tools8Geometry5Point12getDimensionEv@Base {QGIS_ABI}
 _ZNK5Tools8Geometry5Point12touchesShapeERKNS0_6IShapeE@Base {QGIS_ABI}
 _ZNK5Tools8Geometry5Point13containsShapeERKNS0_6IShapeE@Base {QGIS_ABI}
 _ZNK5Tools8Geometry5Point13getCoordinateEm@Base {QGIS_ABI}
 _ZNK5Tools8Geometry5Point15intersectsShapeERKNS0_6IShapeE@Base {QGIS_ABI}
 _ZNK5Tools8Geometry5Point18getMinimumDistanceERKNS0_6IShapeE@Base {QGIS_ABI}
 _ZNK5Tools8Geometry5Point18getMinimumDistanceERKS1_@Base {QGIS_ABI}
 _ZNK5Tools8Geometry5Point6getMBRERNS0_6RegionE@Base {QGIS_ABI}
 _ZNK5Tools8Geometry5Point7getAreaEv@Base {QGIS_ABI}
 _ZNK5Tools8Geometry5Point9getCenterERS1_@Base {QGIS_ABI}
 _ZNK5Tools8Geometry5PointeqERKS1_@Base {QGIS_ABI}
 _ZNK5Tools8Geometry6Region12getDimensionEv@Base {QGIS_ABI}
 _ZNK5Tools8Geometry6Region12touchesPointERKNS0_5PointE@Base {QGIS_ABI}
 _ZNK5Tools8Geometry6Region12touchesShapeERKNS0_6IShapeE@Base {QGIS_ABI}
 _ZNK5Tools8Geometry6Region13containsPointERKNS0_5PointE@Base {QGIS_ABI}
 _ZNK5Tools8Geometry6Region13containsShapeERKNS0_6IShapeE@Base {QGIS_ABI}
 _ZNK5Tools8Geometry6Region13touchesRegionERKS1_@Base {QGIS_ABI}
 _ZNK5Tools8Geometry6Region14containsRegionERKS1_@Base {QGIS_ABI}
 _ZNK5Tools8Geometry6Region15intersectsShapeERKNS0_6IShapeE@Base {QGIS_ABI}
 _ZNK5Tools8Geometry6Region16intersectsRegionERKS1_@Base {QGIS_ABI}
 _ZNK5Tools8Geometry6Region17getCombinedRegionERS1_RKS1_@Base {QGIS_ABI}
 _ZNK5Tools8Geometry6Region18getMinimumDistanceERKNS0_5PointE@Base {QGIS_ABI}
 _ZNK5Tools8Geometry6Region18getMinimumDistanceERKNS0_6IShapeE@Base {QGIS_ABI}
 _ZNK5Tools8Geometry6Region18getMinimumDistanceERKS1_@Base {QGIS_ABI}
 _ZNK5Tools8Geometry6Region19getIntersectingAreaERKS1_@Base {QGIS_ABI}
 _ZNK5Tools8Geometry6Region21getIntersectingRegionERKS1_@Base {QGIS_ABI}
 _ZNK5Tools8Geometry6Region6getLowEm@Base {QGIS_ABI}
 _ZNK5Tools8Geometry6Region6getMBRERS1_@Base {QGIS_ABI}
 _ZNK5Tools8Geometry6Region7getAreaEv@Base {QGIS_ABI}
 _ZNK5Tools8Geometry6Region7getHighEm@Base {QGIS_ABI}
 _ZNK5Tools8Geometry6Region9getCenterERNS0_5PointE@Base {QGIS_ABI}
 _ZNK5Tools8Geometry6Region9getMarginEv@Base {QGIS_ABI}
 _ZNK5Tools8Geometry6RegioneqERKS1_@Base {QGIS_ABI}
 _ZNK5Tools8Interval13getLowerBoundEv@Base {QGIS_ABI}
 _ZNK5Tools8Interval13getUpperBoundEv@Base {QGIS_ABI}
 _ZNK5Tools8Interval15getIntervalTypeEv@Base {QGIS_ABI}
 _ZNK5Tools8Interval16containsIntervalERKNS_9IIntervalE@Base {QGIS_ABI}
 _ZNK5Tools8Interval18intersectsIntervalENS_12IntervalTypeEdd@Base {QGIS_ABI}
 _ZNK5Tools8Interval18intersectsIntervalERKNS_9IIntervalE@Base {QGIS_ABI}
 _ZNK5Tools8IntervaleqERKS0_@Base {QGIS_ABI}
 _ZNK5Tools8IntervalneERKS0_@Base {QGIS_ABI}
 _ZNK7QString3argEiiiRK5QChar@Base {QGIS_ABI}
 _ZNK7QString8containsERKS_N2Qt15CaseSensitivityE@Base {QGIS_ABI}
 _ZNK7QStringeqEPKc@Base {QGIS_ABI}
 _ZNK8QgsField4nameEv@Base {QGIS_ABI}
 _ZNK8QgsField4typeEv@Base {QGIS_ABI}
 _ZNK8QgsField6lengthEv@Base {QGIS_ABI}
 _ZNK8QgsField7commentEv@Base {QGIS_ABI}
 _ZNK8QgsField8typeNameEv@Base {QGIS_ABI}
 _ZNK8QgsField9precisionEv@Base {QGIS_ABI}
 _ZNK8QgsFieldeqERKS_@Base {QGIS_ABI}
 _ZNK8QgsLabel10labelFieldEi@Base {QGIS_ABI}
 _ZNK8QgsLabel17addRequiredFieldsER5QListIiE@Base {QGIS_ABI}
 _ZNK8QgsLabel20scaleBasedVisibilityEv@Base {QGIS_ABI}
 _ZNK8QgsLabel8maxScaleEv@Base {QGIS_ABI}
 _ZNK8QgsLabel8minScaleEv@Base {QGIS_ABI}
 _ZNK8QgsLabel8writeXMLER8QDomNodeR12QDomDocument@Base {QGIS_ABI}
 _ZNK8QgsPoint13wellKnownTextEv@Base {QGIS_ABI}
 _ZNK8QgsPoint23toDegreesMinutesSecondsEi@Base {QGIS_ABI}
 _ZNK8QgsPoint7sqrDistERKS_@Base {QGIS_ABI}
 _ZNK8QgsPoint7sqrDistEdd@Base {QGIS_ABI}
 _ZNK8QgsPoint8toStringEi@Base {QGIS_ABI}
 _ZNK8QgsPoint8toStringEv@Base {QGIS_ABI}
 _ZNK8QgsPoint9onSegmentERKS_S1_@Base {QGIS_ABI}
 _ZNK8QgsPointneERKS_@Base {QGIS_ABI}
 _ZNK9QgsSymbol10appendTextER11QDomElementR12QDomDocument7QStringS4_@Base {QGIS_ABI}
 _ZNK9QgsSymbol10lowerValueEv@Base {QGIS_ABI}
 _ZNK9QgsSymbol10upperValueEv@Base {QGIS_ABI}
 _ZNK9QgsSymbol11appendFieldER11QDomElementR12QDomDocumentRK14QgsVectorLayer7QStringi@Base {QGIS_ABI}
 _ZNK9QgsSymbol11symbolFieldEv@Base {QGIS_ABI}
 _ZNK9QgsSymbol13customTextureEv@Base {QGIS_ABI}
 _ZNK9QgsSymbol14pointSizeUnitsEv@Base {QGIS_ABI}
 _ZNK9QgsSymbol15pointSymbolNameEv@Base {QGIS_ABI}
 _ZNK9QgsSymbol24scaleClassificationFieldEv@Base {QGIS_ABI}
 _ZNK9QgsSymbol27rotationClassificationFieldEv@Base {QGIS_ABI}
 _ZNK9QgsSymbol3penEv@Base {QGIS_ABI}
 _ZNK9QgsSymbol5brushEv@Base {QGIS_ABI}
 _ZNK9QgsSymbol5colorEv@Base {QGIS_ABI}
 _ZNK9QgsSymbol5labelEv@Base {QGIS_ABI}
 _ZNK9QgsSymbol8writeXMLER8QDomNodeR12QDomDocumentPK14QgsVectorLayer@Base {QGIS_ABI}
 _ZNK9QgsSymbol9fillColorEv@Base {QGIS_ABI}
 _ZNK9QgsSymbol9lineWidthEv@Base {QGIS_ABI}
 _ZNK9QgsSymbol9pointSizeEv@Base {QGIS_ABI}
 _ZNSs12_S_constructIPcEES0_T_S1_RKSaIcESt20forward_iterator_tag@Base {QGIS_ABI}
 _ZNSt10_List_baseI8QDomNodeSaIS0_EED2Ev@Base {QGIS_ABI}
 _ZNSt11_Deque_baseIN12SpatialIndex5RTree5RTree13ValidateEntryESaIS3_EE15_M_create_nodesEPPS3_S7_@Base {QGIS_ABI}
 _ZNSt11_Deque_baseIN12SpatialIndex5RTree5RTree13ValidateEntryESaIS3_EE17_M_initialize_mapEj@Base {QGIS_ABI}
 _ZNSt11_Deque_baseIN12SpatialIndex5RTree5RTree13ValidateEntryESaIS3_EE17_M_initialize_mapEm@Base {QGIS_ABI}
 _ZNSt11_Deque_baseIN12SpatialIndex5RTree5RTree13ValidateEntryESaIS3_EED2Ev@Base {QGIS_ABI}
 _ZNSt11_Deque_baseIN5Tools11PoolPointerIN12SpatialIndex5RTree4NodeEEESaIS5_EE15_M_create_nodesEPPS5_S9_@Base {QGIS_ABI}
 _ZNSt11_Deque_baseIN5Tools11PoolPointerIN12SpatialIndex5RTree4NodeEEESaIS5_EE17_M_initialize_mapEj@Base {QGIS_ABI}
 _ZNSt11_Deque_baseIN5Tools11PoolPointerIN12SpatialIndex5RTree4NodeEEESaIS5_EE17_M_initialize_mapEm@Base {QGIS_ABI}
 _ZNSt11_Deque_baseIN5Tools11PoolPointerIN12SpatialIndex5RTree4NodeEEESaIS5_EED2Ev@Base {QGIS_ABI}
 _ZNSt11_Deque_baseIN5Tools12SmartPointerINS0_13TemporaryFileEEESaIS3_EE15_M_create_nodesEPPS3_S7_@Base {QGIS_ABI}
 _ZNSt11_Deque_baseIN5Tools12SmartPointerINS0_13TemporaryFileEEESaIS3_EE17_M_initialize_mapEj@Base {QGIS_ABI}
 _ZNSt11_Deque_baseIN5Tools12SmartPointerINS0_13TemporaryFileEEESaIS3_EE17_M_initialize_mapEm@Base {QGIS_ABI}
 _ZNSt11_Deque_baseIN5Tools12SmartPointerINS0_13TemporaryFileEEESaIS3_EED2Ev@Base {QGIS_ABI}
 _ZNSt11_Deque_baseIPN12SpatialIndex5RTree4NodeESaIS3_EE15_M_create_nodesEPPS3_S7_@Base {QGIS_ABI}
 _ZNSt11_Deque_baseIPN12SpatialIndex5RTree4NodeESaIS3_EE17_M_initialize_mapEj@Base {QGIS_ABI}
 _ZNSt11_Deque_baseIPN12SpatialIndex5RTree4NodeESaIS3_EE17_M_initialize_mapEm@Base {QGIS_ABI}
 _ZNSt11_Deque_baseIPN12SpatialIndex5RTree4NodeESaIS3_EED2Ev@Base {QGIS_ABI}
 _ZNSt11_Deque_baseIPN5Tools8Geometry5PointESaIS3_EE15_M_create_nodesEPPS3_S7_@Base {QGIS_ABI}
 _ZNSt11_Deque_baseIPN5Tools8Geometry5PointESaIS3_EE17_M_initialize_mapEj@Base {QGIS_ABI}
 _ZNSt11_Deque_baseIPN5Tools8Geometry5PointESaIS3_EE17_M_initialize_mapEm@Base {QGIS_ABI}
 _ZNSt11_Deque_baseIPN5Tools8Geometry5PointESaIS3_EED2Ev@Base {QGIS_ABI}
 _ZNSt11_Deque_baseIPN5Tools8Geometry6RegionESaIS3_EE15_M_create_nodesEPPS3_S7_@Base {QGIS_ABI}
 _ZNSt11_Deque_baseIPN5Tools8Geometry6RegionESaIS3_EE17_M_initialize_mapEj@Base {QGIS_ABI}
 _ZNSt11_Deque_baseIPN5Tools8Geometry6RegionESaIS3_EE17_M_initialize_mapEm@Base {QGIS_ABI}
 _ZNSt11_Deque_baseIPN5Tools8Geometry6RegionESaIS3_EED2Ev@Base {QGIS_ABI}
 _ZNSt11_Deque_baseIlSaIlEE15_M_create_nodesEPPlS3_@Base {QGIS_ABI}
 _ZNSt11_Deque_baseIlSaIlEE17_M_initialize_mapEj@Base {QGIS_ABI}
 _ZNSt11_Deque_baseIlSaIlEE17_M_initialize_mapEm@Base {QGIS_ABI}
 _ZNSt11_Deque_baseIlSaIlEED2Ev@Base {QGIS_ABI}
 _ZNSt12out_of_rangeC1ERKS_@Base {QGIS_ABI}
 _ZNSt12out_of_rangeD0Ev@Base {QGIS_ABI}
 _ZNSt12out_of_rangeD1Ev@Base {QGIS_ABI}
 _ZNSt14priority_queueIlSt6vectorIlSaIlEESt7greaterIlEE4pushERKl@Base {QGIS_ABI}
 _ZNSt14priority_queueIlSt6vectorIlSaIlEESt7greaterIlEED1Ev@Base {QGIS_ABI}
 _ZNSt15basic_stringbufIcSt11char_traitsIcESaIcEED1Ev@Base {QGIS_ABI}
 _ZNSt3mapI7QStringP19QgsProviderMetadataSt4lessIS0_ESaISt4pairIKS0_S2_EEED1Ev@Base {QGIS_ABI}
 _ZNSt3mapIlPN12SpatialIndex14StorageManager18DiskStorageManager5EntryESt4lessIlESaISt4pairIKlS4_EEE6insertERKS9_@Base {QGIS_ABI}
 _ZNSt3mapIlPN12SpatialIndex14StorageManager18DiskStorageManager5EntryESt4lessIlESaISt4pairIKlS4_EEED1Ev@Base {QGIS_ABI}
 _ZNSt3mapIlPN12SpatialIndex14StorageManager6Buffer5EntryESt4lessIlESaISt4pairIKlS4_EEED1Ev@Base {QGIS_ABI}
 _ZNSt5dequeIN12SpatialIndex5RTree5RTree13ValidateEntryESaIS3_EE16_M_push_back_auxERKS3_@Base {QGIS_ABI}
 _ZNSt5dequeIN12SpatialIndex5RTree5RTree13ValidateEntryESaIS3_EE17_M_reallocate_mapEjb@Base {QGIS_ABI}
 _ZNSt5dequeIN12SpatialIndex5RTree5RTree13ValidateEntryESaIS3_EE17_M_reallocate_mapEmb@Base {QGIS_ABI}
 _ZNSt5dequeIN12SpatialIndex5RTree5RTree13ValidateEntryESaIS3_EED1Ev@Base {QGIS_ABI}
 _ZNSt5dequeIN5Tools11PoolPointerIN12SpatialIndex5RTree4NodeEEESaIS5_EE17_M_reallocate_mapEjb@Base {QGIS_ABI}
 _ZNSt5dequeIN5Tools11PoolPointerIN12SpatialIndex5RTree4NodeEEESaIS5_EE17_M_reallocate_mapEmb@Base {QGIS_ABI}
 _ZNSt5dequeIN5Tools11PoolPointerIN12SpatialIndex5RTree4NodeEEESaIS5_EED1Ev@Base {QGIS_ABI}
 _ZNSt5dequeIN5Tools12SmartPointerINS0_13TemporaryFileEEESaIS3_EE13_M_insert_auxISt15_Deque_iteratorIS3_RS3_PS3_EEEvSA_T_SB_j@Base {QGIS_ABI}
 _ZNSt5dequeIN5Tools12SmartPointerINS0_13TemporaryFileEEESaIS3_EE13_M_insert_auxISt15_Deque_iteratorIS3_RS3_PS3_EEEvSA_T_SB_m@Base {QGIS_ABI}
 _ZNSt5dequeIN5Tools12SmartPointerINS0_13TemporaryFileEEESaIS3_EE17_M_reallocate_mapEjb@Base {QGIS_ABI}
 _ZNSt5dequeIN5Tools12SmartPointerINS0_13TemporaryFileEEESaIS3_EE17_M_reallocate_mapEmb@Base {QGIS_ABI}
 _ZNSt5dequeIN5Tools12SmartPointerINS0_13TemporaryFileEEESaIS3_EE19_M_range_insert_auxISt15_Deque_iteratorIS3_RS3_PS3_EEEvSA_T_SB_St20forward_iterator_tag@Base {QGIS_ABI}
 _ZNSt5dequeIN5Tools12SmartPointerINS0_13TemporaryFileEEESaIS3_EE22_M_reserve_map_at_backEj@Base {QGIS_ABI}
 _ZNSt5dequeIN5Tools12SmartPointerINS0_13TemporaryFileEEESaIS3_EE22_M_reserve_map_at_backEm@Base {QGIS_ABI}
 _ZNSt5dequeIN5Tools12SmartPointerINS0_13TemporaryFileEEESaIS3_EE23_M_new_elements_at_backEj@Base {QGIS_ABI}
 _ZNSt5dequeIN5Tools12SmartPointerINS0_13TemporaryFileEEESaIS3_EE23_M_new_elements_at_backEm@Base {QGIS_ABI}
 _ZNSt5dequeIN5Tools12SmartPointerINS0_13TemporaryFileEEESaIS3_EE24_M_new_elements_at_frontEj@Base {QGIS_ABI}
 _ZNSt5dequeIN5Tools12SmartPointerINS0_13TemporaryFileEEESaIS3_EE24_M_new_elements_at_frontEm@Base {QGIS_ABI}
 _ZNSt5dequeIN5Tools12SmartPointerINS0_13TemporaryFileEEESaIS3_EE28_M_reserve_elements_at_frontEj@Base {QGIS_ABI}
 _ZNSt5dequeIN5Tools12SmartPointerINS0_13TemporaryFileEEESaIS3_EE28_M_reserve_elements_at_frontEm@Base {QGIS_ABI}
 _ZNSt5dequeIN5Tools12SmartPointerINS0_13TemporaryFileEEESaIS3_EED1Ev@Base {QGIS_ABI}
 _ZNSt5dequeIPN12SpatialIndex5RTree4NodeESaIS3_EE17_M_reallocate_mapEjb@Base {QGIS_ABI}
 _ZNSt5dequeIPN12SpatialIndex5RTree4NodeESaIS3_EE17_M_reallocate_mapEmb@Base {QGIS_ABI}
 _ZNSt5dequeIPN5Tools8Geometry5PointESaIS3_EE17_M_reallocate_mapEjb@Base {QGIS_ABI}
 _ZNSt5dequeIPN5Tools8Geometry5PointESaIS3_EE17_M_reallocate_mapEmb@Base {QGIS_ABI}
 _ZNSt5dequeIPN5Tools8Geometry6RegionESaIS3_EE17_M_reallocate_mapEjb@Base {QGIS_ABI}
 _ZNSt5dequeIPN5Tools8Geometry6RegionESaIS3_EE17_M_reallocate_mapEmb@Base {QGIS_ABI}
 _ZNSt5dequeIlSaIlEE17_M_reallocate_mapEjb@Base {QGIS_ABI}
 _ZNSt5dequeIlSaIlEE17_M_reallocate_mapEmb@Base {QGIS_ABI}
 _ZNSt6vectorI7QStringSaIS0_EED1Ev@Base {QGIS_ABI}
 _ZNSt6vectorIN5Tools12SmartPointerIN12SpatialIndex5IDataEEESaIS4_EE13_M_insert_auxEN9__gnu_cxx17__normal_iteratorIPS4_S6_EERKS4_@Base {QGIS_ABI}
 _ZNSt6vectorIN5Tools12SmartPointerIN12SpatialIndex5IDataEEESaIS4_EED1Ev@Base {QGIS_ABI}
 _ZNSt6vectorIN5Tools12SmartPointerIN12SpatialIndex8ICommandEEESaIS4_EE13_M_insert_auxEN9__gnu_cxx17__normal_iteratorIPS4_S6_EERKS4_@Base {QGIS_ABI}
 _ZNSt6vectorIN5Tools12SmartPointerIN12SpatialIndex8ICommandEEESaIS4_EED1Ev@Base {QGIS_ABI}
 _ZNSt6vectorIN8QgsLabel10labelpointESaIS1_EE13_M_insert_auxEN9__gnu_cxx17__normal_iteratorIPS1_S3_EERKS1_@Base {QGIS_ABI}
 _ZNSt6vectorIPKN12SpatialIndex5IDataESaIS3_EE13_M_insert_auxEN9__gnu_cxx17__normal_iteratorIPS3_S5_EERKS3_@Base {QGIS_ABI}
 _ZNSt6vectorIPN12SpatialIndex14StorageManager20MemoryStorageManager5EntryESaIS4_EE13_M_insert_auxEN9__gnu_cxx17__normal_iteratorIPS4_S6_EERKS4_@Base {QGIS_ABI}
 _ZNSt6vectorIPN12SpatialIndex14StorageManager20MemoryStorageManager5EntryESaIS4_EED1Ev@Base {QGIS_ABI}
 _ZNSt6vectorIPN12SpatialIndex5RTree5RTree7NNEntryESaIS4_EE13_M_insert_auxEN9__gnu_cxx17__normal_iteratorIPS4_S6_EERKS4_@Base {QGIS_ABI}
 _ZNSt6vectorIPN5Tools12ExternalSort7PQEntryESaIS3_EE13_M_insert_auxEN9__gnu_cxx17__normal_iteratorIPS3_S5_EERKS3_@Base {QGIS_ABI}
 _ZNSt6vectorIPN5Tools12ExternalSort7PQEntryESaIS3_EED1Ev@Base {QGIS_ABI}
 _ZNSt6vectorIPSt4pairIS_IdSaIdEES2_ESaIS4_EE13_M_insert_auxEN9__gnu_cxx17__normal_iteratorIPS4_S6_EERKS4_@Base {QGIS_ABI}
 _ZNSt6vectorISsSaISsEE13_M_insert_auxEN9__gnu_cxx17__normal_iteratorIPSsS1_EERKSs@Base {QGIS_ABI}
 _ZNSt6vectorISsSaISsEED1Ev@Base {QGIS_ABI}
 _ZNSt6vectorIdSaIdEE13_M_insert_auxEN9__gnu_cxx17__normal_iteratorIPdS1_EERKd@Base {QGIS_ABI}
 _ZNSt6vectorIdSaIdEED1Ev@Base {QGIS_ABI}
 _ZNSt6vectorIiSaIiEE14_M_fill_insertEN9__gnu_cxx17__normal_iteratorIPiS1_EEjRKi@Base {QGIS_ABI}
 _ZNSt6vectorIiSaIiEE14_M_fill_insertEN9__gnu_cxx17__normal_iteratorIPiS1_EEmRKi@Base {QGIS_ABI}
 _ZNSt6vectorIlSaIlEE13_M_insert_auxEN9__gnu_cxx17__normal_iteratorIPlS1_EERKl@Base {QGIS_ABI}
 _ZNSt6vectorIlSaIlEE9push_backERKl@Base {QGIS_ABI}
 _ZNSt6vectorImSaImEE13_M_insert_auxEN9__gnu_cxx17__normal_iteratorIPmS1_EERKm@Base {QGIS_ABI}
 _ZNSt6vectorImSaImEEaSERKS1_@Base {QGIS_ABI}
 _ZNSt8_Rb_treeI7QStringSt4pairIKS0_P19QgsProviderMetadataESt10_Select1stIS5_ESt4lessIS0_ESaIS5_EE10_M_insert_EPKSt18_Rb_tree_node_baseSE_RKS5_@Base {QGIS_ABI}
 _ZNSt8_Rb_treeI7QStringSt4pairIKS0_P19QgsProviderMetadataESt10_Select1stIS5_ESt4lessIS0_ESaIS5_EE16_M_insert_uniqueERKS5_@Base {QGIS_ABI}
 _ZNSt8_Rb_treeI7QStringSt4pairIKS0_P19QgsProviderMetadataESt10_Select1stIS5_ESt4lessIS0_ESaIS5_EE17_M_insert_unique_ESt23_Rb_tree_const_iteratorIS5_ERKS5_@Base {QGIS_ABI}
 _ZNSt8_Rb_treeI7QStringSt4pairIKS0_P19QgsProviderMetadataESt10_Select1stIS5_ESt4lessIS0_ESaIS5_EE8_M_eraseEPSt13_Rb_tree_nodeIS5_E@Base {QGIS_ABI}
 _ZNSt8_Rb_treeISsSt4pairIKSsN5Tools7VariantEESt10_Select1stIS4_ESt4lessISsESaIS4_EE10_M_insert_EPKSt18_Rb_tree_node_baseSD_RKS4_@Base {QGIS_ABI}
 _ZNSt8_Rb_treeISsSt4pairIKSsN5Tools7VariantEESt10_Select1stIS4_ESt4lessISsESaIS4_EE16_M_insert_uniqueERKS4_@Base {QGIS_ABI}
 _ZNSt8_Rb_treeISsSt4pairIKSsN5Tools7VariantEESt10_Select1stIS4_ESt4lessISsESaIS4_EE8_M_eraseEPSt13_Rb_tree_nodeIS4_E@Base {QGIS_ABI}
 _ZNSt8_Rb_treeIlSt4pairIKlPN12SpatialIndex14StorageManager18DiskStorageManager5EntryEESt10_Select1stIS7_ESt4lessIlESaIS7_EE10_M_insert_EPKSt18_Rb_tree_node_baseSG_RKS7_@Base {QGIS_ABI}
 _ZNSt8_Rb_treeIlSt4pairIKlPN12SpatialIndex14StorageManager18DiskStorageManager5EntryEESt10_Select1stIS7_ESt4lessIlESaIS7_EE8_M_eraseEPSt13_Rb_tree_nodeIS7_E@Base {QGIS_ABI}
 _ZNSt8_Rb_treeIlSt4pairIKlPN12SpatialIndex14StorageManager6Buffer5EntryEESt10_Select1stIS7_ESt4lessIlESaIS7_EE10_M_insert_EPKSt18_Rb_tree_node_baseSG_RKS7_@Base {QGIS_ABI}
 _ZNSt8_Rb_treeIlSt4pairIKlPN12SpatialIndex14StorageManager6Buffer5EntryEESt10_Select1stIS7_ESt4lessIlESaIS7_EE8_M_eraseEPSt13_Rb_tree_nodeIS7_E@Base {QGIS_ABI}
 _ZNSt8_Rb_treeImSt4pairIKmmESt10_Select1stIS2_ESt4lessImESaIS2_EE10_M_insert_EPKSt18_Rb_tree_node_baseSB_RKS2_@Base {QGIS_ABI}
 _ZNSt8_Rb_treeImSt4pairIKmmESt10_Select1stIS2_ESt4lessImESaIS2_EE16_M_insert_uniqueERKS2_@Base {QGIS_ABI}
 _ZNSt8_Rb_treeImSt4pairIKmmESt10_Select1stIS2_ESt4lessImESaIS2_EE17_M_insert_unique_ESt23_Rb_tree_const_iteratorIS2_ERKS2_@Base {QGIS_ABI}
 _ZNSt8_Rb_treeImSt4pairIKmmESt10_Select1stIS2_ESt4lessImESaIS2_EE8_M_eraseEPSt13_Rb_tree_nodeIS2_E@Base {QGIS_ABI}
 _ZNSt8auto_ptrI12QDomDocumentED1Ev@Base {QGIS_ABI}
 _ZNSt8auto_ptrIN10QgsProject3ImpEED1Ev@Base {QGIS_ABI}
 _ZSt11__push_heapIN9__gnu_cxx17__normal_iteratorIPPN12SpatialIndex5RTree5RTree7NNEntryESt6vectorIS6_SaIS6_EEEEiS6_NS5_9ascendingEEvT_T0_SE_T1_T2_@Base {QGIS_ABI}
 _ZSt11__push_heapIN9__gnu_cxx17__normal_iteratorIPPN12SpatialIndex5RTree5RTree7NNEntryESt6vectorIS6_SaIS6_EEEElS6_NS5_9ascendingEEvT_T0_SE_T1_T2_@Base {QGIS_ABI}
 _ZSt11__push_heapIN9__gnu_cxx17__normal_iteratorIPPN5Tools12ExternalSort7PQEntryESt6vectorIS5_SaIS5_EEEEiS5_NS4_19ascendingComparatorEEvT_T0_SD_T1_T2_@Base {QGIS_ABI}
 _ZSt11__push_heapIN9__gnu_cxx17__normal_iteratorIPPN5Tools12ExternalSort7PQEntryESt6vectorIS5_SaIS5_EEEElS5_NS4_19ascendingComparatorEEvT_T0_SD_T1_T2_@Base {QGIS_ABI}
 _ZSt11__push_heapIN9__gnu_cxx17__normal_iteratorIPlSt6vectorIlSaIlEEEEilSt7greaterIlEEvT_T0_SA_T1_T2_@Base {QGIS_ABI}
 _ZSt11__push_heapIN9__gnu_cxx17__normal_iteratorIPlSt6vectorIlSaIlEEEEllSt7greaterIlEEvT_T0_SA_T1_T2_@Base {QGIS_ABI}
 _ZSt13__adjust_heapIN9__gnu_cxx17__normal_iteratorIPPN12SpatialIndex5RTree5RTree7NNEntryESt6vectorIS6_SaIS6_EEEEiS6_NS5_9ascendingEEvT_T0_SE_T1_T2_@Base {QGIS_ABI}
 _ZSt13__adjust_heapIN9__gnu_cxx17__normal_iteratorIPPN12SpatialIndex5RTree5RTree7NNEntryESt6vectorIS6_SaIS6_EEEElS6_NS5_9ascendingEEvT_T0_SE_T1_T2_@Base {QGIS_ABI}
 _ZSt13__adjust_heapIN9__gnu_cxx17__normal_iteratorIPPN5Tools12ExternalSort7PQEntryESt6vectorIS5_SaIS5_EEEEiS5_NS4_19ascendingComparatorEEvT_T0_SD_T1_T2_@Base {QGIS_ABI}
 _ZSt13__adjust_heapIN9__gnu_cxx17__normal_iteratorIPPN5Tools12ExternalSort7PQEntryESt6vectorIS5_SaIS5_EEEElS5_NS4_19ascendingComparatorEEvT_T0_SD_T1_T2_@Base {QGIS_ABI}
 _ZSt13__adjust_heapIN9__gnu_cxx17__normal_iteratorIPlSt6vectorIlSaIlEEEEilSt7greaterIlEEvT_T0_SA_T1_T2_@Base {QGIS_ABI}
 _ZSt13__adjust_heapIN9__gnu_cxx17__normal_iteratorIPlSt6vectorIlSaIlEEEEllSt7greaterIlEEvT_T0_SA_T1_T2_@Base {QGIS_ABI}
 _ZSt22__uninitialized_copy_aISt15_Deque_iteratorIN5Tools12SmartPointerINS1_13TemporaryFileEEERS4_PS4_ES7_S4_ET0_T_S9_S8_RSaIT1_E@Base {QGIS_ABI}
 _ZSt22__uninitialized_move_aIPSsS0_SaISsEET0_T_S3_S2_RT1_@Base {QGIS_ABI}
 _ZSt22__uninitialized_move_aIPiS0_SaIiEET0_T_S3_S2_RT1_@Base {QGIS_ABI}
 _ZSt8_DestroyISt15_Deque_iteratorIN5Tools12SmartPointerINS1_13TemporaryFileEEERS4_PS4_EEvT_S8_@Base {QGIS_ABI}
 _ZStplIcSt11char_traitsIcESaIcEESbIT_T0_T1_EPKS3_RKS6_@Base {QGIS_ABI}
 _ZTCN5Tools8Geometry11LineSegmentE16_NS0_6IShapeE@Base {QGIS_ABI}
 _ZTCN5Tools8Geometry11LineSegmentE32_NS0_6IShapeE@Base {QGIS_ABI}
 _ZTCN5Tools8Geometry5PointE12_NS0_6IShapeE@Base {QGIS_ABI}
 _ZTCN5Tools8Geometry5PointE24_NS0_6IShapeE@Base {QGIS_ABI}
 _ZTCN5Tools8Geometry6RegionE16_NS0_6IShapeE@Base {QGIS_ABI}
 _ZTCN5Tools8Geometry6RegionE32_NS0_6IShapeE@Base {QGIS_ABI}
 _ZTI10QgsProject@Base {QGIS_ABI}
 _ZTI11QgisVisitor@Base {QGIS_ABI}
 _ZTI11QgsMapLayer@Base {QGIS_ABI}
 _ZTI11QgsProperty@Base {QGIS_ABI}
 _ZTI11QgsRenderer@Base {QGIS_ABI}
 _ZTI11QgsSymbolV2@Base {QGIS_ABI}
 _ZTI12QgsException@Base {QGIS_ABI}
 _ZTI12QgsPaperItem@Base {QGIS_ABI}
 _ZTI13GEOSException@Base {QGIS_ABI}
 _ZTI13QgsRunProcess@Base {QGIS_ABI}
 _ZTI14QgsApplication@Base {QGIS_ABI}
 _ZTI14QgsComposerMap@Base {QGIS_ABI}
 _ZTI14QgsComposition@Base {QGIS_ABI}
 _ZTI14QgsContextHelp@Base {QGIS_ABI}
 _ZTI14QgsCsException@Base {QGIS_ABI}
 _ZTI14QgsIOException@Base {QGIS_ABI}
 _ZTI14QgsLegendModel@Base {QGIS_ABI}
 _ZTI14QgsMapRenderer@Base {QGIS_ABI}
 _ZTI14QgsPALGeometry@Base {QGIS_ABI}
 _ZTI14QgsPropertyKey@Base {QGIS_ABI}
 _ZTI14QgsRasterLayer@Base {QGIS_ABI}
 _ZTI14QgsUndoCommand@Base {QGIS_ABI}
 _ZTI14QgsVectorLayer@Base {QGIS_ABI}
 _ZTI15QgsComposerItem@Base {QGIS_ABI}
 _ZTI15QgsDataProvider@Base {QGIS_ABI}
 _ZTI15QgsFillSymbolV2@Base {QGIS_ABI}
 _ZTI15QgsLineSymbolV2@Base {QGIS_ABI}
 _ZTI16QgsComposerArrow@Base {QGIS_ABI}
 _ZTI16QgsComposerLabel@Base {QGIS_ABI}
 _ZTI16QgsComposerShape@Base {QGIS_ABI}
 _ZTI16QgsMessageOutput@Base {QGIS_ABI}
 _ZTI16QgsOverlayObject@Base {QGIS_ABI}
 _ZTI16QgsPropertyValue@Base {QGIS_ABI}
 _ZTI16QgsScaleBarStyle@Base {QGIS_ABI}
 _ZTI16QgsSymbolLayerV2@Base {QGIS_ABI}
 _ZTI16QgsVectorOverlay@Base {QGIS_ABI}
 _ZTI17QgsComposerLegend@Base {QGIS_ABI}
 _ZTI17QgsFreakOutShader@Base {QGIS_ABI}
 _ZTI17QgsMarkerSymbolV2@Base {QGIS_ABI}
 _ZTI18QgsAttributeAction@Base {QGIS_ABI}
 _ZTI18QgsColorRampShader@Base {QGIS_ABI}
 _ZTI18QgsComposerPicture@Base {QGIS_ABI}
 _ZTI18QgsHttpTransaction@Base {QGIS_ABI}
 _ZTI18QgsMarkerCatalogue@Base {QGIS_ABI}
 _ZTI19QgsComposerScaleBar@Base {QGIS_ABI}
 _ZTI19QgsMapLayerRegistry@Base {QGIS_ABI}
 _ZTI19QgsProviderRegistry@Base {QGIS_ABI}
 _ZTI20QgsComposerItemGroup@Base {QGIS_ABI}
 _ZTI20QgsFeatureRendererV2@Base {QGIS_ABI}
 _ZTI20QgsFillSymbolLayerV2@Base {QGIS_ABI}
 _ZTI20QgsLineSymbolLayerV2@Base {QGIS_ABI}
 _ZTI20QgsPseudoColorShader@Base {QGIS_ABI}
 _ZTI20QgsVectorColorRampV2@Base {QGIS_ABI}
 _ZTI21QgsRasterDataProvider@Base {QGIS_ABI}
 _ZTI21QgsTicksScaleBarStyle@Base {QGIS_ABI}
 _ZTI21QgsVectorDataProvider@Base {QGIS_ABI}
 _ZTI22QgsCoordinateTransform@Base {QGIS_ABI}
 _ZTI22QgsMarkerSymbolLayerV2@Base {QGIS_ABI}
 _ZTI22QgsUniqueValueRenderer@Base {QGIS_ABI}
 _ZTI23QgsMessageOutputConsole@Base {QGIS_ABI}
 _ZTI23QgsNumericScaleBarStyle@Base {QGIS_ABI}
 _ZTI23QgsRasterShaderFunction@Base {QGIS_ABI}
 _ZTI23QgsSingleSymbolRenderer@Base {QGIS_ABI}
 _ZTI25QgsDoubleBoxScaleBarStyle@Base {QGIS_ABI}
 _ZTI25QgsProjectBadLayerHandler@Base {QGIS_ABI}
 _ZTI25QgsProviderCountCalcEvent@Base {QGIS_ABI}
 _ZTI25QgsSingleBoxScaleBarStyle@Base {QGIS_ABI}
 _ZTI25QgsSingleSymbolRendererV2@Base {QGIS_ABI}
 _ZTI25QgsSvgMarkerSymbolLayerV2@Base {QGIS_ABI}
 _ZTI26QgsClipToMinMaxEnhancement@Base {QGIS_ABI}
 _ZTI26QgsContinuousColorRenderer@Base {QGIS_ABI}
 _ZTI26QgsGraduatedSymbolRenderer@Base {QGIS_ABI}
 _ZTI26QgsLinearMinMaxEnhancement@Base {QGIS_ABI}
 _ZTI26QgsMarkerLineSymbolLayerV2@Base {QGIS_ABI}
 _ZTI26QgsProviderExtentCalcEvent@Base {QGIS_ABI}
 _ZTI26QgsSimpleFillSymbolLayerV2@Base {QGIS_ABI}
 _ZTI26QgsSimpleLineSymbolLayerV2@Base {QGIS_ABI}
 _ZTI26QgsVectorRandomColorRampV2@Base {QGIS_ABI}
 _ZTI27QgsPALObjectPositionManager@Base {QGIS_ABI}
 _ZTI27QgsProjectBadLayerException@Base {QGIS_ABI}
 _ZTI28QgsGraduatedSymbolRendererV2@Base {QGIS_ABI}
 _ZTI28QgsSimpleMarkerSymbolLayerV2@Base {QGIS_ABI}
 _ZTI28QgsVectorGradientColorRampV2@Base {QGIS_ABI}
 _ZTI30QgsCategorizedSymbolRendererV2@Base {QGIS_ABI}
 _ZTI30QgsCentralPointPositionManager@Base {QGIS_ABI}
 _ZTI30QgsContrastEnhancementFunction@Base {QGIS_ABI}
 _ZTI30QgsLineDecorationSymbolLayerV2@Base {QGIS_ABI}
 _ZTI31QgsOverlayObjectPositionManager@Base {QGIS_ABI}
 _ZTI31QgsVectorColorBrewerColorRampV2@Base {QGIS_ABI}
 _ZTI32QgsProjectBadLayerDefaultHandler@Base {QGIS_ABI}
 _ZTI34QgsLinearMinMaxEnhancementWithClip@Base {QGIS_ABI}
 _ZTI6CPLErr@Base {QGIS_ABI}
 _ZTI9QgsSymbol@Base {QGIS_ABI}
 _ZTIN12SpatialIndex11IDataStreamE@Base {QGIS_ABI}
 _ZTIN12SpatialIndex11IStatisticsE@Base {QGIS_ABI}
 _ZTIN12SpatialIndex13ISpatialIndexE@Base {QGIS_ABI}
 _ZTIN12SpatialIndex14StorageManager18DiskStorageManagerE@Base {QGIS_ABI}
 _ZTIN12SpatialIndex14StorageManager20MemoryStorageManagerE@Base {QGIS_ABI}
 _ZTIN12SpatialIndex14StorageManager21RandomEvictionsBufferE@Base {QGIS_ABI}
 _ZTIN12SpatialIndex14StorageManager6BufferE@Base {QGIS_ABI}
 _ZTIN12SpatialIndex14StorageManager7IBufferE@Base {QGIS_ABI}
 _ZTIN12SpatialIndex15IStorageManagerE@Base {QGIS_ABI}
 _ZTIN12SpatialIndex26INearestNeighborComparatorE@Base {QGIS_ABI}
 _ZTIN12SpatialIndex5IDataE@Base {QGIS_ABI}
 _ZTIN12SpatialIndex5INodeE@Base {QGIS_ABI}
 _ZTIN12SpatialIndex5RTree10BulkLoader7TmpFileE@Base {QGIS_ABI}
 _ZTIN12SpatialIndex5RTree10StatisticsE@Base {QGIS_ABI}
 _ZTIN12SpatialIndex5RTree14BulkLoadSourceE@Base {QGIS_ABI}
 _ZTIN12SpatialIndex5RTree18BulkLoadComparatorE@Base {QGIS_ABI}
 _ZTIN12SpatialIndex5RTree4DataE@Base {QGIS_ABI}
 _ZTIN12SpatialIndex5RTree4LeafE@Base {QGIS_ABI}
 _ZTIN12SpatialIndex5RTree4NodeE@Base {QGIS_ABI}
 _ZTIN12SpatialIndex5RTree5IndexE@Base {QGIS_ABI}
 _ZTIN12SpatialIndex5RTree5RTree12NNComparatorE@Base {QGIS_ABI}
 _ZTIN12SpatialIndex5RTree5RTreeE@Base {QGIS_ABI}
 _ZTIN12SpatialIndex6IEntryE@Base {QGIS_ABI}
 _ZTIN12SpatialIndex8IVisitorE@Base {QGIS_ABI}
 _ZTIN3pal11FeaturePartE@Base {QGIS_ABI}
 _ZTIN3pal11PalGeometryE@Base {QGIS_ABI}
 _ZTIN3pal12PalException11LayerExistsE@Base {QGIS_ABI}
 _ZTIN3pal12PalException12UnknownLayerE@Base {QGIS_ABI}
 _ZTIN3pal12PalException13FeatureExistsE@Base {QGIS_ABI}
 _ZTIN3pal12PalException14UnknownFeatureE@Base {QGIS_ABI}
 _ZTIN3pal12PalException15ValueNotInRangeE@Base {QGIS_ABI}
 _ZTIN3pal17InternalException15UnknownGeometryE@Base {QGIS_ABI}
 _ZTIN3pal17InternalException4FullE@Base {QGIS_ABI}
 _ZTIN3pal17InternalException5EmptyE@Base {QGIS_ABI}
 _ZTIN3pal5LayerE@Base {QGIS_ABI}
 _ZTIN3pal5RTreeIPNS_11FeaturePartEdLi2EdLi8ELi4EEE@Base {QGIS_ABI}
 _ZTIN3pal5RTreeIPNS_13LabelPositionEdLi2EdLi8ELi4EEE@Base {QGIS_ABI}
 _ZTIN3pal5RTreeIPNS_7FeatureEdLi2EdLi8ELi4EEE@Base {QGIS_ABI}
 _ZTIN3pal5RTreeIPNS_8PointSetEdLi2EdLi8ELi4EEE@Base {QGIS_ABI}
 _ZTIN3pal7FeatureE@Base {QGIS_ABI}
 _ZTIN3pal8PointSetE@Base {QGIS_ABI}
 _ZTIN5Tools11IComparableE@Base {QGIS_ABI}
 _ZTIN5Tools11PropertySetE@Base {QGIS_ABI}
 _ZTIN5Tools12ExternalSortE@Base {QGIS_ABI}
 _ZTIN5Tools13IObjectStreamE@Base {QGIS_ABI}
 _ZTIN5Tools13ISerializableE@Base {QGIS_ABI}
 _ZTIN5Tools13TemporaryFileE@Base {QGIS_ABI}
 _ZTIN5Tools17IObjectComparatorE@Base {QGIS_ABI}
 _ZTIN5Tools19ParseErrorExceptionE@Base {QGIS_ABI}
 _ZTIN5Tools20EndOfStreamExceptionE@Base {QGIS_ABI}
 _ZTIN5Tools20InvalidPageExceptionE@Base {QGIS_ABI}
 _ZTIN5Tools21IllegalStateExceptionE@Base {QGIS_ABI}
 _ZTIN5Tools21NotSupportedExceptionE@Base {QGIS_ABI}
 _ZTIN5Tools23ResourceLockedExceptionE@Base {QGIS_ABI}
 _ZTIN5Tools24IllegalArgumentExceptionE@Base {QGIS_ABI}
 _ZTIN5Tools25IndexOutOfBoundsExceptionE@Base {QGIS_ABI}
 _ZTIN5Tools7IObjectE@Base {QGIS_ABI}
 _ZTIN5Tools8Geometry11LineSegmentE@Base {QGIS_ABI}
 _ZTIN5Tools8Geometry5PointE@Base {QGIS_ABI}
 _ZTIN5Tools8Geometry6IShapeE@Base {QGIS_ABI}
 _ZTIN5Tools8Geometry6RegionE@Base {QGIS_ABI}
 _ZTIN5Tools8IntervalE@Base {QGIS_ABI}
 _ZTIN5Tools9ExceptionE@Base {QGIS_ABI}
 _ZTIN5Tools9IIntervalE@Base {QGIS_ABI}
 _ZTIPN3pal12PalException11LayerExistsE@Base {QGIS_ABI}
 _ZTIPN3pal12PalException12UnknownLayerE@Base {QGIS_ABI}
 _ZTIPN3pal12PalException13FeatureExistsE@Base {QGIS_ABI}
 _ZTIPN3pal12PalException14UnknownFeatureE@Base {QGIS_ABI}
 _ZTIPN3pal12PalException15ValueNotInRangeE@Base {QGIS_ABI}
 _ZTISt12out_of_range@Base {QGIS_ABI}
 _ZTS10QgsProject@Base {QGIS_ABI}
 _ZTS11QgisVisitor@Base {QGIS_ABI}
 _ZTS11QgsMapLayer@Base {QGIS_ABI}
 _ZTS11QgsProperty@Base {QGIS_ABI}
 _ZTS11QgsRenderer@Base {QGIS_ABI}
 _ZTS11QgsSymbolV2@Base {QGIS_ABI}
 _ZTS12QgsException@Base {QGIS_ABI}
 _ZTS12QgsPaperItem@Base {QGIS_ABI}
 _ZTS13GEOSException@Base {QGIS_ABI}
 _ZTS13QgsRunProcess@Base {QGIS_ABI}
 _ZTS14QgsApplication@Base {QGIS_ABI}
 _ZTS14QgsComposerMap@Base {QGIS_ABI}
 _ZTS14QgsComposition@Base {QGIS_ABI}
 _ZTS14QgsContextHelp@Base {QGIS_ABI}
 _ZTS14QgsCsException@Base {QGIS_ABI}
 _ZTS14QgsIOException@Base {QGIS_ABI}
 _ZTS14QgsLegendModel@Base {QGIS_ABI}
 _ZTS14QgsMapRenderer@Base {QGIS_ABI}
 _ZTS14QgsPALGeometry@Base {QGIS_ABI}
 _ZTS14QgsPropertyKey@Base {QGIS_ABI}
 _ZTS14QgsRasterLayer@Base {QGIS_ABI}
 _ZTS14QgsUndoCommand@Base {QGIS_ABI}
 _ZTS14QgsVectorLayer@Base {QGIS_ABI}
 _ZTS15QgsComposerItem@Base {QGIS_ABI}
 _ZTS15QgsDataProvider@Base {QGIS_ABI}
 _ZTS15QgsFillSymbolV2@Base {QGIS_ABI}
 _ZTS15QgsLineSymbolV2@Base {QGIS_ABI}
 _ZTS16QgsComposerArrow@Base {QGIS_ABI}
 _ZTS16QgsComposerLabel@Base {QGIS_ABI}
 _ZTS16QgsComposerShape@Base {QGIS_ABI}
 _ZTS16QgsMessageOutput@Base {QGIS_ABI}
 _ZTS16QgsOverlayObject@Base {QGIS_ABI}
 _ZTS16QgsPropertyValue@Base {QGIS_ABI}
 _ZTS16QgsScaleBarStyle@Base {QGIS_ABI}
 _ZTS16QgsSymbolLayerV2@Base {QGIS_ABI}
 _ZTS16QgsVectorOverlay@Base {QGIS_ABI}
 _ZTS17QgsComposerLegend@Base {QGIS_ABI}
 _ZTS17QgsFreakOutShader@Base {QGIS_ABI}
 _ZTS17QgsMarkerSymbolV2@Base {QGIS_ABI}
 _ZTS18QgsAttributeAction@Base {QGIS_ABI}
 _ZTS18QgsColorRampShader@Base {QGIS_ABI}
 _ZTS18QgsComposerPicture@Base {QGIS_ABI}
 _ZTS18QgsHttpTransaction@Base {QGIS_ABI}
 _ZTS18QgsMarkerCatalogue@Base {QGIS_ABI}
 _ZTS19QgsComposerScaleBar@Base {QGIS_ABI}
 _ZTS19QgsMapLayerRegistry@Base {QGIS_ABI}
 _ZTS19QgsProviderRegistry@Base {QGIS_ABI}
 _ZTS20QgsComposerItemGroup@Base {QGIS_ABI}
 _ZTS20QgsFeatureRendererV2@Base {QGIS_ABI}
 _ZTS20QgsFillSymbolLayerV2@Base {QGIS_ABI}
 _ZTS20QgsLineSymbolLayerV2@Base {QGIS_ABI}
 _ZTS20QgsPseudoColorShader@Base {QGIS_ABI}
 _ZTS20QgsVectorColorRampV2@Base {QGIS_ABI}
 _ZTS21QgsRasterDataProvider@Base {QGIS_ABI}
 _ZTS21QgsTicksScaleBarStyle@Base {QGIS_ABI}
 _ZTS21QgsVectorDataProvider@Base {QGIS_ABI}
 _ZTS22QgsCoordinateTransform@Base {QGIS_ABI}
 _ZTS22QgsMarkerSymbolLayerV2@Base {QGIS_ABI}
 _ZTS22QgsUniqueValueRenderer@Base {QGIS_ABI}
 _ZTS23QgsMessageOutputConsole@Base {QGIS_ABI}
 _ZTS23QgsNumericScaleBarStyle@Base {QGIS_ABI}
 _ZTS23QgsRasterShaderFunction@Base {QGIS_ABI}
 _ZTS23QgsSingleSymbolRenderer@Base {QGIS_ABI}
 _ZTS25QgsDoubleBoxScaleBarStyle@Base {QGIS_ABI}
 _ZTS25QgsProjectBadLayerHandler@Base {QGIS_ABI}
 _ZTS25QgsProviderCountCalcEvent@Base {QGIS_ABI}
 _ZTS25QgsSingleBoxScaleBarStyle@Base {QGIS_ABI}
 _ZTS25QgsSingleSymbolRendererV2@Base {QGIS_ABI}
 _ZTS25QgsSvgMarkerSymbolLayerV2@Base {QGIS_ABI}
 _ZTS26QgsClipToMinMaxEnhancement@Base {QGIS_ABI}
 _ZTS26QgsContinuousColorRenderer@Base {QGIS_ABI}
 _ZTS26QgsGraduatedSymbolRenderer@Base {QGIS_ABI}
 _ZTS26QgsLinearMinMaxEnhancement@Base {QGIS_ABI}
 _ZTS26QgsMarkerLineSymbolLayerV2@Base {QGIS_ABI}
 _ZTS26QgsProviderExtentCalcEvent@Base {QGIS_ABI}
 _ZTS26QgsSimpleFillSymbolLayerV2@Base {QGIS_ABI}
 _ZTS26QgsSimpleLineSymbolLayerV2@Base {QGIS_ABI}
 _ZTS26QgsVectorRandomColorRampV2@Base {QGIS_ABI}
 _ZTS27QgsPALObjectPositionManager@Base {QGIS_ABI}
 _ZTS27QgsProjectBadLayerException@Base {QGIS_ABI}
 _ZTS28QgsGraduatedSymbolRendererV2@Base {QGIS_ABI}
 _ZTS28QgsSimpleMarkerSymbolLayerV2@Base {QGIS_ABI}
 _ZTS28QgsVectorGradientColorRampV2@Base {QGIS_ABI}
 _ZTS30QgsCategorizedSymbolRendererV2@Base {QGIS_ABI}
 _ZTS30QgsCentralPointPositionManager@Base {QGIS_ABI}
 _ZTS30QgsContrastEnhancementFunction@Base {QGIS_ABI}
 _ZTS30QgsLineDecorationSymbolLayerV2@Base {QGIS_ABI}
 _ZTS31QgsOverlayObjectPositionManager@Base {QGIS_ABI}
 _ZTS31QgsVectorColorBrewerColorRampV2@Base {QGIS_ABI}
 _ZTS32QgsProjectBadLayerDefaultHandler@Base {QGIS_ABI}
 _ZTS34QgsLinearMinMaxEnhancementWithClip@Base {QGIS_ABI}
 _ZTS6CPLErr@Base {QGIS_ABI}
 _ZTS9QgsSymbol@Base {QGIS_ABI}
 _ZTSN12SpatialIndex11IDataStreamE@Base {QGIS_ABI}
 _ZTSN12SpatialIndex11IStatisticsE@Base {QGIS_ABI}
 _ZTSN12SpatialIndex13ISpatialIndexE@Base {QGIS_ABI}
 _ZTSN12SpatialIndex14StorageManager18DiskStorageManagerE@Base {QGIS_ABI}
 _ZTSN12SpatialIndex14StorageManager20MemoryStorageManagerE@Base {QGIS_ABI}
 _ZTSN12SpatialIndex14StorageManager21RandomEvictionsBufferE@Base {QGIS_ABI}
 _ZTSN12SpatialIndex14StorageManager6BufferE@Base {QGIS_ABI}
 _ZTSN12SpatialIndex14StorageManager7IBufferE@Base {QGIS_ABI}
 _ZTSN12SpatialIndex15IStorageManagerE@Base {QGIS_ABI}
 _ZTSN12SpatialIndex26INearestNeighborComparatorE@Base {QGIS_ABI}
 _ZTSN12SpatialIndex5IDataE@Base {QGIS_ABI}
 _ZTSN12SpatialIndex5INodeE@Base {QGIS_ABI}
 _ZTSN12SpatialIndex5RTree10BulkLoader7TmpFileE@Base {QGIS_ABI}
 _ZTSN12SpatialIndex5RTree10StatisticsE@Base {QGIS_ABI}
 _ZTSN12SpatialIndex5RTree14BulkLoadSourceE@Base {QGIS_ABI}
 _ZTSN12SpatialIndex5RTree18BulkLoadComparatorE@Base {QGIS_ABI}
 _ZTSN12SpatialIndex5RTree4DataE@Base {QGIS_ABI}
 _ZTSN12SpatialIndex5RTree4LeafE@Base {QGIS_ABI}
 _ZTSN12SpatialIndex5RTree4NodeE@Base {QGIS_ABI}
 _ZTSN12SpatialIndex5RTree5IndexE@Base {QGIS_ABI}
 _ZTSN12SpatialIndex5RTree5RTree12NNComparatorE@Base {QGIS_ABI}
 _ZTSN12SpatialIndex5RTree5RTreeE@Base {QGIS_ABI}
 _ZTSN12SpatialIndex6IEntryE@Base {QGIS_ABI}
 _ZTSN12SpatialIndex8IVisitorE@Base {QGIS_ABI}
 _ZTSN3pal11FeaturePartE@Base {QGIS_ABI}
 _ZTSN3pal11PalGeometryE@Base {QGIS_ABI}
 _ZTSN3pal12PalException11LayerExistsE@Base {QGIS_ABI}
 _ZTSN3pal12PalException12UnknownLayerE@Base {QGIS_ABI}
 _ZTSN3pal12PalException13FeatureExistsE@Base {QGIS_ABI}
 _ZTSN3pal12PalException14UnknownFeatureE@Base {QGIS_ABI}
 _ZTSN3pal12PalException15ValueNotInRangeE@Base {QGIS_ABI}
 _ZTSN3pal17InternalException15UnknownGeometryE@Base {QGIS_ABI}
 _ZTSN3pal17InternalException4FullE@Base {QGIS_ABI}
 _ZTSN3pal17InternalException5EmptyE@Base {QGIS_ABI}
 _ZTSN3pal5LayerE@Base {QGIS_ABI}
 _ZTSN3pal5RTreeIPNS_11FeaturePartEdLi2EdLi8ELi4EEE@Base {QGIS_ABI}
 _ZTSN3pal5RTreeIPNS_13LabelPositionEdLi2EdLi8ELi4EEE@Base {QGIS_ABI}
 _ZTSN3pal5RTreeIPNS_7FeatureEdLi2EdLi8ELi4EEE@Base {QGIS_ABI}
 _ZTSN3pal5RTreeIPNS_8PointSetEdLi2EdLi8ELi4EEE@Base {QGIS_ABI}
 _ZTSN3pal7FeatureE@Base {QGIS_ABI}
 _ZTSN3pal8PointSetE@Base {QGIS_ABI}
 _ZTSN5Tools11IComparableE@Base {QGIS_ABI}
 _ZTSN5Tools11PropertySetE@Base {QGIS_ABI}
 _ZTSN5Tools12ExternalSortE@Base {QGIS_ABI}
 _ZTSN5Tools13IObjectStreamE@Base {QGIS_ABI}
 _ZTSN5Tools13ISerializableE@Base {QGIS_ABI}
 _ZTSN5Tools13TemporaryFileE@Base {QGIS_ABI}
 _ZTSN5Tools17IObjectComparatorE@Base {QGIS_ABI}
 _ZTSN5Tools19ParseErrorExceptionE@Base {QGIS_ABI}
 _ZTSN5Tools20EndOfStreamExceptionE@Base {QGIS_ABI}
 _ZTSN5Tools20InvalidPageExceptionE@Base {QGIS_ABI}
 _ZTSN5Tools21IllegalStateExceptionE@Base {QGIS_ABI}
 _ZTSN5Tools21NotSupportedExceptionE@Base {QGIS_ABI}
 _ZTSN5Tools23ResourceLockedExceptionE@Base {QGIS_ABI}
 _ZTSN5Tools24IllegalArgumentExceptionE@Base {QGIS_ABI}
 _ZTSN5Tools25IndexOutOfBoundsExceptionE@Base {QGIS_ABI}
 _ZTSN5Tools7IObjectE@Base {QGIS_ABI}
 _ZTSN5Tools8Geometry11LineSegmentE@Base {QGIS_ABI}
 _ZTSN5Tools8Geometry5PointE@Base {QGIS_ABI}
 _ZTSN5Tools8Geometry6IShapeE@Base {QGIS_ABI}
 _ZTSN5Tools8Geometry6RegionE@Base {QGIS_ABI}
 _ZTSN5Tools8IntervalE@Base {QGIS_ABI}
 _ZTSN5Tools9ExceptionE@Base {QGIS_ABI}
 _ZTSN5Tools9IIntervalE@Base {QGIS_ABI}
 _ZTSPN3pal12PalException11LayerExistsE@Base {QGIS_ABI}
 _ZTSPN3pal12PalException12UnknownLayerE@Base {QGIS_ABI}
 _ZTSPN3pal12PalException13FeatureExistsE@Base {QGIS_ABI}
 _ZTSPN3pal12PalException14UnknownFeatureE@Base {QGIS_ABI}
 _ZTSPN3pal12PalException15ValueNotInRangeE@Base {QGIS_ABI}
 _ZTSSt12out_of_range@Base {QGIS_ABI}
 _ZTTN5Tools8Geometry11LineSegmentE@Base {QGIS_ABI}
 _ZTTN5Tools8Geometry5PointE@Base {QGIS_ABI}
 _ZTTN5Tools8Geometry6IShapeE@Base {QGIS_ABI}
 _ZTTN5Tools8Geometry6RegionE@Base {QGIS_ABI}
 _ZTV10QgsProject@Base {QGIS_ABI}
 _ZTV11QgisVisitor@Base {QGIS_ABI}
 _ZTV11QgsMapLayer@Base {QGIS_ABI}
 _ZTV11QgsProperty@Base {QGIS_ABI}
 _ZTV11QgsRenderer@Base {QGIS_ABI}
 _ZTV11QgsSymbolV2@Base {QGIS_ABI}
 _ZTV12QgsException@Base {QGIS_ABI}
 _ZTV12QgsPaperItem@Base {QGIS_ABI}
 _ZTV13QgsRunProcess@Base {QGIS_ABI}
 _ZTV14QgsApplication@Base {QGIS_ABI}
 _ZTV14QgsComposerMap@Base {QGIS_ABI}
 _ZTV14QgsComposition@Base {QGIS_ABI}
 _ZTV14QgsContextHelp@Base {QGIS_ABI}
 _ZTV14QgsCsException@Base {QGIS_ABI}
 _ZTV14QgsIOException@Base {QGIS_ABI}
 _ZTV14QgsLegendModel@Base {QGIS_ABI}
 _ZTV14QgsMapRenderer@Base {QGIS_ABI}
 _ZTV14QgsPALGeometry@Base {QGIS_ABI}
 _ZTV14QgsPropertyKey@Base {QGIS_ABI}
 _ZTV14QgsRasterLayer@Base {QGIS_ABI}
 _ZTV14QgsUndoCommand@Base {QGIS_ABI}
 _ZTV14QgsVectorLayer@Base {QGIS_ABI}
 _ZTV15QgsComposerItem@Base {QGIS_ABI}
 _ZTV15QgsDataProvider@Base {QGIS_ABI}
 _ZTV15QgsFillSymbolV2@Base {QGIS_ABI}
 _ZTV15QgsLineSymbolV2@Base {QGIS_ABI}
 _ZTV16QgsComposerArrow@Base {QGIS_ABI}
 _ZTV16QgsComposerLabel@Base {QGIS_ABI}
 _ZTV16QgsComposerShape@Base {QGIS_ABI}
 _ZTV16QgsMessageOutput@Base {QGIS_ABI}
 _ZTV16QgsOverlayObject@Base {QGIS_ABI}
 _ZTV16QgsPropertyValue@Base {QGIS_ABI}
 _ZTV16QgsScaleBarStyle@Base {QGIS_ABI}
 _ZTV16QgsSymbolLayerV2@Base {QGIS_ABI}
 _ZTV16QgsVectorOverlay@Base {QGIS_ABI}
 _ZTV17QgsComposerLegend@Base {QGIS_ABI}
 _ZTV17QgsFreakOutShader@Base {QGIS_ABI}
 _ZTV17QgsMarkerSymbolV2@Base {QGIS_ABI}
 _ZTV18QgsAttributeAction@Base {QGIS_ABI}
 _ZTV18QgsColorRampShader@Base {QGIS_ABI}
 _ZTV18QgsComposerPicture@Base {QGIS_ABI}
 _ZTV18QgsHttpTransaction@Base {QGIS_ABI}
 _ZTV18QgsMarkerCatalogue@Base {QGIS_ABI}
 _ZTV19QgsComposerScaleBar@Base {QGIS_ABI}
 _ZTV19QgsMapLayerRegistry@Base {QGIS_ABI}
 _ZTV19QgsProviderRegistry@Base {QGIS_ABI}
 _ZTV20QgsComposerItemGroup@Base {QGIS_ABI}
 _ZTV20QgsFeatureRendererV2@Base {QGIS_ABI}
 _ZTV20QgsFillSymbolLayerV2@Base {QGIS_ABI}
 _ZTV20QgsLineSymbolLayerV2@Base {QGIS_ABI}
 _ZTV20QgsPseudoColorShader@Base {QGIS_ABI}
 _ZTV20QgsVectorColorRampV2@Base {QGIS_ABI}
 _ZTV21QgsRasterDataProvider@Base {QGIS_ABI}
 _ZTV21QgsTicksScaleBarStyle@Base {QGIS_ABI}
 _ZTV21QgsVectorDataProvider@Base {QGIS_ABI}
 _ZTV22QgsCoordinateTransform@Base {QGIS_ABI}
 _ZTV22QgsMarkerSymbolLayerV2@Base {QGIS_ABI}
 _ZTV22QgsUniqueValueRenderer@Base {QGIS_ABI}
 _ZTV23QgsMessageOutputConsole@Base {QGIS_ABI}
 _ZTV23QgsNumericScaleBarStyle@Base {QGIS_ABI}
 _ZTV23QgsRasterShaderFunction@Base {QGIS_ABI}
 _ZTV23QgsSingleSymbolRenderer@Base {QGIS_ABI}
 _ZTV25QgsDoubleBoxScaleBarStyle@Base {QGIS_ABI}
 _ZTV25QgsProjectBadLayerHandler@Base {QGIS_ABI}
 _ZTV25QgsProviderCountCalcEvent@Base {QGIS_ABI}
 _ZTV25QgsSingleBoxScaleBarStyle@Base {QGIS_ABI}
 _ZTV25QgsSingleSymbolRendererV2@Base {QGIS_ABI}
 _ZTV25QgsSvgMarkerSymbolLayerV2@Base {QGIS_ABI}
 _ZTV26QgsClipToMinMaxEnhancement@Base {QGIS_ABI}
 _ZTV26QgsContinuousColorRenderer@Base {QGIS_ABI}
 _ZTV26QgsGraduatedSymbolRenderer@Base {QGIS_ABI}
 _ZTV26QgsLinearMinMaxEnhancement@Base {QGIS_ABI}
 _ZTV26QgsMarkerLineSymbolLayerV2@Base {QGIS_ABI}
 _ZTV26QgsProviderExtentCalcEvent@Base {QGIS_ABI}
 _ZTV26QgsSimpleFillSymbolLayerV2@Base {QGIS_ABI}
 _ZTV26QgsSimpleLineSymbolLayerV2@Base {QGIS_ABI}
 _ZTV26QgsVectorRandomColorRampV2@Base {QGIS_ABI}
 _ZTV27QgsPALObjectPositionManager@Base {QGIS_ABI}
 _ZTV27QgsProjectBadLayerException@Base {QGIS_ABI}
 _ZTV28QgsGraduatedSymbolRendererV2@Base {QGIS_ABI}
 _ZTV28QgsSimpleMarkerSymbolLayerV2@Base {QGIS_ABI}
 _ZTV28QgsVectorGradientColorRampV2@Base {QGIS_ABI}
 _ZTV30QgsCategorizedSymbolRendererV2@Base {QGIS_ABI}
 _ZTV30QgsCentralPointPositionManager@Base {QGIS_ABI}
 _ZTV30QgsContrastEnhancementFunction@Base {QGIS_ABI}
 _ZTV30QgsLineDecorationSymbolLayerV2@Base {QGIS_ABI}
 _ZTV31QgsOverlayObjectPositionManager@Base {QGIS_ABI}
 _ZTV31QgsVectorColorBrewerColorRampV2@Base {QGIS_ABI}
 _ZTV32QgsProjectBadLayerDefaultHandler@Base {QGIS_ABI}
 _ZTV34QgsLinearMinMaxEnhancementWithClip@Base {QGIS_ABI}
 _ZTV9QgsSymbol@Base {QGIS_ABI}
 _ZTVN12SpatialIndex11IDataStreamE@Base {QGIS_ABI}
 _ZTVN12SpatialIndex11IStatisticsE@Base {QGIS_ABI}
 _ZTVN12SpatialIndex13ISpatialIndexE@Base {QGIS_ABI}
 _ZTVN12SpatialIndex14StorageManager18DiskStorageManagerE@Base {QGIS_ABI}
 _ZTVN12SpatialIndex14StorageManager20MemoryStorageManagerE@Base {QGIS_ABI}
 _ZTVN12SpatialIndex14StorageManager21RandomEvictionsBufferE@Base {QGIS_ABI}
 _ZTVN12SpatialIndex14StorageManager6BufferE@Base {QGIS_ABI}
 _ZTVN12SpatialIndex14StorageManager7IBufferE@Base {QGIS_ABI}
 _ZTVN12SpatialIndex15IStorageManagerE@Base {QGIS_ABI}
 _ZTVN12SpatialIndex26INearestNeighborComparatorE@Base {QGIS_ABI}
 _ZTVN12SpatialIndex5IDataE@Base {QGIS_ABI}
 _ZTVN12SpatialIndex5INodeE@Base {QGIS_ABI}
 _ZTVN12SpatialIndex5RTree10BulkLoader7TmpFileE@Base {QGIS_ABI}
 _ZTVN12SpatialIndex5RTree10StatisticsE@Base {QGIS_ABI}
 _ZTVN12SpatialIndex5RTree14BulkLoadSourceE@Base {QGIS_ABI}
 _ZTVN12SpatialIndex5RTree18BulkLoadComparatorE@Base {QGIS_ABI}
 _ZTVN12SpatialIndex5RTree4DataE@Base {QGIS_ABI}
 _ZTVN12SpatialIndex5RTree4LeafE@Base {QGIS_ABI}
 _ZTVN12SpatialIndex5RTree4NodeE@Base {QGIS_ABI}
 _ZTVN12SpatialIndex5RTree5IndexE@Base {QGIS_ABI}
 _ZTVN12SpatialIndex5RTree5RTree12NNComparatorE@Base {QGIS_ABI}
 _ZTVN12SpatialIndex5RTree5RTreeE@Base {QGIS_ABI}
 _ZTVN12SpatialIndex6IEntryE@Base {QGIS_ABI}
 _ZTVN12SpatialIndex8IVisitorE@Base {QGIS_ABI}
 _ZTVN3pal11FeaturePartE@Base {QGIS_ABI}
 _ZTVN3pal11PalGeometryE@Base {QGIS_ABI}
 _ZTVN3pal12PalException11LayerExistsE@Base {QGIS_ABI}
 _ZTVN3pal12PalException12UnknownLayerE@Base {QGIS_ABI}
 _ZTVN3pal12PalException13FeatureExistsE@Base {QGIS_ABI}
 _ZTVN3pal12PalException14UnknownFeatureE@Base {QGIS_ABI}
 _ZTVN3pal12PalException15ValueNotInRangeE@Base {QGIS_ABI}
 _ZTVN3pal17InternalException15UnknownGeometryE@Base {QGIS_ABI}
 _ZTVN3pal17InternalException4FullE@Base {QGIS_ABI}
 _ZTVN3pal17InternalException5EmptyE@Base {QGIS_ABI}
 _ZTVN3pal5LayerE@Base {QGIS_ABI}
 _ZTVN3pal5RTreeIPNS_11FeaturePartEdLi2EdLi8ELi4EEE@Base {QGIS_ABI}
 _ZTVN3pal5RTreeIPNS_13LabelPositionEdLi2EdLi8ELi4EEE@Base {QGIS_ABI}
 _ZTVN3pal5RTreeIPNS_7FeatureEdLi2EdLi8ELi4EEE@Base {QGIS_ABI}
 _ZTVN3pal5RTreeIPNS_8PointSetEdLi2EdLi8ELi4EEE@Base {QGIS_ABI}
 _ZTVN3pal7FeatureE@Base {QGIS_ABI}
 _ZTVN3pal8PointSetE@Base {QGIS_ABI}
 _ZTVN5Tools11PropertySetE@Base {QGIS_ABI}
 _ZTVN5Tools12ExternalSortE@Base {QGIS_ABI}
 _ZTVN5Tools13IObjectStreamE@Base {QGIS_ABI}
 _ZTVN5Tools13ISerializableE@Base {QGIS_ABI}
 _ZTVN5Tools13TemporaryFileE@Base {QGIS_ABI}
 _ZTVN5Tools17IObjectComparatorE@Base {QGIS_ABI}
 _ZTVN5Tools19ParseErrorExceptionE@Base {QGIS_ABI}
 _ZTVN5Tools20EndOfStreamExceptionE@Base {QGIS_ABI}
 _ZTVN5Tools20InvalidPageExceptionE@Base {QGIS_ABI}
 _ZTVN5Tools21IllegalStateExceptionE@Base {QGIS_ABI}
 _ZTVN5Tools21NotSupportedExceptionE@Base {QGIS_ABI}
 _ZTVN5Tools23ResourceLockedExceptionE@Base {QGIS_ABI}
 _ZTVN5Tools24IllegalArgumentExceptionE@Base {QGIS_ABI}
 _ZTVN5Tools25IndexOutOfBoundsExceptionE@Base {QGIS_ABI}
 _ZTVN5Tools7IObjectE@Base {QGIS_ABI}
 _ZTVN5Tools8Geometry11LineSegmentE@Base {QGIS_ABI}
 _ZTVN5Tools8Geometry5PointE@Base {QGIS_ABI}
 _ZTVN5Tools8Geometry6IShapeE@Base {QGIS_ABI}
 _ZTVN5Tools8Geometry6RegionE@Base {QGIS_ABI}
 _ZTVN5Tools8IntervalE@Base {QGIS_ABI}
 _ZTVN5Tools9ExceptionE@Base {QGIS_ABI}
 _ZTVN5Tools9IIntervalE@Base {QGIS_ABI}
 _ZTVSt12out_of_range@Base {QGIS_ABI}
 _ZThn16_N12QgsPaperItem5paintEP8QPainterPK24QStyleOptionGraphicsItemP7QWidget@Base {QGIS_ABI}
 _ZThn16_N12QgsPaperItemD0Ev@Base {QGIS_ABI}
 _ZThn16_N12QgsPaperItemD1Ev@Base {QGIS_ABI}
 _ZThn16_N14QgsComposerMap11moveContentEdd@Base {QGIS_ABI}
 _ZThn16_N14QgsComposerMap11zoomContentEidd@Base {QGIS_ABI}
 _ZThn16_N14QgsComposerMap12setSceneRectERK6QRectF@Base {QGIS_ABI}
 _ZThn16_N14QgsComposerMap5paintEP8QPainterPK24QStyleOptionGraphicsItemP7QWidget@Base {QGIS_ABI}
 _ZThn16_N14QgsComposerMap7readXMLERK11QDomElementRK12QDomDocument@Base {QGIS_ABI}
 _ZThn16_N14QgsComposerMapD0Ev@Base {QGIS_ABI}
 _ZThn16_N14QgsComposerMapD1Ev@Base {QGIS_ABI}
 _ZThn16_N15QgsComposerItem14hoverMoveEventEP24QGraphicsSceneHoverEvent@Base {QGIS_ABI}
 _ZThn16_N15QgsComposerItem14mouseMoveEventEP24QGraphicsSceneMouseEvent@Base {QGIS_ABI}
 _ZThn16_N15QgsComposerItem15mousePressEventEP24QGraphicsSceneMouseEvent@Base {QGIS_ABI}
 _ZThn16_N15QgsComposerItem17mouseReleaseEventEP24QGraphicsSceneMouseEvent@Base {QGIS_ABI}
 _ZThn16_N15QgsComposerItemD0Ev@Base {QGIS_ABI}
 _ZThn16_N15QgsComposerItemD1Ev@Base {QGIS_ABI}
 _ZThn16_N16QgsComposerArrow5paintEP8QPainterPK24QStyleOptionGraphicsItemP7QWidget@Base {QGIS_ABI}
 _ZThn16_N16QgsComposerArrowD0Ev@Base {QGIS_ABI}
 _ZThn16_N16QgsComposerArrowD1Ev@Base {QGIS_ABI}
 _ZThn16_N16QgsComposerLabel5paintEP8QPainterPK24QStyleOptionGraphicsItemP7QWidget@Base {QGIS_ABI}
 _ZThn16_N16QgsComposerLabelD0Ev@Base {QGIS_ABI}
 _ZThn16_N16QgsComposerLabelD1Ev@Base {QGIS_ABI}
 _ZThn16_N16QgsComposerShape5paintEP8QPainterPK24QStyleOptionGraphicsItemP7QWidget@Base {QGIS_ABI}
 _ZThn16_N16QgsComposerShapeD0Ev@Base {QGIS_ABI}
 _ZThn16_N16QgsComposerShapeD1Ev@Base {QGIS_ABI}
 _ZThn16_N17QgsComposerLegend5paintEP8QPainterPK24QStyleOptionGraphicsItemP7QWidget@Base {QGIS_ABI}
 _ZThn16_N17QgsComposerLegend7readXMLERK11QDomElementRK12QDomDocument@Base {QGIS_ABI}
 _ZThn16_N17QgsComposerLegendD0Ev@Base {QGIS_ABI}
 _ZThn16_N17QgsComposerLegendD1Ev@Base {QGIS_ABI}
 _ZThn16_N18QgsComposerPicture12setSceneRectERK6QRectF@Base {QGIS_ABI}
 _ZThn16_N18QgsComposerPicture5paintEP8QPainterPK24QStyleOptionGraphicsItemP7QWidget@Base {QGIS_ABI}
 _ZThn16_N18QgsComposerPicture7readXMLERK11QDomElementRK12QDomDocument@Base {QGIS_ABI}
 _ZThn16_N18QgsComposerPictureD0Ev@Base {QGIS_ABI}
 _ZThn16_N18QgsComposerPictureD1Ev@Base {QGIS_ABI}
 _ZThn16_N19QgsComposerScaleBar5paintEP8QPainterPK24QStyleOptionGraphicsItemP7QWidget@Base {QGIS_ABI}
 _ZThn16_N19QgsComposerScaleBar7readXMLERK11QDomElementRK12QDomDocument@Base {QGIS_ABI}
 _ZThn16_N19QgsComposerScaleBarD0Ev@Base {QGIS_ABI}
 _ZThn16_N19QgsComposerScaleBarD1Ev@Base {QGIS_ABI}
 _ZThn16_N20QgsComposerItemGroup11removeItemsEv@Base {QGIS_ABI}
 _ZThn16_N20QgsComposerItemGroup12setSceneRectERK6QRectF@Base {QGIS_ABI}
 _ZThn16_N20QgsComposerItemGroup5paintEP8QPainterPK24QStyleOptionGraphicsItemP7QWidget@Base {QGIS_ABI}
 _ZThn16_N20QgsComposerItemGroup7addItemEP15QgsComposerItem@Base {QGIS_ABI}
 _ZThn16_N20QgsComposerItemGroup7readXMLERK11QDomElementRK12QDomDocument@Base {QGIS_ABI}
 _ZThn16_N20QgsComposerItemGroup9drawFrameEP8QPainter@Base {QGIS_ABI}
 _ZThn16_N20QgsComposerItemGroupD0Ev@Base {QGIS_ABI}
 _ZThn16_N20QgsComposerItemGroupD1Ev@Base {QGIS_ABI}
 _ZThn16_N23QgsMessageOutputConsole10setMessageERK7QStringN16QgsMessageOutput11MessageTypeE@Base {QGIS_ABI}
 _ZThn16_N23QgsMessageOutputConsole11showMessageEb@Base {QGIS_ABI}
 _ZThn16_N23QgsMessageOutputConsole13appendMessageERK7QString@Base {QGIS_ABI}
 _ZThn16_N23QgsMessageOutputConsole8setTitleERK7QString@Base {QGIS_ABI}
 _ZThn16_N23QgsMessageOutputConsoleD0Ev@Base {QGIS_ABI}
 _ZThn16_N23QgsMessageOutputConsoleD1Ev@Base {QGIS_ABI}
 _ZThn16_NK14QgsComposerMap12boundingRectEv@Base {QGIS_ABI}
 _ZThn16_NK14QgsComposerMap8writeXMLER11QDomElementR12QDomDocument@Base {QGIS_ABI}
 _ZThn16_NK17QgsComposerLegend8writeXMLER11QDomElementR12QDomDocument@Base {QGIS_ABI}
 _ZThn16_NK18QgsComposerPicture8writeXMLER11QDomElementR12QDomDocument@Base {QGIS_ABI}
 _ZThn16_NK19QgsComposerScaleBar8writeXMLER11QDomElementR12QDomDocument@Base {QGIS_ABI}
 _ZThn16_NK20QgsComposerItemGroup8writeXMLER11QDomElementR12QDomDocument@Base {QGIS_ABI}
 _ZThn4_N12SpatialIndex5INodeD0Ev@Base {QGIS_ABI}
 _ZThn4_N12SpatialIndex5INodeD1Ev@Base {QGIS_ABI}
 _ZThn4_N12SpatialIndex5RTree4Data16getByteArraySizeEv@Base {QGIS_ABI}
 _ZThn4_N12SpatialIndex5RTree4Data16storeToByteArrayEPPhRm@Base {QGIS_ABI}
 _ZThn4_N12SpatialIndex5RTree4Data17loadFromByteArrayEPKh@Base {QGIS_ABI}
 _ZThn4_N12SpatialIndex5RTree4DataD0Ev@Base {QGIS_ABI}
 _ZThn4_N12SpatialIndex5RTree4DataD1Ev@Base {QGIS_ABI}
 _ZThn4_N12SpatialIndex5RTree4LeafD0Ev@Base {QGIS_ABI}
 _ZThn4_N12SpatialIndex5RTree4LeafD1Ev@Base {QGIS_ABI}
 _ZThn4_N12SpatialIndex5RTree4Node16getByteArraySizeEv@Base {QGIS_ABI}
 _ZThn4_N12SpatialIndex5RTree4Node16storeToByteArrayEPPhRm@Base {QGIS_ABI}
 _ZThn4_N12SpatialIndex5RTree4Node17loadFromByteArrayEPKh@Base {QGIS_ABI}
 _ZThn4_N12SpatialIndex5RTree4NodeD0Ev@Base {QGIS_ABI}
 _ZThn4_N12SpatialIndex5RTree4NodeD1Ev@Base {QGIS_ABI}
 _ZThn4_N12SpatialIndex5RTree5IndexD0Ev@Base {QGIS_ABI}
 _ZThn4_N12SpatialIndex5RTree5IndexD1Ev@Base {QGIS_ABI}
 _ZThn8_N12SpatialIndex5INodeD0Ev@Base {QGIS_ABI}
 _ZThn8_N12SpatialIndex5INodeD1Ev@Base {QGIS_ABI}
 _ZThn8_N12SpatialIndex5RTree4Data16getByteArraySizeEv@Base {QGIS_ABI}
 _ZThn8_N12SpatialIndex5RTree4Data16storeToByteArrayEPPhRm@Base {QGIS_ABI}
 _ZThn8_N12SpatialIndex5RTree4Data17loadFromByteArrayEPKh@Base {QGIS_ABI}
 _ZThn8_N12SpatialIndex5RTree4DataD0Ev@Base {QGIS_ABI}
 _ZThn8_N12SpatialIndex5RTree4DataD1Ev@Base {QGIS_ABI}
 _ZThn8_N12SpatialIndex5RTree4LeafD0Ev@Base {QGIS_ABI}
 _ZThn8_N12SpatialIndex5RTree4LeafD1Ev@Base {QGIS_ABI}
 _ZThn8_N12SpatialIndex5RTree4Node16getByteArraySizeEv@Base {QGIS_ABI}
 _ZThn8_N12SpatialIndex5RTree4Node16storeToByteArrayEPPhRm@Base {QGIS_ABI}
 _ZThn8_N12SpatialIndex5RTree4Node17loadFromByteArrayEPKh@Base {QGIS_ABI}
 _ZThn8_N12SpatialIndex5RTree4NodeD0Ev@Base {QGIS_ABI}
 _ZThn8_N12SpatialIndex5RTree4NodeD1Ev@Base {QGIS_ABI}
 _ZThn8_N12SpatialIndex5RTree5IndexD0Ev@Base {QGIS_ABI}
 _ZThn8_N12SpatialIndex5RTree5IndexD1Ev@Base {QGIS_ABI}
 _ZThn8_N14QgsComposerMap11moveContentEdd@Base {QGIS_ABI}
 _ZThn8_N14QgsComposerMap11zoomContentEidd@Base {QGIS_ABI}
 _ZThn8_N14QgsComposerMap12setSceneRectERK6QRectF@Base {QGIS_ABI}
 _ZThn8_N14QgsComposerMap5paintEP8QPainterPK24QStyleOptionGraphicsItemP7QWidget@Base {QGIS_ABI}
 _ZThn8_N14QgsComposerMap7readXMLERK11QDomElementRK12QDomDocument@Base {QGIS_ABI}
 _ZThn8_N14QgsComposerMapD0Ev@Base {QGIS_ABI}
 _ZThn8_N14QgsComposerMapD1Ev@Base {QGIS_ABI}
 _ZThn8_N17QgsComposerLegend5paintEP8QPainterPK24QStyleOptionGraphicsItemP7QWidget@Base {QGIS_ABI}
 _ZThn8_N17QgsComposerLegend7readXMLERK11QDomElementRK12QDomDocument@Base {QGIS_ABI}
 _ZThn8_N17QgsComposerLegendD0Ev@Base {QGIS_ABI}
 _ZThn8_N17QgsComposerLegendD1Ev@Base {QGIS_ABI}
 _ZThn8_N18QgsComposerPicture12setSceneRectERK6QRectF@Base {QGIS_ABI}
 _ZThn8_N18QgsComposerPicture5paintEP8QPainterPK24QStyleOptionGraphicsItemP7QWidget@Base {QGIS_ABI}
 _ZThn8_N18QgsComposerPicture7readXMLERK11QDomElementRK12QDomDocument@Base {QGIS_ABI}
 _ZThn8_N18QgsComposerPictureD0Ev@Base {QGIS_ABI}
 _ZThn8_N18QgsComposerPictureD1Ev@Base {QGIS_ABI}
 _ZThn8_N19QgsComposerScaleBar5paintEP8QPainterPK24QStyleOptionGraphicsItemP7QWidget@Base {QGIS_ABI}
 _ZThn8_N19QgsComposerScaleBar7readXMLERK11QDomElementRK12QDomDocument@Base {QGIS_ABI}
 _ZThn8_N19QgsComposerScaleBarD0Ev@Base {QGIS_ABI}
 _ZThn8_N19QgsComposerScaleBarD1Ev@Base {QGIS_ABI}
 _ZThn8_N20QgsComposerItemGroup11removeItemsEv@Base {QGIS_ABI}
 _ZThn8_N20QgsComposerItemGroup12setSceneRectERK6QRectF@Base {QGIS_ABI}
 _ZThn8_N20QgsComposerItemGroup5paintEP8QPainterPK24QStyleOptionGraphicsItemP7QWidget@Base {QGIS_ABI}
 _ZThn8_N20QgsComposerItemGroup7addItemEP15QgsComposerItem@Base {QGIS_ABI}
 _ZThn8_N20QgsComposerItemGroup7readXMLERK11QDomElementRK12QDomDocument@Base {QGIS_ABI}
 _ZThn8_N20QgsComposerItemGroup9drawFrameEP8QPainter@Base {QGIS_ABI}
 _ZThn8_N20QgsComposerItemGroupD0Ev@Base {QGIS_ABI}
 _ZThn8_N20QgsComposerItemGroupD1Ev@Base {QGIS_ABI}
 _ZThn8_N23QgsMessageOutputConsole10setMessageERK7QStringN16QgsMessageOutput11MessageTypeE@Base {QGIS_ABI}
 _ZThn8_N23QgsMessageOutputConsole11showMessageEb@Base {QGIS_ABI}
 _ZThn8_N23QgsMessageOutputConsole13appendMessageERK7QString@Base {QGIS_ABI}
 _ZThn8_N23QgsMessageOutputConsole8setTitleERK7QString@Base {QGIS_ABI}
 _ZThn8_N23QgsMessageOutputConsoleD0Ev@Base {QGIS_ABI}
 _ZThn8_N23QgsMessageOutputConsoleD1Ev@Base {QGIS_ABI}
 _ZThn8_NK14QgsComposerMap12boundingRectEv@Base {QGIS_ABI}
 _ZThn8_NK14QgsComposerMap8writeXMLER11QDomElementR12QDomDocument@Base {QGIS_ABI}
 _ZThn8_NK17QgsComposerLegend8writeXMLER11QDomElementR12QDomDocument@Base {QGIS_ABI}
 _ZThn8_NK18QgsComposerPicture8writeXMLER11QDomElementR12QDomDocument@Base {QGIS_ABI}
 _ZThn8_NK19QgsComposerScaleBar8writeXMLER11QDomElementR12QDomDocument@Base {QGIS_ABI}
 _ZThn8_NK20QgsComposerItemGroup8writeXMLER11QDomElementR12QDomDocument@Base {QGIS_ABI}
 _ZTv0_n104_NK5Tools8Geometry11LineSegment6getMBRERNS0_6RegionE@Base {QGIS_ABI}
 _ZTv0_n104_NK5Tools8Geometry5Point6getMBRERNS0_6RegionE@Base {QGIS_ABI}
 _ZTv0_n104_NK5Tools8Geometry6Region6getMBRERS1_@Base {QGIS_ABI}
 _ZTv0_n112_NK5Tools8Geometry11LineSegment7getAreaEv@Base {QGIS_ABI}
 _ZTv0_n112_NK5Tools8Geometry5Point7getAreaEv@Base {QGIS_ABI}
 _ZTv0_n112_NK5Tools8Geometry6Region7getAreaEv@Base {QGIS_ABI}
 _ZTv0_n120_NK5Tools8Geometry11LineSegment18getMinimumDistanceERKNS0_6IShapeE@Base {QGIS_ABI}
 _ZTv0_n120_NK5Tools8Geometry5Point18getMinimumDistanceERKNS0_6IShapeE@Base {QGIS_ABI}
 _ZTv0_n120_NK5Tools8Geometry6Region18getMinimumDistanceERKNS0_6IShapeE@Base {QGIS_ABI}
 _ZTv0_n12_N5Tools8Geometry11LineSegmentD0Ev@Base {QGIS_ABI}
 _ZTv0_n12_N5Tools8Geometry11LineSegmentD1Ev@Base {QGIS_ABI}
 _ZTv0_n12_N5Tools8Geometry5PointD0Ev@Base {QGIS_ABI}
 _ZTv0_n12_N5Tools8Geometry5PointD1Ev@Base {QGIS_ABI}
 _ZTv0_n12_N5Tools8Geometry6IShapeD0Ev@Base {QGIS_ABI}
 _ZTv0_n12_N5Tools8Geometry6IShapeD1Ev@Base {QGIS_ABI}
 _ZTv0_n12_N5Tools8Geometry6RegionD0Ev@Base {QGIS_ABI}
 _ZTv0_n12_N5Tools8Geometry6RegionD1Ev@Base {QGIS_ABI}
 _ZTv0_n16_N5Tools8Geometry11LineSegment16getByteArraySizeEv@Base {QGIS_ABI}
 _ZTv0_n16_N5Tools8Geometry5Point16getByteArraySizeEv@Base {QGIS_ABI}
 _ZTv0_n16_N5Tools8Geometry6Region16getByteArraySizeEv@Base {QGIS_ABI}
 _ZTv0_n20_N5Tools8Geometry11LineSegment17loadFromByteArrayEPKh@Base {QGIS_ABI}
 _ZTv0_n20_N5Tools8Geometry5Point17loadFromByteArrayEPKh@Base {QGIS_ABI}
 _ZTv0_n20_N5Tools8Geometry6Region17loadFromByteArrayEPKh@Base {QGIS_ABI}
 _ZTv0_n24_N5Tools8Geometry11LineSegment16storeToByteArrayEPPhRm@Base {QGIS_ABI}
 _ZTv0_n24_N5Tools8Geometry11LineSegmentD0Ev@Base {QGIS_ABI}
 _ZTv0_n24_N5Tools8Geometry11LineSegmentD1Ev@Base {QGIS_ABI}
 _ZTv0_n24_N5Tools8Geometry5Point16storeToByteArrayEPPhRm@Base {QGIS_ABI}
 _ZTv0_n24_N5Tools8Geometry5PointD0Ev@Base {QGIS_ABI}
 _ZTv0_n24_N5Tools8Geometry5PointD1Ev@Base {QGIS_ABI}
 _ZTv0_n24_N5Tools8Geometry6IShapeD0Ev@Base {QGIS_ABI}
 _ZTv0_n24_N5Tools8Geometry6IShapeD1Ev@Base {QGIS_ABI}
 _ZTv0_n24_N5Tools8Geometry6Region16storeToByteArrayEPPhRm@Base {QGIS_ABI}
 _ZTv0_n24_N5Tools8Geometry6RegionD0Ev@Base {QGIS_ABI}
 _ZTv0_n24_N5Tools8Geometry6RegionD1Ev@Base {QGIS_ABI}
 _ZTv0_n32_N5Tools8Geometry11LineSegment16getByteArraySizeEv@Base {QGIS_ABI}
 _ZTv0_n32_N5Tools8Geometry5Point16getByteArraySizeEv@Base {QGIS_ABI}
 _ZTv0_n32_N5Tools8Geometry6Region16getByteArraySizeEv@Base {QGIS_ABI}
 _ZTv0_n32_NK5Tools8Geometry11LineSegment15intersectsShapeERKNS0_6IShapeE@Base {QGIS_ABI}
 _ZTv0_n32_NK5Tools8Geometry5Point15intersectsShapeERKNS0_6IShapeE@Base {QGIS_ABI}
 _ZTv0_n32_NK5Tools8Geometry6Region15intersectsShapeERKNS0_6IShapeE@Base {QGIS_ABI}
 _ZTv0_n36_NK5Tools8Geometry11LineSegment13containsShapeERKNS0_6IShapeE@Base {QGIS_ABI}
 _ZTv0_n36_NK5Tools8Geometry5Point13containsShapeERKNS0_6IShapeE@Base {QGIS_ABI}
 _ZTv0_n36_NK5Tools8Geometry6Region13containsShapeERKNS0_6IShapeE@Base {QGIS_ABI}
 _ZTv0_n40_N5Tools8Geometry11LineSegment17loadFromByteArrayEPKh@Base {QGIS_ABI}
 _ZTv0_n40_N5Tools8Geometry5Point17loadFromByteArrayEPKh@Base {QGIS_ABI}
 _ZTv0_n40_N5Tools8Geometry6Region17loadFromByteArrayEPKh@Base {QGIS_ABI}
 _ZTv0_n40_NK5Tools8Geometry11LineSegment12touchesShapeERKNS0_6IShapeE@Base {QGIS_ABI}
 _ZTv0_n40_NK5Tools8Geometry5Point12touchesShapeERKNS0_6IShapeE@Base {QGIS_ABI}
 _ZTv0_n40_NK5Tools8Geometry6Region12touchesShapeERKNS0_6IShapeE@Base {QGIS_ABI}
 _ZTv0_n44_NK5Tools8Geometry11LineSegment9getCenterERNS0_5PointE@Base {QGIS_ABI}
 _ZTv0_n44_NK5Tools8Geometry5Point9getCenterERS1_@Base {QGIS_ABI}
 _ZTv0_n44_NK5Tools8Geometry6Region9getCenterERNS0_5PointE@Base {QGIS_ABI}
 _ZTv0_n48_N5Tools8Geometry11LineSegment16storeToByteArrayEPPhRm@Base {QGIS_ABI}
 _ZTv0_n48_N5Tools8Geometry5Point16storeToByteArrayEPPhRm@Base {QGIS_ABI}
 _ZTv0_n48_N5Tools8Geometry6Region16storeToByteArrayEPPhRm@Base {QGIS_ABI}
 _ZTv0_n48_NK5Tools8Geometry11LineSegment12getDimensionEv@Base {QGIS_ABI}
 _ZTv0_n48_NK5Tools8Geometry5Point12getDimensionEv@Base {QGIS_ABI}
 _ZTv0_n48_NK5Tools8Geometry6Region12getDimensionEv@Base {QGIS_ABI}
 _ZTv0_n52_NK5Tools8Geometry11LineSegment6getMBRERNS0_6RegionE@Base {QGIS_ABI}
 _ZTv0_n52_NK5Tools8Geometry5Point6getMBRERNS0_6RegionE@Base {QGIS_ABI}
 _ZTv0_n52_NK5Tools8Geometry6Region6getMBRERS1_@Base {QGIS_ABI}
 _ZTv0_n56_NK5Tools8Geometry11LineSegment7getAreaEv@Base {QGIS_ABI}
 _ZTv0_n56_NK5Tools8Geometry5Point7getAreaEv@Base {QGIS_ABI}
 _ZTv0_n56_NK5Tools8Geometry6Region7getAreaEv@Base {QGIS_ABI}
 _ZTv0_n60_NK5Tools8Geometry11LineSegment18getMinimumDistanceERKNS0_6IShapeE@Base {QGIS_ABI}
 _ZTv0_n60_NK5Tools8Geometry5Point18getMinimumDistanceERKNS0_6IShapeE@Base {QGIS_ABI}
 _ZTv0_n60_NK5Tools8Geometry6Region18getMinimumDistanceERKNS0_6IShapeE@Base {QGIS_ABI}
 _ZTv0_n64_NK5Tools8Geometry11LineSegment15intersectsShapeERKNS0_6IShapeE@Base {QGIS_ABI}
 _ZTv0_n64_NK5Tools8Geometry5Point15intersectsShapeERKNS0_6IShapeE@Base {QGIS_ABI}
 _ZTv0_n64_NK5Tools8Geometry6Region15intersectsShapeERKNS0_6IShapeE@Base {QGIS_ABI}
 _ZTv0_n72_NK5Tools8Geometry11LineSegment13containsShapeERKNS0_6IShapeE@Base {QGIS_ABI}
 _ZTv0_n72_NK5Tools8Geometry5Point13containsShapeERKNS0_6IShapeE@Base {QGIS_ABI}
 _ZTv0_n72_NK5Tools8Geometry6Region13containsShapeERKNS0_6IShapeE@Base {QGIS_ABI}
 _ZTv0_n80_NK5Tools8Geometry11LineSegment12touchesShapeERKNS0_6IShapeE@Base {QGIS_ABI}
 _ZTv0_n80_NK5Tools8Geometry5Point12touchesShapeERKNS0_6IShapeE@Base {QGIS_ABI}
 _ZTv0_n80_NK5Tools8Geometry6Region12touchesShapeERKNS0_6IShapeE@Base {QGIS_ABI}
 _ZTv0_n88_NK5Tools8Geometry11LineSegment9getCenterERNS0_5PointE@Base {QGIS_ABI}
 _ZTv0_n88_NK5Tools8Geometry5Point9getCenterERS1_@Base {QGIS_ABI}
 _ZTv0_n88_NK5Tools8Geometry6Region9getCenterERNS0_5PointE@Base {QGIS_ABI}
 _ZTv0_n96_NK5Tools8Geometry11LineSegment12getDimensionEv@Base {QGIS_ABI}
 _ZTv0_n96_NK5Tools8Geometry5Point12getDimensionEv@Base {QGIS_ABI}
 _ZTv0_n96_NK5Tools8Geometry6Region12getDimensionEv@Base {QGIS_ABI}
 _ZZN3pal12degree2meterEdE1e@Base {QGIS_ABI}
 _ZZN3pal12degree2meterEdE2ra@Base {QGIS_ABI}
 _ZZN3pal12degree2meterEdE4rads@Base {QGIS_ABI}
 _ZplPKcRK7QString@Base {QGIS_ABI}
 _ZplRK7QString5QChar@Base {QGIS_ABI}
 _ZplRK7QStringPKc@Base {QGIS_ABI}
 _ZplRK7QStringS1_@Base {QGIS_ABI}
 _ZplRK7QStringc@Base {QGIS_ABI}
 brewerString@Base {QGIS_ABI}
 gParserErrorMsg@Base {QGIS_ABI}
 gTmpNodes@Base {QGIS_ABI}
 gaiaAddDbfField@Base {QGIS_ABI}
 gaiaAddInteriorRing@Base {QGIS_ABI}
 gaiaAddLinestringToGeomColl@Base {QGIS_ABI}
 gaiaAddPointToGeomColl@Base {QGIS_ABI}
 gaiaAddPointToGeomCollXYM@Base {QGIS_ABI}
 gaiaAddPointToGeomCollXYZ@Base {QGIS_ABI}
 gaiaAddPointToGeomCollXYZM@Base {QGIS_ABI}
 gaiaAddPolygonToGeomColl@Base {QGIS_ABI}
 gaiaAddRingToPolyg@Base {QGIS_ABI}
 gaiaAllocDbfField@Base {QGIS_ABI}
 gaiaAllocDbfList@Base {QGIS_ABI}
 gaiaAllocDynamicLine@Base {QGIS_ABI}
 gaiaAllocGeomColl@Base {QGIS_ABI}
 gaiaAllocGeomCollXYM@Base {QGIS_ABI}
 gaiaAllocGeomCollXYZ@Base {QGIS_ABI}
 gaiaAllocGeomCollXYZM@Base {QGIS_ABI}
 gaiaAllocLinestring@Base {QGIS_ABI}
 gaiaAllocLinestringXYM@Base {QGIS_ABI}
 gaiaAllocLinestringXYZ@Base {QGIS_ABI}
 gaiaAllocLinestringXYZM@Base {QGIS_ABI}
 gaiaAllocPoint@Base {QGIS_ABI}
 gaiaAllocPointXYM@Base {QGIS_ABI}
 gaiaAllocPointXYZ@Base {QGIS_ABI}
 gaiaAllocPointXYZM@Base {QGIS_ABI}
 gaiaAllocPolygon@Base {QGIS_ABI}
 gaiaAllocPolygonXYM@Base {QGIS_ABI}
 gaiaAllocPolygonXYZ@Base {QGIS_ABI}
 gaiaAllocPolygonXYZM@Base {QGIS_ABI}
 gaiaAllocRing@Base {QGIS_ABI}
 gaiaAllocRingXYM@Base {QGIS_ABI}
 gaiaAllocRingXYZ@Base {QGIS_ABI}
 gaiaAllocRingXYZM@Base {QGIS_ABI}
 gaiaAllocShapefile@Base {QGIS_ABI}
 gaiaAppendPointToDynamicLine@Base {QGIS_ABI}
 gaiaBoundary@Base {QGIS_ABI}
 gaiaBuildCircleMbr@Base {QGIS_ABI}
 gaiaBuildFilterMbr@Base {QGIS_ABI}
 gaiaBuildMbr@Base {QGIS_ABI}
 gaiaBuildRings@Base {QGIS_ABI}
 gaiaCastGeomCollToXY@Base {QGIS_ABI}
 gaiaCastGeomCollToXYM@Base {QGIS_ABI}
 gaiaCastGeomCollToXYZ@Base {QGIS_ABI}
 gaiaCastGeomCollToXYZM@Base {QGIS_ABI}
 gaiaCleanSqlString@Base {QGIS_ABI}
 gaiaClockwise@Base {QGIS_ABI}
 gaiaCloneDbfEntity@Base {QGIS_ABI}
 gaiaCloneDbfField@Base {QGIS_ABI}
 gaiaCloneDynamicLine@Base {QGIS_ABI}
 gaiaCloneGeomColl@Base {QGIS_ABI}
 gaiaCloneLinestring@Base {QGIS_ABI}
 gaiaClonePolygon@Base {QGIS_ABI}
 gaiaCloneRing@Base {QGIS_ABI}
 gaiaCloneValue@Base {QGIS_ABI}
 gaiaConvertCharset@Base {QGIS_ABI}
 gaiaConvertLength@Base {QGIS_ABI}
 gaiaConvertToUTF8@Base {QGIS_ABI}
 gaiaConvexHull@Base {QGIS_ABI}
 gaiaCopyLinestringCoords@Base {QGIS_ABI}
 gaiaCopyRingCoords@Base {QGIS_ABI}
 gaiaCreateDynamicLine@Base {QGIS_ABI}
 gaiaCreatePolygon@Base {QGIS_ABI}
 gaiaCreateUTF8Converter@Base {QGIS_ABI}
 gaiaDegsToRads@Base {QGIS_ABI}
 gaiaDimension@Base {QGIS_ABI}
 gaiaDynamicLineDeletePoint@Base {QGIS_ABI}
 gaiaDynamicLineFindByCoords@Base {QGIS_ABI}
 gaiaDynamicLineFindByPos@Base {QGIS_ABI}
 gaiaDynamicLineInsertAfter@Base {QGIS_ABI}
 gaiaDynamicLineInsertBefore@Base {QGIS_ABI}
 gaiaDynamicLineJoinAfter@Base {QGIS_ABI}
 gaiaDynamicLineJoinBefore@Base {QGIS_ABI}
 gaiaDynamicLineSplitAfter@Base {QGIS_ABI}
 gaiaDynamicLineSplitBefore@Base {QGIS_ABI}
 gaiaEllipseParams@Base {QGIS_ABI}
 gaiaEndianArch@Base {QGIS_ABI}
 gaiaExifTagGetByteValue@Base {QGIS_ABI}
 gaiaExifTagGetDoubleValue@Base {QGIS_ABI}
 gaiaExifTagGetFloatValue@Base {QGIS_ABI}
 gaiaExifTagGetHumanReadable@Base {QGIS_ABI}
 gaiaExifTagGetId@Base {QGIS_ABI}
 gaiaExifTagGetLongValue@Base {QGIS_ABI}
 gaiaExifTagGetName@Base {QGIS_ABI}
 gaiaExifTagGetNumValues@Base {QGIS_ABI}
 gaiaExifTagGetRational1Value@Base {QGIS_ABI}
 gaiaExifTagGetRational2Value@Base {QGIS_ABI}
 gaiaExifTagGetRationalValue@Base {QGIS_ABI}
 gaiaExifTagGetShortValue@Base {QGIS_ABI}
 gaiaExifTagGetSignedLongValue@Base {QGIS_ABI}
 gaiaExifTagGetSignedRational1Value@Base {QGIS_ABI}
 gaiaExifTagGetSignedRational2Value@Base {QGIS_ABI}
 gaiaExifTagGetSignedRationalValue@Base {QGIS_ABI}
 gaiaExifTagGetSignedShortValue@Base {QGIS_ABI}
 gaiaExifTagGetStringValue@Base {QGIS_ABI}
 gaiaExifTagGetValueType@Base {QGIS_ABI}
 gaiaExifTagsFree@Base {QGIS_ABI}
 gaiaExport16@Base {QGIS_ABI}
 gaiaExport32@Base {QGIS_ABI}
 gaiaExport64@Base {QGIS_ABI}
 gaiaExportF32@Base {QGIS_ABI}
 gaiaExportI64@Base {QGIS_ABI}
 gaiaFlushShpHeaders@Base {QGIS_ABI}
 gaiaFree@Base {QGIS_ABI}
 gaiaFreeDbfField@Base {QGIS_ABI}
 gaiaFreeDbfList@Base {QGIS_ABI}
 gaiaFreeDynamicLine@Base {QGIS_ABI}
 gaiaFreeGeomColl@Base {QGIS_ABI}
 gaiaFreeLinestring@Base {QGIS_ABI}
 gaiaFreePoint@Base {QGIS_ABI}
 gaiaFreePolygon@Base {QGIS_ABI}
 gaiaFreeRing@Base {QGIS_ABI}
 gaiaFreeShapefile@Base {QGIS_ABI}
 gaiaFreeUTF8Converter@Base {QGIS_ABI}
 gaiaFreeValue@Base {QGIS_ABI}
 gaiaFromFgf@Base {QGIS_ABI}
 gaiaFromGeos_XY@Base {QGIS_ABI}
 gaiaFromGeos_XYM@Base {QGIS_ABI}
 gaiaFromGeos_XYZ@Base {QGIS_ABI}
 gaiaFromGeos_XYZM@Base {QGIS_ABI}
 gaiaFromSpatiaLiteBlobMbr@Base {QGIS_ABI}
 gaiaFromSpatiaLiteBlobWkb@Base {QGIS_ABI}
 gaiaFromWkb@Base {QGIS_ABI}
 gaiaGeodesicDistance@Base {QGIS_ABI}
 gaiaGeodesicTotalLength@Base {QGIS_ABI}
 gaiaGeomCollArea@Base {QGIS_ABI}
 gaiaGeomCollBuffer@Base {QGIS_ABI}
 gaiaGeomCollCentroid@Base {QGIS_ABI}
 gaiaGeomCollContains@Base {QGIS_ABI}
 gaiaGeomCollCrosses@Base {QGIS_ABI}
 gaiaGeomCollDisjoint@Base {QGIS_ABI}
 gaiaGeomCollDistance@Base {QGIS_ABI}
 gaiaGeomCollEquals@Base {QGIS_ABI}
 gaiaGeomCollIntersects@Base {QGIS_ABI}
 gaiaGeomCollLength@Base {QGIS_ABI}
 gaiaGeomCollOverlaps@Base {QGIS_ABI}
 gaiaGeomCollRelate@Base {QGIS_ABI}
 gaiaGeomCollSimplify@Base {QGIS_ABI}
 gaiaGeomCollSimplifyPreserveTopology@Base {QGIS_ABI}
 gaiaGeomCollTouches@Base {QGIS_ABI}
 gaiaGeomCollWithin@Base {QGIS_ABI}
 gaiaGeometryAliasType@Base {QGIS_ABI}
 gaiaGeometryDifference@Base {QGIS_ABI}
 gaiaGeometryIntersection@Base {QGIS_ABI}
 gaiaGeometrySymDifference@Base {QGIS_ABI}
 gaiaGeometryType@Base {QGIS_ABI}
 gaiaGeometryUnion@Base {QGIS_ABI}
 gaiaGetExifGpsTagById@Base {QGIS_ABI}
 gaiaGetExifTagById@Base {QGIS_ABI}
 gaiaGetExifTagByName@Base {QGIS_ABI}
 gaiaGetExifTagByPos@Base {QGIS_ABI}
 gaiaGetExifTags@Base {QGIS_ABI}
 gaiaGetExifTagsCount@Base {QGIS_ABI}
 gaiaGetGpsCoords@Base {QGIS_ABI}
 gaiaGetGpsLatLong@Base {QGIS_ABI}
 gaiaGetLocaleCharset@Base {QGIS_ABI}
 gaiaGetMbrMaxX@Base {QGIS_ABI}
 gaiaGetMbrMaxY@Base {QGIS_ABI}
 gaiaGetMbrMinX@Base {QGIS_ABI}
 gaiaGetMbrMinY@Base {QGIS_ABI}
 gaiaGetPointOnSurface@Base {QGIS_ABI}
 gaiaGreatCircleDistance@Base {QGIS_ABI}
 gaiaGreatCircleTotalLength@Base {QGIS_ABI}
 gaiaGuessBlobType@Base {QGIS_ABI}
 gaiaIllegalSqlName@Base {QGIS_ABI}
 gaiaImport16@Base {QGIS_ABI}
 gaiaImport32@Base {QGIS_ABI}
 gaiaImport64@Base {QGIS_ABI}
 gaiaImportF32@Base {QGIS_ABI}
 gaiaImportI64@Base {QGIS_ABI}
 gaiaInsertInteriorRing@Base {QGIS_ABI}
 gaiaInsertLinestringInGeomColl@Base {QGIS_ABI}
 gaiaInsertPolygonInGeomColl@Base {QGIS_ABI}
 gaiaIntersect@Base {QGIS_ABI}
 gaiaIsClosed@Base {QGIS_ABI}
 gaiaIsEmpty@Base {QGIS_ABI}
 gaiaIsExifGpsTag@Base {QGIS_ABI}
 gaiaIsPointOnPolygonSurface@Base {QGIS_ABI}
 gaiaIsPointOnRingSurface@Base {QGIS_ABI}
 gaiaIsReservedSqlName@Base {QGIS_ABI}
 gaiaIsReservedSqliteName@Base {QGIS_ABI}
 gaiaIsRing@Base {QGIS_ABI}
 gaiaIsSimple@Base {QGIS_ABI}
 gaiaIsValid@Base {QGIS_ABI}
 gaiaIsValidDbfList@Base {QGIS_ABI}
 gaiaLinestringEquals@Base {QGIS_ABI}
 gaiaMRangeGeometry@Base {QGIS_ABI}
 gaiaMRangeLinestring@Base {QGIS_ABI}
 gaiaMRangePolygon@Base {QGIS_ABI}
 gaiaMRangeRing@Base {QGIS_ABI}
 gaiaMakePoint@Base {QGIS_ABI}
 gaiaMbrGeometry@Base {QGIS_ABI}
 gaiaMbrLinestring@Base {QGIS_ABI}
 gaiaMbrPolygon@Base {QGIS_ABI}
 gaiaMbrRing@Base {QGIS_ABI}
 gaiaMbrsContains@Base {QGIS_ABI}
 gaiaMbrsDisjoint@Base {QGIS_ABI}
 gaiaMbrsEqual@Base {QGIS_ABI}
 gaiaMbrsIntersects@Base {QGIS_ABI}
 gaiaMbrsOverlaps@Base {QGIS_ABI}
 gaiaMbrsTouches@Base {QGIS_ABI}
 gaiaMbrsWithin@Base {QGIS_ABI}
 gaiaMeasureArea@Base {QGIS_ABI}
 gaiaMeasureLength@Base {QGIS_ABI}
 gaiaMinDistance@Base {QGIS_ABI}
 gaiaOpenShpRead@Base {QGIS_ABI}
 gaiaOpenShpWrite@Base {QGIS_ABI}
 gaiaOutSvg@Base {QGIS_ABI}
 gaiaOutWkt@Base {QGIS_ABI}
 gaiaParseFilterMbr@Base {QGIS_ABI}
 gaiaParseWkt@Base {QGIS_ABI}
 gaiaPolygonEquals@Base {QGIS_ABI}
 gaiaPolygonize@Base {QGIS_ABI}
 gaiaPrependPointToDynamicLine@Base {QGIS_ABI}
 gaiaRadsToDegs@Base {QGIS_ABI}
 gaiaReadShpEntity@Base {QGIS_ABI}
 gaiaReflectCoords@Base {QGIS_ABI}
 gaiaResetDbfEntity@Base {QGIS_ABI}
 gaiaReverseDynamicLine@Base {QGIS_ABI}
 gaiaRingCentroid@Base {QGIS_ABI}
 gaiaRotateCoords@Base {QGIS_ABI}
 gaiaScaleCoords@Base {QGIS_ABI}
 gaiaSetDoubleValue@Base {QGIS_ABI}
 gaiaSetIntValue@Base {QGIS_ABI}
 gaiaSetNullValue@Base {QGIS_ABI}
 gaiaSetStrValue@Base {QGIS_ABI}
 gaiaShiftCoords@Base {QGIS_ABI}
 gaiaShpAnalyze@Base {QGIS_ABI}
 gaiaSwapCoords@Base {QGIS_ABI}
 gaiaToCompressedBlobWkb@Base {QGIS_ABI}
 gaiaToFgf@Base {QGIS_ABI}
 gaiaToGeos@Base {QGIS_ABI}
 gaiaToHexWkb@Base {QGIS_ABI}
 gaiaToSpatiaLiteBlobWkb@Base {QGIS_ABI}
 gaiaToWkb@Base {QGIS_ABI}
 gaiaTransform@Base {QGIS_ABI}
 gaiaWriteShpEntity@Base {QGIS_ABI}
 gaiaZRangeGeometry@Base {QGIS_ABI}
 gaiaZRangeLinestring@Base {QGIS_ABI}
 gaiaZRangePolygon@Base {QGIS_ABI}
 gaiaZRangeRing@Base {QGIS_ABI}
 math_llabs@Base {QGIS_ABI}
 math_round@Base {QGIS_ABI}
 mbrcache_extension_init@Base {QGIS_ABI}
 my_fdo_module@Base {QGIS_ABI}
 rtreeUpdate@Base {QGIS_ABI}
 spatialite_init@Base {QGIS_ABI}
 spatialite_version@Base {QGIS_ABI}
 spatialiteversion@Base {QGIS_ABI}
 sqlite3MbrCacheInit@Base {QGIS_ABI}
 sqlite3VirtualFDOInit@Base {QGIS_ABI}
 sqlite3VirtualNetworkInit@Base {QGIS_ABI}
 sqlite3VirtualShapeInit@Base {QGIS_ABI}
 sqlite3VirtualTextInit@Base {QGIS_ABI}
 sqlite3_aggregate_context@Base {QGIS_ABI}
 sqlite3_aggregate_count@Base {QGIS_ABI}
 sqlite3_auto_extension@Base {QGIS_ABI}
 sqlite3_backup_finish@Base {QGIS_ABI}
 sqlite3_backup_init@Base {QGIS_ABI}
 sqlite3_backup_pagecount@Base {QGIS_ABI}
 sqlite3_backup_remaining@Base {QGIS_ABI}
 sqlite3_backup_step@Base {QGIS_ABI}
 sqlite3_bind_blob@Base {QGIS_ABI}
 sqlite3_bind_double@Base {QGIS_ABI}
 sqlite3_bind_int64@Base {QGIS_ABI}
 sqlite3_bind_int@Base {QGIS_ABI}
 sqlite3_bind_null@Base {QGIS_ABI}
 sqlite3_bind_parameter_count@Base {QGIS_ABI}
 sqlite3_bind_parameter_index@Base {QGIS_ABI}
 sqlite3_bind_parameter_name@Base {QGIS_ABI}
 sqlite3_bind_text16@Base {QGIS_ABI}
 sqlite3_bind_text@Base {QGIS_ABI}
 sqlite3_bind_value@Base {QGIS_ABI}
 sqlite3_bind_zeroblob@Base {QGIS_ABI}
 sqlite3_blob_bytes@Base {QGIS_ABI}
 sqlite3_blob_close@Base {QGIS_ABI}
 sqlite3_blob_open@Base {QGIS_ABI}
 sqlite3_blob_read@Base {QGIS_ABI}
 sqlite3_blob_write@Base {QGIS_ABI}
 sqlite3_busy_handler@Base {QGIS_ABI}
 sqlite3_busy_timeout@Base {QGIS_ABI}
 sqlite3_changes@Base {QGIS_ABI}
 sqlite3_clear_bindings@Base {QGIS_ABI}
 sqlite3_close@Base {QGIS_ABI}
 sqlite3_collation_needed16@Base {QGIS_ABI}
 sqlite3_collation_needed@Base {QGIS_ABI}
 sqlite3_column_blob@Base {QGIS_ABI}
 sqlite3_column_bytes16@Base {QGIS_ABI}
 sqlite3_column_bytes@Base {QGIS_ABI}
 sqlite3_column_count@Base {QGIS_ABI}
 sqlite3_column_decltype16@Base {QGIS_ABI}
 sqlite3_column_decltype@Base {QGIS_ABI}
 sqlite3_column_double@Base {QGIS_ABI}
 sqlite3_column_int64@Base {QGIS_ABI}
 sqlite3_column_int@Base {QGIS_ABI}
 sqlite3_column_name16@Base {QGIS_ABI}
 sqlite3_column_name@Base {QGIS_ABI}
 sqlite3_column_text16@Base {QGIS_ABI}
 sqlite3_column_text@Base {QGIS_ABI}
 sqlite3_column_type@Base {QGIS_ABI}
 sqlite3_column_value@Base {QGIS_ABI}
 sqlite3_commit_hook@Base {QGIS_ABI}
 sqlite3_complete16@Base {QGIS_ABI}
 sqlite3_complete@Base {QGIS_ABI}
 sqlite3_config@Base {QGIS_ABI}
 sqlite3_context_db_handle@Base {QGIS_ABI}
 sqlite3_create_collation16@Base {QGIS_ABI}
 sqlite3_create_collation@Base {QGIS_ABI}
 sqlite3_create_collation_v2@Base {QGIS_ABI}
 sqlite3_create_function16@Base {QGIS_ABI}
 sqlite3_create_function@Base {QGIS_ABI}
 sqlite3_create_module@Base {QGIS_ABI}
 sqlite3_create_module_v2@Base {QGIS_ABI}
 sqlite3_data_count@Base {QGIS_ABI}
 sqlite3_db_config@Base {QGIS_ABI}
 sqlite3_db_handle@Base {QGIS_ABI}
 sqlite3_db_mutex@Base {QGIS_ABI}
 sqlite3_db_status@Base {QGIS_ABI}
 sqlite3_declare_vtab@Base {QGIS_ABI}
 sqlite3_enable_load_extension@Base {QGIS_ABI}
 sqlite3_enable_shared_cache@Base {QGIS_ABI}
 sqlite3_errcode@Base {QGIS_ABI}
 sqlite3_errmsg16@Base {QGIS_ABI}
 sqlite3_errmsg@Base {QGIS_ABI}
 sqlite3_exec@Base {QGIS_ABI}
 sqlite3_expired@Base {QGIS_ABI}
 sqlite3_extended_errcode@Base {QGIS_ABI}
 sqlite3_extended_result_codes@Base {QGIS_ABI}
 sqlite3_extension_init@Base {QGIS_ABI}
 sqlite3_file_control@Base {QGIS_ABI}
 sqlite3_finalize@Base {QGIS_ABI}
 sqlite3_free@Base {QGIS_ABI}
 sqlite3_free_table@Base {QGIS_ABI}
 sqlite3_get_autocommit@Base {QGIS_ABI}
 sqlite3_get_auxdata@Base {QGIS_ABI}
 sqlite3_get_table@Base {QGIS_ABI}
 sqlite3_global_recover@Base {QGIS_ABI}
 sqlite3_initialize@Base {QGIS_ABI}
 sqlite3_interrupt@Base {QGIS_ABI}
 sqlite3_last_insert_rowid@Base {QGIS_ABI}
 sqlite3_libversion@Base {QGIS_ABI}
 sqlite3_libversion_number@Base {QGIS_ABI}
 sqlite3_limit@Base {QGIS_ABI}
 sqlite3_load_extension@Base {QGIS_ABI}
 sqlite3_malloc@Base {QGIS_ABI}
 sqlite3_memory_alarm@Base {QGIS_ABI}
 sqlite3_memory_highwater@Base {QGIS_ABI}
 sqlite3_memory_used@Base {QGIS_ABI}
 sqlite3_mprintf@Base {QGIS_ABI}
 sqlite3_mutex_alloc@Base {QGIS_ABI}
 sqlite3_mutex_enter@Base {QGIS_ABI}
 sqlite3_mutex_free@Base {QGIS_ABI}
 sqlite3_mutex_leave@Base {QGIS_ABI}
 sqlite3_mutex_try@Base {QGIS_ABI}
 sqlite3_next_stmt@Base {QGIS_ABI}
 sqlite3_open16@Base {QGIS_ABI}
 sqlite3_open@Base {QGIS_ABI}
 sqlite3_open_v2@Base {QGIS_ABI}
 sqlite3_os_end@Base {QGIS_ABI}
 sqlite3_os_init@Base {QGIS_ABI}
 sqlite3_overload_function@Base {QGIS_ABI}
 sqlite3_prepare16@Base {QGIS_ABI}
 sqlite3_prepare16_v2@Base {QGIS_ABI}
 sqlite3_prepare@Base {QGIS_ABI}
 sqlite3_prepare_v2@Base {QGIS_ABI}
 sqlite3_profile@Base {QGIS_ABI}
 sqlite3_progress_handler@Base {QGIS_ABI}
 sqlite3_randomness@Base {QGIS_ABI}
 sqlite3_realloc@Base {QGIS_ABI}
 sqlite3_release_memory@Base {QGIS_ABI}
 sqlite3_reset@Base {QGIS_ABI}
 sqlite3_reset_auto_extension@Base {QGIS_ABI}
 sqlite3_result_blob@Base {QGIS_ABI}
 sqlite3_result_double@Base {QGIS_ABI}
 sqlite3_result_error16@Base {QGIS_ABI}
 sqlite3_result_error@Base {QGIS_ABI}
 sqlite3_result_error_code@Base {QGIS_ABI}
 sqlite3_result_error_nomem@Base {QGIS_ABI}
 sqlite3_result_error_toobig@Base {QGIS_ABI}
 sqlite3_result_int64@Base {QGIS_ABI}
 sqlite3_result_int@Base {QGIS_ABI}
 sqlite3_result_null@Base {QGIS_ABI}
 sqlite3_result_text16@Base {QGIS_ABI}
 sqlite3_result_text16be@Base {QGIS_ABI}
 sqlite3_result_text16le@Base {QGIS_ABI}
 sqlite3_result_text@Base {QGIS_ABI}
 sqlite3_result_value@Base {QGIS_ABI}
 sqlite3_result_zeroblob@Base {QGIS_ABI}
 sqlite3_rollback_hook@Base {QGIS_ABI}
 sqlite3_set_authorizer@Base {QGIS_ABI}
 sqlite3_set_auxdata@Base {QGIS_ABI}
 sqlite3_shutdown@Base {QGIS_ABI}
 sqlite3_sleep@Base {QGIS_ABI}
 sqlite3_snprintf@Base {QGIS_ABI}
 sqlite3_soft_heap_limit@Base {QGIS_ABI}
 sqlite3_sourceid@Base {QGIS_ABI}
 sqlite3_sql@Base {QGIS_ABI}
 sqlite3_status@Base {QGIS_ABI}
 sqlite3_step@Base {QGIS_ABI}
 sqlite3_stmt_status@Base {QGIS_ABI}
 sqlite3_strnicmp@Base {QGIS_ABI}
 sqlite3_temp_directory@Base {QGIS_ABI}
 sqlite3_test_control@Base {QGIS_ABI}
 sqlite3_thread_cleanup@Base {QGIS_ABI}
 sqlite3_threadsafe@Base {QGIS_ABI}
 sqlite3_total_changes@Base {QGIS_ABI}
 sqlite3_trace@Base {QGIS_ABI}
 sqlite3_transfer_bindings@Base {QGIS_ABI}
 sqlite3_update_hook@Base {QGIS_ABI}
 sqlite3_user_data@Base {QGIS_ABI}
 sqlite3_value_blob@Base {QGIS_ABI}
 sqlite3_value_bytes16@Base {QGIS_ABI}
 sqlite3_value_bytes@Base {QGIS_ABI}
 sqlite3_value_double@Base {QGIS_ABI}
 sqlite3_value_int64@Base {QGIS_ABI}
 sqlite3_value_int@Base {QGIS_ABI}
 sqlite3_value_numeric_type@Base {QGIS_ABI}
 sqlite3_value_text16@Base {QGIS_ABI}
 sqlite3_value_text16be@Base {QGIS_ABI}
 sqlite3_value_text16le@Base {QGIS_ABI}
 sqlite3_value_text@Base {QGIS_ABI}
 sqlite3_value_type@Base {QGIS_ABI}
 sqlite3_version@Base {QGIS_ABI}
 sqlite3_vfs_find@Base {QGIS_ABI}
 sqlite3_vfs_register@Base {QGIS_ABI}
 sqlite3_vfs_unregister@Base {QGIS_ABI}
 sqlite3_vmprintf@Base {QGIS_ABI}
 virtualfdo_extension_init@Base {QGIS_ABI}
 virtualnetwork_extension_init@Base {QGIS_ABI}
 virtualshape_extension_init@Base {QGIS_ABI}
 virtualtext_extension_init@Base {QGIS_ABI}
 virtualtext_module@Base {QGIS_ABI}
 yy_flex_debug@Base {QGIS_ABI}
 yychar@Base {QGIS_ABI}
 yydebug@Base {QGIS_ABI}
 yyin@Base {QGIS_ABI}
 yyleng@Base {QGIS_ABI}
 yylineno@Base {QGIS_ABI}
 yylval@Base {QGIS_ABI}
 yynerrs@Base {QGIS_ABI}
 yyout@Base {QGIS_ABI}
 yytext@Base {QGIS_ABI}
libqgis_gui.so.{QGIS_ABI} libqgis{QGIS_ABI} #MINVER#
 _Z13qvariant_castI19QgsDetailedItemDataET_RK8QVariant@Base {QGIS_ABI}
 _Z13qvariant_castI5QFontET_RK8QVariant@Base {QGIS_ABI}
 _Z13qvariant_castI7QStringET_RK8QVariant@Base {QGIS_ABI}
 _Z21qMetaTypeDeleteHelperI19QgsDetailedItemDataEvPT_@Base {QGIS_ABI}
 _Z23qStringComparisonHelperRK7QStringPKc@Base {QGIS_ABI}
 _Z24qMetaTypeConstructHelperI19QgsDetailedItemDataEPvPKT_@Base {QGIS_ABI}
 _Z9qMakePairIN2Qt10BrushStyleE7QStringE5QPairIT_T0_ERKS4_RKS5_@Base {QGIS_ABI}
 _ZN10QByteArrayD1Ev@Base {QGIS_ABI}
 _ZN10QgsMapTool10deactivateEv@Base {QGIS_ABI}
 _ZN10QgsMapTool10isEditToolEv@Base {QGIS_ABI}
 _ZN10QgsMapTool11isTransientEv@Base {QGIS_ABI}
 _ZN10QgsMapTool13keyPressEventEP9QKeyEvent@Base {QGIS_ABI}
 _ZN10QgsMapTool14renderCompleteEv@Base {QGIS_ABI}
 _ZN10QgsMapTool15canvasMoveEventEP11QMouseEvent@Base {QGIS_ABI}
 _ZN10QgsMapTool15keyReleaseEventEP9QKeyEvent@Base {QGIS_ABI}
 _ZN10QgsMapTool16canvasPressEventEP11QMouseEvent@Base {QGIS_ABI}
 _ZN10QgsMapTool16toMapCoordinatesEP11QgsMapLayerRK8QgsPoint@Base {QGIS_ABI}
 _ZN10QgsMapTool16toMapCoordinatesERK6QPoint@Base {QGIS_ABI}
 _ZN10QgsMapTool18canvasReleaseEventEP11QMouseEvent@Base {QGIS_ABI}
 _ZN10QgsMapTool18toLayerCoordinatesEP11QgsMapLayerRK12QgsRectangle@Base {QGIS_ABI}
 _ZN10QgsMapTool18toLayerCoordinatesEP11QgsMapLayerRK6QPoint@Base {QGIS_ABI}
 _ZN10QgsMapTool18toLayerCoordinatesEP11QgsMapLayerRK8QgsPoint@Base {QGIS_ABI}
 _ZN10QgsMapTool19toCanvasCoordinatesERK8QgsPoint@Base {QGIS_ABI}
 _ZN10QgsMapTool22canvasDoubleClickEventEP11QMouseEvent@Base {QGIS_ABI}
 _ZN10QgsMapTool6actionEv@Base {QGIS_ABI}
 _ZN10QgsMapTool6buttonEv@Base {QGIS_ABI}
 _ZN10QgsMapTool6canvasEv@Base {QGIS_ABI}
 _ZN10QgsMapTool8activateEv@Base {QGIS_ABI}
 _ZN10QgsMapTool9setActionEP7QAction@Base {QGIS_ABI}
 _ZN10QgsMapTool9setButtonEP15QAbstractButton@Base {QGIS_ABI}
 _ZN10QgsMapToolC1EP12QgsMapCanvas@Base {QGIS_ABI}
 _ZN10QgsMapToolC2EP12QgsMapCanvas@Base {QGIS_ABI}
 _ZN10QgsMapToolD0Ev@Base {QGIS_ABI}
 _ZN10QgsMapToolD1Ev@Base {QGIS_ABI}
 _ZN10QgsMapToolD2Ev@Base {QGIS_ABI}
 _ZN11QMetaTypeIdI19QgsDetailedItemDataE14qt_metatype_idEv@Base {QGIS_ABI}
 _ZN11QStringListD1Ev@Base {QGIS_ABI}
 _ZN11QgsLUDialog11qt_metacallEN11QMetaObject4CallEiPPv@Base {QGIS_ABI}
 _ZN11QgsLUDialog11qt_metacastEPKc@Base {QGIS_ABI}
 _ZN11QgsLUDialog13setLowerValueE7QString@Base {QGIS_ABI}
 _ZN11QgsLUDialog13setUpperValueE7QString@Base {QGIS_ABI}
 _ZN11QgsLUDialog16staticMetaObjectE@Base {QGIS_ABI}
 _ZN11QgsLUDialogC1EP7QWidget6QFlagsIN2Qt10WindowTypeEE@Base {QGIS_ABI}
 _ZN11QgsLUDialogC2EP7QWidget6QFlagsIN2Qt10WindowTypeEE@Base {QGIS_ABI}
 _ZN11QgsLUDialogD0Ev@Base {QGIS_ABI}
 _ZN11QgsLUDialogD1Ev@Base {QGIS_ABI}
 _ZN11QgsLUDialogD2Ev@Base {QGIS_ABI}
 _ZN12QgsMapCanvas10keyPressedEP9QKeyEvent@Base {QGIS_ABI}
 _ZN12QgsMapCanvas10mapToolSetEP10QgsMapTool@Base {QGIS_ABI}
 _ZN12QgsMapCanvas10setMapToolEP10QgsMapTool@Base {QGIS_ABI}
 _ZN12QgsMapCanvas10wheelEventEP11QWheelEvent@Base {QGIS_ABI}
 _ZN12QgsMapCanvas11keyReleasedEP9QKeyEvent@Base {QGIS_ABI}
 _ZN12QgsMapCanvas11mapRendererEv@Base {QGIS_ABI}
 _ZN12QgsMapCanvas11mouseLastXYEv@Base {QGIS_ABI}
 _ZN12QgsMapCanvas11qt_metacallEN11QMetaObject4CallEiPPv@Base {QGIS_ABI}
 _ZN12QgsMapCanvas11qt_metacastEPKc@Base {QGIS_ABI}
 _ZN12QgsMapCanvas11readProjectERK12QDomDocument@Base {QGIS_ABI}
 _ZN12QgsMapCanvas11resizeEventEP12QResizeEvent@Base {QGIS_ABI}
 _ZN12QgsMapCanvas11saveAsImageE7QStringP7QPixmapS0_@Base {QGIS_ABI}
 _ZN12QgsMapCanvas11setLayerSetER5QListI17QgsMapCanvasLayerE@Base {QGIS_ABI}
 _ZN12QgsMapCanvas11setMapUnitsEN4QGis8UnitTypeE@Base {QGIS_ABI}
 _ZN12QgsMapCanvas11setProgressEii@Base {QGIS_ABI}
 _ZN12QgsMapCanvas11updateScaleEv@Base {QGIS_ABI}
 _ZN12QgsMapCanvas12canvasPixmapEv@Base {QGIS_ABI}
 _ZN12QgsMapCanvas12currentLayerEv@Base {QGIS_ABI}
 _ZN12QgsMapCanvas12panActionEndE6QPoint@Base {QGIS_ABI}
 _ZN12QgsMapCanvas12scaleChangedEd@Base {QGIS_ABI}
 _ZN12QgsMapCanvas12unsetMapToolEP10QgsMapTool@Base {QGIS_ABI}
 _ZN12QgsMapCanvas12writeProjectER12QDomDocument@Base {QGIS_ABI}
 _ZN12QgsMapCanvas12zoomByFactorEd@Base {QGIS_ABI}
 _ZN12QgsMapCanvas13connectNotifyEPKc@Base {QGIS_ABI}
 _ZN12QgsMapCanvas13keyPressEventEP9QKeyEvent@Base {QGIS_ABI}
 _ZN12QgsMapCanvas13layersChangedEv@Base {QGIS_ABI}
 _ZN12QgsMapCanvas13setRenderFlagEb@Base {QGIS_ABI}
 _ZN12QgsMapCanvas13xyCoordinatesERK8QgsPoint@Base {QGIS_ABI}
 _ZN12QgsMapCanvas14extentsChangedEv@Base {QGIS_ABI}
 _ZN12QgsMapCanvas14mouseMoveEventEP11QMouseEvent@Base {QGIS_ABI}
 _ZN12QgsMapCanvas14renderCompleteEP8QPainter@Base {QGIS_ABI}
 _ZN12QgsMapCanvas14setCanvasColorERK6QColor@Base {QGIS_ABI}
 _ZN12QgsMapCanvas14setWheelActionENS_11WheelActionEd@Base {QGIS_ABI}
 _ZN12QgsMapCanvas14updateOverviewEv@Base {QGIS_ABI}
 _ZN12QgsMapCanvas14zoomToSelectedEP14QgsVectorLayer@Base {QGIS_ABI}
 _ZN12QgsMapCanvas14zoomWithCenterEiib@Base {QGIS_ABI}
 _ZN12QgsMapCanvas15keyReleaseEventEP9QKeyEvent@Base {QGIS_ABI}
 _ZN12QgsMapCanvas15mapUnitsChangedEv@Base {QGIS_ABI}
 _ZN12QgsMapCanvas15mousePressEventEP11QMouseEvent@Base {QGIS_ABI}
 _ZN12QgsMapCanvas15setCurrentLayerEP11QgsMapLayer@Base {QGIS_ABI}
 _ZN12QgsMapCanvas16layerStateChangeEv@Base {QGIS_ABI}
 _ZN12QgsMapCanvas16selectionChangedEP11QgsMapLayer@Base {QGIS_ABI}
 _ZN12QgsMapCanvas16staticMetaObjectE@Base {QGIS_ABI}
 _ZN12QgsMapCanvas16updateFullExtentEv@Base {QGIS_ABI}
 _ZN12QgsMapCanvas16useImageToRenderEb@Base {QGIS_ABI}
 _ZN12QgsMapCanvas16zoomToFullExtentEv@Base {QGIS_ABI}
 _ZN12QgsMapCanvas16zoomToNextExtentEv@Base {QGIS_ABI}
 _ZN12QgsMapCanvas17mouseReleaseEventEP11QMouseEvent@Base {QGIS_ABI}
 _ZN12QgsMapCanvas18clearExtentHistoryEv@Base {QGIS_ABI}
 _ZN12QgsMapCanvas18enableAntiAliasingEb@Base {QGIS_ABI}
 _ZN12QgsMapCanvas18enableOverviewModeEP20QgsMapOverviewCanvas@Base {QGIS_ABI}
 _ZN12QgsMapCanvas18moveCanvasContentsEb@Base {QGIS_ABI}
 _ZN12QgsMapCanvas20selectionChangedSlotEv@Base {QGIS_ABI}
 _ZN12QgsMapCanvas20zoomToPreviousExtentEv@Base {QGIS_ABI}
 _ZN12QgsMapCanvas21mouseDoubleClickEventEP11QMouseEvent@Base {QGIS_ABI}
 _ZN12QgsMapCanvas21zoomLastStatusChangedEb@Base {QGIS_ABI}
 _ZN12QgsMapCanvas21zoomNextStatusChangedEb@Base {QGIS_ABI}
 _ZN12QgsMapCanvas22getCoordinateTransformEv@Base {QGIS_ABI}
 _ZN12QgsMapCanvas22hasCrsTransformEnabledEv@Base {QGIS_ABI}
 _ZN12QgsMapCanvas25updateCanvasItemPositionsEv@Base {QGIS_ABI}
 _ZN12QgsMapCanvas3mapEv@Base {QGIS_ABI}
 _ZN12QgsMapCanvas5clearEv@Base {QGIS_ABI}
 _ZN12QgsMapCanvas5layerEi@Base {QGIS_ABI}
 _ZN12QgsMapCanvas5scaleEv@Base {QGIS_ABI}
 _ZN12QgsMapCanvas6freezeEb@Base {QGIS_ABI}
 _ZN12QgsMapCanvas6zoomInEv@Base {QGIS_ABI}
 _ZN12QgsMapCanvas7mapToolEv@Base {QGIS_ABI}
 _ZN12QgsMapCanvas7refreshEv@Base {QGIS_ABI}
 _ZN12QgsMapCanvas7zoomOutEv@Base {QGIS_ABI}
 _ZN12QgsMapCanvas8isFrozenEv@Base {QGIS_ABI}
 _ZN12QgsMapCanvas8setDirtyEb@Base {QGIS_ABI}
 _ZN12QgsMapCanvas9isDrawingEv@Base {QGIS_ABI}
 _ZN12QgsMapCanvas9panActionEP11QMouseEvent@Base {QGIS_ABI}
 _ZN12QgsMapCanvas9setExtentERK12QgsRectangle@Base {QGIS_ABI}
 _ZN12QgsMapCanvas9showErrorEP11QgsMapLayer@Base {QGIS_ABI}
 _ZN12QgsMapCanvas9updateMapEv@Base {QGIS_ABI}
 _ZN12QgsMapCanvasC1EP7QWidgetPKc@Base {QGIS_ABI}
 _ZN12QgsMapCanvasC2EP7QWidgetPKc@Base {QGIS_ABI}
 _ZN12QgsMapCanvasD0Ev@Base {QGIS_ABI}
 _ZN12QgsMapCanvasD1Ev@Base {QGIS_ABI}
 _ZN12QgsMapCanvasD2Ev@Base {QGIS_ABI}
 _ZN13QListIteratorI7QStringED1Ev@Base {QGIS_ABI}
 _ZN13QgisInterface11qt_metacallEN11QMetaObject4CallEiPPv@Base {QGIS_ABI}
 _ZN13QgisInterface11qt_metacastEPKc@Base {QGIS_ABI}
 _ZN13QgisInterface13composerAddedEP15QgsComposerView@Base {QGIS_ABI}
 _ZN13QgisInterface16staticMetaObjectE@Base {QGIS_ABI}
 _ZN13QgisInterface19currentLayerChangedEP11QgsMapLayer@Base {QGIS_ABI}
 _ZN13QgisInterface21composerWillBeRemovedEP15QgsComposerView@Base {QGIS_ABI}
 _ZN13QgisInterfaceC1Ev@Base {QGIS_ABI}
 _ZN13QgisInterfaceC2Ev@Base {QGIS_ABI}
 _ZN13QgisInterfaceD0Ev@Base {QGIS_ABI}
 _ZN13QgisInterfaceD1Ev@Base {QGIS_ABI}
 _ZN13QgisInterfaceD2Ev@Base {QGIS_ABI}
 _ZN13QgsMapToolPan11isTransientEv@Base {QGIS_ABI}
 _ZN13QgsMapToolPan15canvasMoveEventEP11QMouseEvent@Base {QGIS_ABI}
 _ZN13QgsMapToolPan16canvasPressEventEP11QMouseEvent@Base {QGIS_ABI}
 _ZN13QgsMapToolPan18canvasReleaseEventEP11QMouseEvent@Base {QGIS_ABI}
 _ZN13QgsMapToolPanC1EP12QgsMapCanvas@Base {QGIS_ABI}
 _ZN13QgsMapToolPanC2EP12QgsMapCanvas@Base {QGIS_ABI}
 _ZN13QgsMapToolPanD0Ev@Base {QGIS_ABI}
 _ZN13QgsMapToolPanD1Ev@Base {QGIS_ABI}
 _ZN13QgsQuickPrint11qt_metacallEN11QMetaObject4CallEiPPv@Base {QGIS_ABI}
 _ZN13QgsQuickPrint11qt_metacastEPKc@Base {QGIS_ABI}
 _ZN13QgsQuickPrint11setPageSizeEN8QPrinter8PageSizeE@Base {QGIS_ABI}
 _ZN13QgsQuickPrint12setCopyrightE7QString@Base {QGIS_ABI}
 _ZN13QgsQuickPrint12setMapCanvasEP12QgsMapCanvas@Base {QGIS_ABI}
 _ZN13QgsQuickPrint12setOutputPdfE7QString@Base {QGIS_ABI}
 _ZN13QgsQuickPrint13setNorthArrowE7QString@Base {QGIS_ABI}
 _ZN13QgsQuickPrint14setMapRendererEP14QgsMapRenderer@Base {QGIS_ABI}
 _ZN13QgsQuickPrint15scaleTextLabelsEiNS_17SymbolScalingTypeE@Base {QGIS_ABI}
 _ZN13QgsQuickPrint16pageSizeToStringEN8QPrinter8PageSizeE@Base {QGIS_ABI}
 _ZN13QgsQuickPrint16staticMetaObjectE@Base {QGIS_ABI}
 _ZN13QgsQuickPrint16stringToPageSizeE7QString@Base {QGIS_ABI}
 _ZN13QgsQuickPrint17scalePointSymbolsEiNS_17SymbolScalingTypeE@Base {QGIS_ABI}
 _ZN13QgsQuickPrint19renderPrintScaleBarEP8QPainterP14QgsMapRendereri@Base {QGIS_ABI}
 _ZN13QgsQuickPrint21setMapBackgroundColorE6QColor@Base {QGIS_ABI}
 _ZN13QgsQuickPrint2trEPKcS1_@Base {QGIS_ABI}
 _ZN13QgsQuickPrint7setNameE7QString@Base {QGIS_ABI}
 _ZN13QgsQuickPrint8printMapEv@Base {QGIS_ABI}
 _ZN13QgsQuickPrint8setLogo1E7QString@Base {QGIS_ABI}
 _ZN13QgsQuickPrint8setLogo2E7QString@Base {QGIS_ABI}
 _ZN13QgsQuickPrint8setTitleE7QString@Base {QGIS_ABI}
 _ZN13QgsQuickPrint8wordWrapE7QString12QFontMetricsi@Base {QGIS_ABI}
 _ZN13QgsQuickPrintC1Ev@Base {QGIS_ABI}
 _ZN13QgsQuickPrintC2Ev@Base {QGIS_ABI}
 _ZN13QgsQuickPrintD0Ev@Base {QGIS_ABI}
 _ZN13QgsQuickPrintD1Ev@Base {QGIS_ABI}
 _ZN13QgsQuickPrintD2Ev@Base {QGIS_ABI}
 _ZN13QgsRubberBand10updateRectEv@Base {QGIS_ABI}
 _ZN13QgsRubberBand13setToGeometryEP11QgsGeometryP14QgsVectorLayer@Base {QGIS_ABI}
 _ZN13QgsRubberBand15removeLastPointEi@Base {QGIS_ABI}
 _ZN13QgsRubberBand20setTranslationOffsetEdd@Base {QGIS_ABI}
 _ZN13QgsRubberBand5paintEP8QPainter@Base {QGIS_ABI}
 _ZN13QgsRubberBand5resetEb@Base {QGIS_ABI}
 _ZN13QgsRubberBand8addPointERK8QgsPointbi@Base {QGIS_ABI}
 _ZN13QgsRubberBand8setColorERK6QColor@Base {QGIS_ABI}
 _ZN13QgsRubberBand8setWidthEi@Base {QGIS_ABI}
 _ZN13QgsRubberBand9movePointERK8QgsPointi@Base {QGIS_ABI}
 _ZN13QgsRubberBand9movePointEiRK8QgsPointi@Base {QGIS_ABI}
 _ZN13QgsRubberBandC1EP12QgsMapCanvasb@Base {QGIS_ABI}
 _ZN13QgsRubberBandC1Ev@Base {QGIS_ABI}
 _ZN13QgsRubberBandC2EP12QgsMapCanvasb@Base {QGIS_ABI}
 _ZN13QgsRubberBandC2Ev@Base {QGIS_ABI}
 _ZN13QgsRubberBandD0Ev@Base {QGIS_ABI}
 _ZN13QgsRubberBandD1Ev@Base {QGIS_ABI}
 _ZN13QgsRubberBandD2Ev@Base {QGIS_ABI}
 _ZN14QgsColorButton10paintEventEP11QPaintEvent@Base {QGIS_ABI}
 _ZN14QgsColorButton8setColorERK6QColor@Base {QGIS_ABI}
 _ZN14QgsColorButtonC1EP7QWidget@Base {QGIS_ABI}
 _ZN14QgsColorButtonC2EP7QWidget@Base {QGIS_ABI}
 _ZN14QgsColorButtonD0Ev@Base {QGIS_ABI}
 _ZN14QgsColorButtonD1Ev@Base {QGIS_ABI}
 _ZN14QgsColorButtonD2Ev@Base {QGIS_ABI}
 _ZN14QgsMapToolZoom11isTransientEv@Base {QGIS_ABI}
 _ZN14QgsMapToolZoom15canvasMoveEventEP11QMouseEvent@Base {QGIS_ABI}
 _ZN14QgsMapToolZoom16canvasPressEventEP11QMouseEvent@Base {QGIS_ABI}
 _ZN14QgsMapToolZoom18canvasReleaseEventEP11QMouseEvent@Base {QGIS_ABI}
 _ZN14QgsMapToolZoomC1EP12QgsMapCanvasb@Base {QGIS_ABI}
 _ZN14QgsMapToolZoomC2EP12QgsMapCanvasb@Base {QGIS_ABI}
 _ZN14QgsMapToolZoomD0Ev@Base {QGIS_ABI}
 _ZN14QgsMapToolZoomD1Ev@Base {QGIS_ABI}
 _ZN15QgsComposerView10groupItemsEv@Base {QGIS_ABI}
 _ZN15QgsComposerView10wheelEventEP11QWheelEvent@Base {QGIS_ABI}
 _ZN15QgsComposerView11compositionEv@Base {QGIS_ABI}
 _ZN15QgsComposerView11itemRemovedEP15QgsComposerItem@Base {QGIS_ABI}
 _ZN15QgsComposerView11qt_metacallEN11QMetaObject4CallEiPPv@Base {QGIS_ABI}
 _ZN15QgsComposerView11qt_metacastEPKc@Base {QGIS_ABI}
 _ZN15QgsComposerView12ungroupItemsEv@Base {QGIS_ABI}
 _ZN15QgsComposerView13keyPressEventEP9QKeyEvent@Base {QGIS_ABI}
 _ZN15QgsComposerView14actionFinishedEv@Base {QGIS_ABI}
 _ZN15QgsComposerView14addComposerMapEP14QgsComposerMap@Base {QGIS_ABI}
 _ZN15QgsComposerView14composerWindowEv@Base {QGIS_ABI}
 _ZN15QgsComposerView14mouseMoveEventEP11QMouseEvent@Base {QGIS_ABI}
 _ZN15QgsComposerView14setCompositionEP14QgsComposition@Base {QGIS_ABI}
 _ZN15QgsComposerView15keyReleaseEventEP9QKeyEvent@Base {QGIS_ABI}
 _ZN15QgsComposerView15mousePressEventEP11QMouseEvent@Base {QGIS_ABI}
 _ZN15QgsComposerView16addComposerArrowEP16QgsComposerArrow@Base {QGIS_ABI}
 _ZN15QgsComposerView16addComposerLabelEP16QgsComposerLabel@Base {QGIS_ABI}
 _ZN15QgsComposerView16addComposerShapeEP16QgsComposerShape@Base {QGIS_ABI}
 _ZN15QgsComposerView16composerMapAddedEP14QgsComposerMap@Base {QGIS_ABI}
 _ZN15QgsComposerView16staticMetaObjectE@Base {QGIS_ABI}
 _ZN15QgsComposerView17addComposerLegendEP17QgsComposerLegend@Base {QGIS_ABI}
 _ZN15QgsComposerView17mouseReleaseEventEP11QMouseEvent@Base {QGIS_ABI}
 _ZN15QgsComposerView18addComposerPictureEP18QgsComposerPicture@Base {QGIS_ABI}
 _ZN15QgsComposerView18composerArrowAddedEP16QgsComposerArrow@Base {QGIS_ABI}
 _ZN15QgsComposerView18composerLabelAddedEP16QgsComposerLabel@Base {QGIS_ABI}
 _ZN15QgsComposerView18composerShapeAddedEP16QgsComposerShape@Base {QGIS_ABI}
 _ZN15QgsComposerView19addComposerScaleBarEP19QgsComposerScaleBar@Base {QGIS_ABI}
 _ZN15QgsComposerView19composerLegendAddedEP17QgsComposerLegend@Base {QGIS_ABI}
 _ZN15QgsComposerView19selectedItemChangedEPK15QgsComposerItem@Base {QGIS_ABI}
 _ZN15QgsComposerView20composerPictureAddedEP18QgsComposerPicture@Base {QGIS_ABI}
 _ZN15QgsComposerView21composerScaleBarAddedEP19QgsComposerScaleBar@Base {QGIS_ABI}
 _ZN15QgsComposerView21sendItemRemovedSignalEP15QgsComposerItem@Base {QGIS_ABI}
 _ZN15QgsComposerViewC1EP7QWidgetPKc6QFlagsIN2Qt10WindowTypeEE@Base {QGIS_ABI}
 _ZN15QgsComposerViewC2EP7QWidgetPKc6QFlagsIN2Qt10WindowTypeEE@Base {QGIS_ABI}
 _ZN15QgsComposerViewD0Ev@Base {QGIS_ABI}
 _ZN15QgsComposerViewD1Ev@Base {QGIS_ABI}
 _ZN15QgsFileDropEdit10paintEventEP11QPaintEvent@Base {QGIS_ABI}
 _ZN15QgsFileDropEdit10setDirOnlyEb@Base {QGIS_ABI}
 _ZN15QgsFileDropEdit11setFileOnlyEb@Base {QGIS_ABI}
 _ZN15QgsFileDropEdit14dragEnterEventEP15QDragEnterEvent@Base {QGIS_ABI}
 _ZN15QgsFileDropEdit14dragLeaveEventEP15QDragLeaveEvent@Base {QGIS_ABI}
 _ZN15QgsFileDropEdit15setSuffixFilterERK7QString@Base {QGIS_ABI}
 _ZN15QgsFileDropEdit9dropEventEP10QDropEvent@Base {QGIS_ABI}
 _ZN15QgsFileDropEditC1EP7QWidget@Base {QGIS_ABI}
 _ZN15QgsFileDropEditC2EP7QWidget@Base {QGIS_ABI}
 _ZN15QgsFileDropEditD0Ev@Base {QGIS_ABI}
 _ZN15QgsFileDropEditD1Ev@Base {QGIS_ABI}
 _ZN15QgsFileDropEditD2Ev@Base {QGIS_ABI}
 _ZN15QgsMapCanvasMap11paintDeviceEv@Base {QGIS_ABI}
 _ZN15QgsMapCanvasMap14updateContentsEv@Base {QGIS_ABI}
 _ZN15QgsMapCanvasMap16setPanningOffsetERK6QPoint@Base {QGIS_ABI}
 _ZN15QgsMapCanvasMap5paintEP8QPainterPK24QStyleOptionGraphicsItemP7QWidget@Base {QGIS_ABI}
 _ZN15QgsMapCanvasMap6renderEv@Base {QGIS_ABI}
 _ZN15QgsMapCanvasMap6resizeE5QSize@Base {QGIS_ABI}
 _ZN15QgsMapCanvasMapC1EP12QgsMapCanvas@Base {QGIS_ABI}
 _ZN15QgsMapCanvasMapC2EP12QgsMapCanvas@Base {QGIS_ABI}
 _ZN15QgsMapCanvasMapD0Ev@Base {QGIS_ABI}
 _ZN15QgsMapCanvasMapD1Ev@Base {QGIS_ABI}
 _ZN15QgsVertexMarker11setIconSizeEi@Base {QGIS_ABI}
 _ZN15QgsVertexMarker11setIconTypeEi@Base {QGIS_ABI}
 _ZN15QgsVertexMarker11setPenWidthEi@Base {QGIS_ABI}
 _ZN15QgsVertexMarker14updatePositionEv@Base {QGIS_ABI}
 _ZN15QgsVertexMarker5paintEP8QPainter@Base {QGIS_ABI}
 _ZN15QgsVertexMarker8setColorERK6QColor@Base {QGIS_ABI}
 _ZN15QgsVertexMarker9setCenterERK8QgsPoint@Base {QGIS_ABI}
 _ZN15QgsVertexMarkerC1EP12QgsMapCanvas@Base {QGIS_ABI}
 _ZN15QgsVertexMarkerC2EP12QgsMapCanvas@Base {QGIS_ABI}
 _ZN15QgsVertexMarkerD0Ev@Base {QGIS_ABI}
 _ZN15QgsVertexMarkerD1Ev@Base {QGIS_ABI}
 _ZN15SymbolLayerItemD0Ev@Base {QGIS_ABI}
 _ZN15SymbolLayerItemD1Ev@Base {QGIS_ABI}
 _ZN16QgsColorButtonV28setColorERK6QColor@Base {QGIS_ABI}
 _ZN16QgsColorButtonV2C1EP7QWidget@Base {QGIS_ABI}
 _ZN16QgsColorButtonV2C2EP7QWidget@Base {QGIS_ABI}
 _ZN16QgsColorButtonV2D0Ev@Base {QGIS_ABI}
 _ZN16QgsColorButtonV2D1Ev@Base {QGIS_ABI}
 _ZN16QgsMapCanvasItem12updateCanvasEv@Base {QGIS_ABI}
 _ZN16QgsMapCanvasItem14updatePositionEv@Base {QGIS_ABI}
 _ZN16QgsMapCanvasItem16setPanningOffsetERK6QPoint@Base {QGIS_ABI}
 _ZN16QgsMapCanvasItem16toMapCoordinatesERK6QPoint@Base {QGIS_ABI}
 _ZN16QgsMapCanvasItem19toCanvasCoordinatesERK8QgsPoint@Base {QGIS_ABI}
 _ZN16QgsMapCanvasItem5paintEP8QPainterPK24QStyleOptionGraphicsItemP7QWidget@Base {QGIS_ABI}
 _ZN16QgsMapCanvasItem7setRectERK12QgsRectangle@Base {QGIS_ABI}
 _ZN16QgsMapCanvasItemC1EP12QgsMapCanvas@Base {QGIS_ABI}
 _ZN16QgsMapCanvasItemC2EP12QgsMapCanvas@Base {QGIS_ABI}
 _ZN16QgsMapCanvasItemD0Ev@Base {QGIS_ABI}
 _ZN16QgsMapCanvasItemD1Ev@Base {QGIS_ABI}
 _ZN16QgsMapCanvasItemD2Ev@Base {QGIS_ABI}
 _ZN16QgsMessageViewer10setMessageERK7QStringN16QgsMessageOutput11MessageTypeE@Base {QGIS_ABI}
 _ZN16QgsMessageViewer11qt_metacallEN11QMetaObject4CallEiPPv@Base {QGIS_ABI}
 _ZN16QgsMessageViewer11qt_metacastEPKc@Base {QGIS_ABI}
 _ZN16QgsMessageViewer11showMessageEb@Base {QGIS_ABI}
 _ZN16QgsMessageViewer13appendMessageERK7QString@Base {QGIS_ABI}
 _ZN16QgsMessageViewer13checkBoxStateEv@Base {QGIS_ABI}
 _ZN16QgsMessageViewer15setCheckBoxTextERK7QString@Base {QGIS_ABI}
 _ZN16QgsMessageViewer16setCheckBoxStateEN2Qt10CheckStateE@Base {QGIS_ABI}
 _ZN16QgsMessageViewer16setMessageAsHtmlERK7QString@Base {QGIS_ABI}
 _ZN16QgsMessageViewer16staticMetaObjectE@Base {QGIS_ABI}
 _ZN16QgsMessageViewer18setCheckBoxVisibleEb@Base {QGIS_ABI}
 _ZN16QgsMessageViewer19on_checkBox_toggledEb@Base {QGIS_ABI}
 _ZN16QgsMessageViewer21setMessageAsPlainTextERK7QString@Base {QGIS_ABI}
 _ZN16QgsMessageViewer25setCheckBoxQSettingsLabelE7QString@Base {QGIS_ABI}
 _ZN16QgsMessageViewer8setTitleERK7QString@Base {QGIS_ABI}
 _ZN16QgsMessageViewerC1EP7QWidget6QFlagsIN2Qt10WindowTypeEE@Base {QGIS_ABI}
 _ZN16QgsMessageViewerC2EP7QWidget6QFlagsIN2Qt10WindowTypeEE@Base {QGIS_ABI}
 _ZN16QgsMessageViewerD0Ev@Base {QGIS_ABI}
 _ZN16QgsMessageViewerD1Ev@Base {QGIS_ABI}
 _ZN16QgsMessageViewerD2Ev@Base {QGIS_ABI}
 _ZN16QgsPanningWidget10paintEventEP11QPaintEvent@Base {QGIS_ABI}
 _ZN16QgsPanningWidget11resizeEventEP12QResizeEvent@Base {QGIS_ABI}
 _ZN16QgsPanningWidgetD0Ev@Base {QGIS_ABI}
 _ZN16QgsPanningWidgetD1Ev@Base {QGIS_ABI}
 _ZN18QgsLegendInterface11qt_metacallEN11QMetaObject4CallEiPPv@Base {QGIS_ABI}
 _ZN18QgsLegendInterface11qt_metacastEPKc@Base {QGIS_ABI}
 _ZN18QgsLegendInterface16staticMetaObjectE@Base {QGIS_ABI}
 _ZN18QgsLegendInterface17groupIndexChangedEii@Base {QGIS_ABI}
 _ZN18QgsLegendInterfaceC1Ev@Base {QGIS_ABI}
 _ZN18QgsLegendInterfaceC2Ev@Base {QGIS_ABI}
 _ZN18QgsLegendInterfaceD0Ev@Base {QGIS_ABI}
 _ZN18QgsLegendInterfaceD1Ev@Base {QGIS_ABI}
 _ZN18QgsLegendInterfaceD2Ev@Base {QGIS_ABI}
 _ZN18Ui_QgsLUDialogBase7setupUiEP7QDialog@Base {QGIS_ABI}
 _ZN18Ui_WidgetSvgMarker7setupUiEP7QWidget@Base {QGIS_ABI}
 _ZN19QgsDetailedItemData10setCheckedEb@Base {QGIS_ABI}
 _ZN19QgsDetailedItemData10setEnabledEb@Base {QGIS_ABI}
 _ZN19QgsDetailedItemData12setCheckableEb@Base {QGIS_ABI}
 _ZN19QgsDetailedItemData17setRenderAsWidgetEb@Base {QGIS_ABI}
 _ZN19QgsDetailedItemData7setIconE7QPixmap@Base {QGIS_ABI}
 _ZN19QgsDetailedItemData8setTitleE7QString@Base {QGIS_ABI}
 _ZN19QgsDetailedItemData9setDetailE7QString@Base {QGIS_ABI}
 _ZN19QgsDetailedItemDataC1ERKS_@Base {QGIS_ABI}
 _ZN19QgsDetailedItemDataC1Ev@Base {QGIS_ABI}
 _ZN19QgsDetailedItemDataC2Ev@Base {QGIS_ABI}
 _ZN19QgsDetailedItemDataD1Ev@Base {QGIS_ABI}
 _ZN19QgsDetailedItemDataD2Ev@Base {QGIS_ABI}
 _ZN19QgsMapCanvasSnapper12setMapCanvasEP12QgsMapCanvas@Base {QGIS_ABI}
 _ZN19QgsMapCanvasSnapper18snapToCurrentLayerERK6QPointR5QListI17QgsSnappingResultEN10QgsSnapper12SnappingTypeEdRKS3_I8QgsPointE@Base {QGIS_ABI}
 _ZN19QgsMapCanvasSnapper22snapToBackgroundLayersERK6QPointR5QListI17QgsSnappingResultERKS3_I8QgsPointE@Base {QGIS_ABI}
 _ZN19QgsMapCanvasSnapperC1EP12QgsMapCanvas@Base {QGIS_ABI}
 _ZN19QgsMapCanvasSnapperC1Ev@Base {QGIS_ABI}
 _ZN19QgsMapCanvasSnapperC2EP12QgsMapCanvas@Base {QGIS_ABI}
 _ZN19QgsMapCanvasSnapperC2Ev@Base {QGIS_ABI}
 _ZN19QgsMapCanvasSnapperD1Ev@Base {QGIS_ABI}
 _ZN19QgsMapCanvasSnapperD2Ev@Base {QGIS_ABI}
 _ZN19QgsMapToolEmitPoint11qt_metacallEN11QMetaObject4CallEiPPv@Base {QGIS_ABI}
 _ZN19QgsMapToolEmitPoint11qt_metacastEPKc@Base {QGIS_ABI}
 _ZN19QgsMapToolEmitPoint13canvasClickedERK8QgsPointN2Qt11MouseButtonE@Base {QGIS_ABI}
 _ZN19QgsMapToolEmitPoint15canvasMoveEventEP11QMouseEvent@Base {QGIS_ABI}
 _ZN19QgsMapToolEmitPoint16canvasPressEventEP11QMouseEvent@Base {QGIS_ABI}
 _ZN19QgsMapToolEmitPoint16staticMetaObjectE@Base {QGIS_ABI}
 _ZN19QgsMapToolEmitPoint18canvasReleaseEventEP11QMouseEvent@Base {QGIS_ABI}
 _ZN19QgsMapToolEmitPointC1EP12QgsMapCanvas@Base {QGIS_ABI}
 _ZN19QgsMapToolEmitPointC2EP12QgsMapCanvas@Base {QGIS_ABI}
 _ZN19QgsMapToolEmitPointD0Ev@Base {QGIS_ABI}
 _ZN19QgsMapToolEmitPointD1Ev@Base {QGIS_ABI}
 _ZN19QgsPenStyleComboBox10iconForPenEN2Qt8PenStyleE@Base {QGIS_ABI}
 _ZN19QgsPenStyleComboBox11setPenStyleEN2Qt8PenStyleE@Base {QGIS_ABI}
 _ZN19QgsPenStyleComboBoxC1EP7QWidget@Base {QGIS_ABI}
 _ZN19QgsPenStyleComboBoxC2EP7QWidget@Base {QGIS_ABI}
 _ZN19QgsPenStyleComboBoxD0Ev@Base {QGIS_ABI}
 _ZN19QgsPenStyleComboBoxD1Ev@Base {QGIS_ABI}
 _ZN19QgsRendererV2WidgetC1EP14QgsVectorLayerP10QgsStyleV2@Base {QGIS_ABI}
 _ZN19QgsRendererV2WidgetC2EP14QgsVectorLayerP10QgsStyleV2@Base {QGIS_ABI}
 _ZN19QgsRendererV2WidgetD0Ev@Base {QGIS_ABI}
 _ZN19QgsRendererV2WidgetD1Ev@Base {QGIS_ABI}
 _ZN19QgsRendererV2WidgetD2Ev@Base {QGIS_ABI}
 _ZN19Ui_QgsMessageViewer7setupUiEP7QDialog@Base {QGIS_ABI}
 _ZN19Ui_WidgetMarkerLine13retranslateUiEP7QWidget@Base {QGIS_ABI}
 _ZN19Ui_WidgetMarkerLine7setupUiEP7QWidget@Base {QGIS_ABI}
 _ZN19Ui_WidgetSimpleFill13retranslateUiEP7QWidget@Base {QGIS_ABI}
 _ZN19Ui_WidgetSimpleFill7setupUiEP7QWidget@Base {QGIS_ABI}
 _ZN19Ui_WidgetSimpleLine13retranslateUiEP7QWidget@Base {QGIS_ABI}
 _ZN19Ui_WidgetSimpleLine7setupUiEP7QWidget@Base {QGIS_ABI}
 _ZN20QgsMapOverviewCanvas10paintEventEP11QPaintEvent@Base {QGIS_ABI}
 _ZN20QgsMapOverviewCanvas11qt_metacallEN11QMetaObject4CallEiPPv@Base {QGIS_ABI}
 _ZN20QgsMapOverviewCanvas11qt_metacastEPKc@Base {QGIS_ABI}
 _ZN20QgsMapOverviewCanvas11resizeEventEP12QResizeEvent@Base {QGIS_ABI}
 _ZN20QgsMapOverviewCanvas11setLayerSetERK11QStringList@Base {QGIS_ABI}
 _ZN20QgsMapOverviewCanvas14drawExtentRectEv@Base {QGIS_ABI}
 _ZN20QgsMapOverviewCanvas14mouseMoveEventEP11QMouseEvent@Base {QGIS_ABI}
 _ZN20QgsMapOverviewCanvas15mousePressEventEP11QMouseEvent@Base {QGIS_ABI}
 _ZN20QgsMapOverviewCanvas16staticMetaObjectE@Base {QGIS_ABI}
 _ZN20QgsMapOverviewCanvas16updateFullExtentERK12QgsRectangle@Base {QGIS_ABI}
 _ZN20QgsMapOverviewCanvas17mouseReleaseEventEP11QMouseEvent@Base {QGIS_ABI}
 _ZN20QgsMapOverviewCanvas18setBackgroundColorERK6QColor@Base {QGIS_ABI}
 _ZN20QgsMapOverviewCanvas19updatePanningWidgetERK6QPoint@Base {QGIS_ABI}
 _ZN20QgsMapOverviewCanvas21destinationSrsChangedEv@Base {QGIS_ABI}
 _ZN20QgsMapOverviewCanvas22hasCrsTransformEnabledEb@Base {QGIS_ABI}
 _ZN20QgsMapOverviewCanvas7refreshEv@Base {QGIS_ABI}
 _ZN20QgsMapOverviewCanvas8layerSetEv@Base {QGIS_ABI}
 _ZN20QgsMapOverviewCanvasC1EP7QWidgetP12QgsMapCanvas@Base {QGIS_ABI}
 _ZN20QgsMapOverviewCanvasC2EP7QWidgetP12QgsMapCanvas@Base {QGIS_ABI}
 _ZN20QgsMapOverviewCanvasD0Ev@Base {QGIS_ABI}
 _ZN20QgsMapOverviewCanvasD1Ev@Base {QGIS_ABI}
 _ZN20QgsMapOverviewCanvasD2Ev@Base {QGIS_ABI}
 _ZN21QgsBrushStyleComboBox12iconForBrushEN2Qt10BrushStyleE@Base {QGIS_ABI}
 _ZN21QgsBrushStyleComboBox13setBrushStyleEN2Qt10BrushStyleE@Base {QGIS_ABI}
 _ZN21QgsBrushStyleComboBoxC1EP7QWidget@Base {QGIS_ABI}
 _ZN21QgsBrushStyleComboBoxC2EP7QWidget@Base {QGIS_ABI}
 _ZN21QgsBrushStyleComboBoxD0Ev@Base {QGIS_ABI}
 _ZN21QgsBrushStyleComboBoxD1Ev@Base {QGIS_ABI}
 _ZN21QgsDetailedItemWidget10setCheckedEb@Base {QGIS_ABI}
 _ZN21QgsDetailedItemWidget11qt_metacallEN11QMetaObject4CallEiPPv@Base {QGIS_ABI}
 _ZN21QgsDetailedItemWidget11qt_metacastEPKc@Base {QGIS_ABI}
 _ZN21QgsDetailedItemWidget16staticMetaObjectE@Base {QGIS_ABI}
 _ZN21QgsDetailedItemWidget7setDataE19QgsDetailedItemData@Base {QGIS_ABI}
 _ZN21QgsDetailedItemWidgetC1EP7QWidget@Base {QGIS_ABI}
 _ZN21QgsDetailedItemWidgetC2EP7QWidget@Base {QGIS_ABI}
 _ZN21QgsDetailedItemWidgetD0Ev@Base {QGIS_ABI}
 _ZN21QgsDetailedItemWidgetD1Ev@Base {QGIS_ABI}
 _ZN21QgsDetailedItemWidgetD2Ev@Base {QGIS_ABI}
 _ZN21QgsEncodingFileDialog11qt_metacallEN11QMetaObject4CallEiPPv@Base {QGIS_ABI}
 _ZN21QgsEncodingFileDialog11qt_metacastEPKc@Base {QGIS_ABI}
 _ZN21QgsEncodingFileDialog12addCancelAllEv@Base {QGIS_ABI}
 _ZN21QgsEncodingFileDialog16saveUsedEncodingEv@Base {QGIS_ABI}
 _ZN21QgsEncodingFileDialog16staticMetaObjectE@Base {QGIS_ABI}
 _ZN21QgsEncodingFileDialog20pbnCancelAll_clickedEv@Base {QGIS_ABI}
 _ZN21QgsEncodingFileDialog9cancelAllEv@Base {QGIS_ABI}
 _ZN21QgsEncodingFileDialogC1EP7QWidgetRK7QStringS4_S4_S4_@Base {QGIS_ABI}
 _ZN21QgsEncodingFileDialogC2EP7QWidgetRK7QStringS4_S4_S4_@Base {QGIS_ABI}
 _ZN21QgsEncodingFileDialogD0Ev@Base {QGIS_ABI}
 _ZN21QgsEncodingFileDialogD1Ev@Base {QGIS_ABI}
 _ZN21QgsEncodingFileDialogD2Ev@Base {QGIS_ABI}
 _ZN21QgsProjectionSelector11loadCrsListEP4QSetI7QStringE@Base {QGIS_ABI}
 _ZN21QgsProjectionSelector11qt_metacallEN11QMetaObject4CallEiPPv@Base {QGIS_ABI}
 _ZN21QgsProjectionSelector11qt_metacastEPKc@Base {QGIS_ABI}
 _ZN21QgsProjectionSelector11resizeEventEP12QResizeEvent@Base {QGIS_ABI}
 _ZN21QgsProjectionSelector12getCrsIdNameEl@Base {QGIS_ABI}
 _ZN21QgsProjectionSelector12selectedEpsgEv@Base {QGIS_ABI}
 _ZN21QgsProjectionSelector12selectedNameEv@Base {QGIS_ABI}
 _ZN21QgsProjectionSelector12sridSelectedE7QString@Base {QGIS_ABI}
 _ZN21QgsProjectionSelector13selectedCrsIdEv@Base {QGIS_ABI}
 _ZN21QgsProjectionSelector13sqlSafeStringE7QString@Base {QGIS_ABI}
 _ZN21QgsProjectionSelector15loadUserCrsListEP4QSetI7QStringE@Base {QGIS_ABI}
 _ZN21QgsProjectionSelector15setSelectedEpsgEl@Base {QGIS_ABI}
 _ZN21QgsProjectionSelector16setSelectedCrsIdEl@Base {QGIS_ABI}
 _ZN21QgsProjectionSelector16staticMetaObjectE@Base {QGIS_ABI}
 _ZN21QgsProjectionSelector17searchBoxHasFocusEb@Base {QGIS_ABI}
 _ZN21QgsProjectionSelector18on_pbnFind_clickedEv@Base {QGIS_ABI}
 _ZN21QgsProjectionSelector18setOgcWmsCrsFilterE4QSetI7QStringE@Base {QGIS_ABI}
 _ZN21QgsProjectionSelector18setSelectedCrsNameE7QString@Base {QGIS_ABI}
 _ZN21QgsProjectionSelector19applyCRSIDSelectionEv@Base {QGIS_ABI}
 _ZN21QgsProjectionSelector19selectedProj4StringEv@Base {QGIS_ABI}
 _ZN21QgsProjectionSelector20applyEPSGIDSelectionEv@Base {QGIS_ABI}
 _ZN21QgsProjectionSelector20getLargestCRSIDMatchE7QString@Base {QGIS_ABI}
 _ZN21QgsProjectionSelector20selectedPostgresSrIdEv@Base {QGIS_ABI}
 _ZN21QgsProjectionSelector20showDBMissingWarningE7QString@Base {QGIS_ABI}
 _ZN21QgsProjectionSelector21applyCRSNameSelectionEv@Base {QGIS_ABI}
 _ZN21QgsProjectionSelector22on_pbnPopular1_clickedEv@Base {QGIS_ABI}
 _ZN21QgsProjectionSelector22on_pbnPopular2_clickedEv@Base {QGIS_ABI}
 _ZN21QgsProjectionSelector22on_pbnPopular3_clickedEv@Base {QGIS_ABI}
 _ZN21QgsProjectionSelector22on_pbnPopular4_clickedEv@Base {QGIS_ABI}
 _ZN21QgsProjectionSelector24coordinateSystemSelectedEP15QTreeWidgetItem@Base {QGIS_ABI}
 _ZN21QgsProjectionSelector24getSelectedLongAttributeE7QString@Base {QGIS_ABI}
 _ZN21QgsProjectionSelector30ogcWmsCrsFilterAsSqlExpressionEP4QSetI7QStringE@Base {QGIS_ABI}
 _ZN21QgsProjectionSelector7refreshEv@Base {QGIS_ABI}
 _ZN21QgsProjectionSelector9showEventEP10QShowEvent@Base {QGIS_ABI}
 _ZN21QgsProjectionSelectorC1EP7QWidgetPKc6QFlagsIN2Qt10WindowTypeEE@Base {QGIS_ABI}
 _ZN21QgsProjectionSelectorC2EP7QWidgetPKc6QFlagsIN2Qt10WindowTypeEE@Base {QGIS_ABI}
 _ZN21QgsProjectionSelectorD0Ev@Base {QGIS_ABI}
 _ZN21QgsProjectionSelectorD1Ev@Base {QGIS_ABI}
 _ZN21QgsProjectionSelectorD2Ev@Base {QGIS_ABI}
 _ZN21QgsRendererV2MetadataD1Ev@Base {QGIS_ABI}
 _ZN21Ui_WidgetSimpleMarker13retranslateUiEP7QWidget@Base {QGIS_ABI}
 _ZN21Ui_WidgetSimpleMarker7setupUiEP7QWidget@Base {QGIS_ABI}
 _ZN22QgsPenCapStyleComboBox14setPenCapStyleEN2Qt11PenCapStyleE@Base {QGIS_ABI}
 _ZN22QgsPenCapStyleComboBoxC1EP7QWidget@Base {QGIS_ABI}
 _ZN22QgsPenCapStyleComboBoxC2EP7QWidget@Base {QGIS_ABI}
 _ZN22QgsPenCapStyleComboBoxD0Ev@Base {QGIS_ABI}
 _ZN22QgsPenCapStyleComboBoxD1Ev@Base {QGIS_ABI}
 _ZN22QgsSymbolLayerV2Widget11qt_metacallEN11QMetaObject4CallEiPPv@Base {QGIS_ABI}
 _ZN22QgsSymbolLayerV2Widget11qt_metacastEPKc@Base {QGIS_ABI}
 _ZN22QgsSymbolLayerV2Widget16staticMetaObjectE@Base {QGIS_ABI}
 _ZN22QgsSymbolLayerV2Widget7changedEv@Base {QGIS_ABI}
 _ZN22QgsSymbolLayerV2WidgetD0Ev@Base {QGIS_ABI}
 _ZN22QgsSymbolLayerV2WidgetD1Ev@Base {QGIS_ABI}
 _ZN22QgsSymbolLayerV2WidgetD2Ev@Base {QGIS_ABI}
 _ZN23QgsDetailedItemDelegate11qt_metacallEN11QMetaObject4CallEiPPv@Base {QGIS_ABI}
 _ZN23QgsDetailedItemDelegate11qt_metacastEPKc@Base {QGIS_ABI}
 _ZN23QgsDetailedItemDelegate16staticMetaObjectE@Base {QGIS_ABI}
 _ZN23QgsDetailedItemDelegate18setVerticalSpacingEi@Base {QGIS_ABI}
 _ZN23QgsDetailedItemDelegate20setHorizontalSpacingEi@Base {QGIS_ABI}
 _ZN23QgsDetailedItemDelegateC1EP7QObject@Base {QGIS_ABI}
 _ZN23QgsDetailedItemDelegateC2EP7QObject@Base {QGIS_ABI}
 _ZN23QgsDetailedItemDelegateD0Ev@Base {QGIS_ABI}
 _ZN23QgsDetailedItemDelegateD1Ev@Base {QGIS_ABI}
 _ZN23QgsDetailedItemDelegateD2Ev@Base {QGIS_ABI}
 _ZN23QgsPenJoinStyleComboBox15setPenJoinStyleEN2Qt12PenJoinStyleE@Base {QGIS_ABI}
 _ZN23QgsPenJoinStyleComboBoxC1EP7QWidget@Base {QGIS_ABI}
 _ZN23QgsPenJoinStyleComboBoxC2EP7QWidget@Base {QGIS_ABI}
 _ZN23QgsPenJoinStyleComboBoxD0Ev@Base {QGIS_ABI}
 _ZN23QgsPenJoinStyleComboBoxD1Ev@Base {QGIS_ABI}
 _ZN23QgsStyleV2ManagerDialog10editSymbolEv@Base {QGIS_ABI}
 _ZN23QgsStyleV2ManagerDialog10onFinishedEv@Base {QGIS_ABI}
 _ZN23QgsStyleV2ManagerDialog10removeItemEv@Base {QGIS_ABI}
 _ZN23QgsStyleV2ManagerDialog11qt_metacallEN11QMetaObject4CallEiPPv@Base {QGIS_ABI}
 _ZN23QgsStyleV2ManagerDialog11qt_metacastEPKc@Base {QGIS_ABI}
 _ZN23QgsStyleV2ManagerDialog12addColorRampEv@Base {QGIS_ABI}
 _ZN23QgsStyleV2ManagerDialog12populateListEv@Base {QGIS_ABI}
 _ZN23QgsStyleV2ManagerDialog12removeSymbolEv@Base {QGIS_ABI}
 _ZN23QgsStyleV2ManagerDialog13editColorRampEv@Base {QGIS_ABI}
 _ZN23QgsStyleV2ManagerDialog13populateTypesEv@Base {QGIS_ABI}
 _ZN23QgsStyleV2ManagerDialog15currentItemNameEv@Base {QGIS_ABI}
 _ZN23QgsStyleV2ManagerDialog15currentItemTypeEv@Base {QGIS_ABI}
 _ZN23QgsStyleV2ManagerDialog15populateSymbolsEi@Base {QGIS_ABI}
 _ZN23QgsStyleV2ManagerDialog15removeColorRampEv@Base {QGIS_ABI}
 _ZN23QgsStyleV2ManagerDialog16staticMetaObjectE@Base {QGIS_ABI}
 _ZN23QgsStyleV2ManagerDialog18populateColorRampsEv@Base {QGIS_ABI}
 _ZN23QgsStyleV2ManagerDialog7addItemEv@Base {QGIS_ABI}
 _ZN23QgsStyleV2ManagerDialog8editItemEv@Base {QGIS_ABI}
 _ZN23QgsStyleV2ManagerDialog9addSymbolEv@Base {QGIS_ABI}
 _ZN23QgsStyleV2ManagerDialogC1EP10QgsStyleV27QStringP7QWidget@Base {QGIS_ABI}
 _ZN23QgsStyleV2ManagerDialogC1EP10QgsStyleV2P7QWidget@Base {QGIS_ABI}
 _ZN23QgsStyleV2ManagerDialogC2EP10QgsStyleV27QStringP7QWidget@Base {QGIS_ABI}
 _ZN23QgsStyleV2ManagerDialogC2EP10QgsStyleV2P7QWidget@Base {QGIS_ABI}
 _ZN23QgsStyleV2ManagerDialogD0Ev@Base {QGIS_ABI}
 _ZN23QgsStyleV2ManagerDialogD1Ev@Base {QGIS_ABI}
 _ZN23QgsSymbolLevelsV2Dialog11qt_metacallEN11QMetaObject4CallEiPPv@Base {QGIS_ABI}
 _ZN23QgsSymbolLevelsV2Dialog11qt_metacastEPKc@Base {QGIS_ABI}
 _ZN23QgsSymbolLevelsV2Dialog13populateTableEv@Base {QGIS_ABI}
 _ZN23QgsSymbolLevelsV2Dialog16setDefaultLevelsEv@Base {QGIS_ABI}
 _ZN23QgsSymbolLevelsV2Dialog16staticMetaObjectE@Base {QGIS_ABI}
 _ZN23QgsSymbolLevelsV2Dialog20renderingPassChangedEii@Base {QGIS_ABI}
 _ZN23QgsSymbolLevelsV2Dialog8updateUiEv@Base {QGIS_ABI}
 _ZN23QgsSymbolLevelsV2DialogC1E5QListIP11QgsSymbolV2EbP7QWidget@Base {QGIS_ABI}
 _ZN23QgsSymbolLevelsV2DialogC2E5QListIP11QgsSymbolV2EbP7QWidget@Base {QGIS_ABI}
 _ZN23QgsSymbolLevelsV2DialogD0Ev@Base {QGIS_ABI}
 _ZN23QgsSymbolLevelsV2DialogD1Ev@Base {QGIS_ABI}
 _ZN23Ui_WidgetLineDecoration7setupUiEP7QWidget@Base {QGIS_ABI}
 _ZN24Ui_DlgSymbolV2Properties13retranslateUiEP7QDialog@Base {QGIS_ABI}
 _ZN24Ui_DlgSymbolV2Properties7setupUiEP7QDialog@Base {QGIS_ABI}
 _ZN25QgsProjectBadLayerHandlerD0Ev@Base {QGIS_ABI}
 _ZN25QgsProjectBadLayerHandlerD1Ev@Base {QGIS_ABI}
 _ZN25QgsSymbolV2SelectorDialog11qt_metacallEN11QMetaObject4CallEiPPv@Base {QGIS_ABI}
 _ZN25QgsSymbolV2SelectorDialog11qt_metacastEPKc@Base {QGIS_ABI}
 _ZN25QgsSymbolV2SelectorDialog12setLineWidthEd@Base {QGIS_ABI}
 _ZN25QgsSymbolV2SelectorDialog13keyPressEventEP9QKeyEvent@Base {QGIS_ABI}
 _ZN25QgsSymbolV2SelectorDialog13setMarkerSizeEd@Base {QGIS_ABI}
 _ZN25QgsSymbolV2SelectorDialog14setMarkerAngleEd@Base {QGIS_ABI}
 _ZN25QgsSymbolV2SelectorDialog14setSymbolColorEv@Base {QGIS_ABI}
 _ZN25QgsSymbolV2SelectorDialog14symbolModifiedEv@Base {QGIS_ABI}
 _ZN25QgsSymbolV2SelectorDialog16addSymbolToStyleEv@Base {QGIS_ABI}
 _ZN25QgsSymbolV2SelectorDialog16staticMetaObjectE@Base {QGIS_ABI}
 _ZN25QgsSymbolV2SelectorDialog16updateSymbolInfoEv@Base {QGIS_ABI}
 _ZN25QgsSymbolV2SelectorDialog17updateSymbolColorEv@Base {QGIS_ABI}
 _ZN25QgsSymbolV2SelectorDialog18populateSymbolViewEv@Base {QGIS_ABI}
 _ZN25QgsSymbolV2SelectorDialog18setSymbolFromStyleERK11QModelIndex@Base {QGIS_ABI}
 _ZN25QgsSymbolV2SelectorDialog19updateSymbolPreviewEv@Base {QGIS_ABI}
 _ZN25QgsSymbolV2SelectorDialog22changeSymbolPropertiesEv@Base {QGIS_ABI}
 _ZN25QgsSymbolV2SelectorDialogC1EP11QgsSymbolV2P10QgsStyleV2P7QWidgetb@Base {QGIS_ABI}
 _ZN25QgsSymbolV2SelectorDialogC2EP11QgsSymbolV2P10QgsStyleV2P7QWidgetb@Base {QGIS_ABI}
 _ZN25QgsSymbolV2SelectorDialogD0Ev@Base {QGIS_ABI}
 _ZN25QgsSymbolV2SelectorDialogD1Ev@Base {QGIS_ABI}
 _ZN27QgsSymbolV2PropertiesDialog10loadSymbolEv@Base {QGIS_ABI}
 _ZN27QgsSymbolV2PropertiesDialog11moveLayerUpEv@Base {QGIS_ABI}
 _ZN27QgsSymbolV2PropertiesDialog11qt_metacallEN11QMetaObject4CallEiPPv@Base {QGIS_ABI}
 _ZN27QgsSymbolV2PropertiesDialog11qt_metacastEPKc@Base {QGIS_ABI}
 _ZN27QgsSymbolV2PropertiesDialog11removeLayerEv@Base {QGIS_ABI}
 _ZN27QgsSymbolV2PropertiesDialog12currentLayerEv@Base {QGIS_ABI}
 _ZN27QgsSymbolV2PropertiesDialog12layerChangedEv@Base {QGIS_ABI}
 _ZN27QgsSymbolV2PropertiesDialog13keyPressEventEP9QKeyEvent@Base {QGIS_ABI}
 _ZN27QgsSymbolV2PropertiesDialog13moveLayerDownEv@Base {QGIS_ABI}
 _ZN27QgsSymbolV2PropertiesDialog13updatePreviewEv@Base {QGIS_ABI}
 _ZN27QgsSymbolV2PropertiesDialog15currentRowIndexEv@Base {QGIS_ABI}
 _ZN27QgsSymbolV2PropertiesDialog16currentLayerItemEv@Base {QGIS_ABI}
 _ZN27QgsSymbolV2PropertiesDialog16layerTypeChangedEv@Base {QGIS_ABI}
 _ZN27QgsSymbolV2PropertiesDialog16staticMetaObjectE@Base {QGIS_ABI}
 _ZN27QgsSymbolV2PropertiesDialog16updateLockButtonEv@Base {QGIS_ABI}
 _ZN27QgsSymbolV2PropertiesDialog17currentLayerIndexEv@Base {QGIS_ABI}
 _ZN27QgsSymbolV2PropertiesDialog17moveLayerByOffsetEi@Base {QGIS_ABI}
 _ZN27QgsSymbolV2PropertiesDialog18populateLayerTypesEv@Base {QGIS_ABI}
 _ZN27QgsSymbolV2PropertiesDialog18updateLayerPreviewEv@Base {QGIS_ABI}
 _ZN27QgsSymbolV2PropertiesDialog19loadPropertyWidgetsEv@Base {QGIS_ABI}
 _ZN27QgsSymbolV2PropertiesDialog23updateSymbolLayerWidgetEP16QgsSymbolLayerV2@Base {QGIS_ABI}
 _ZN27QgsSymbolV2PropertiesDialog8addLayerEv@Base {QGIS_ABI}
 _ZN27QgsSymbolV2PropertiesDialog8updateUiEv@Base {QGIS_ABI}
 _ZN27QgsSymbolV2PropertiesDialog9lockLayerEv@Base {QGIS_ABI}
 _ZN27QgsSymbolV2PropertiesDialogC1EP11QgsSymbolV2P7QWidget@Base {QGIS_ABI}
 _ZN27QgsSymbolV2PropertiesDialogC2EP11QgsSymbolV2P7QWidget@Base {QGIS_ABI}
 _ZN27QgsSymbolV2PropertiesDialogD0Ev@Base {QGIS_ABI}
 _ZN27QgsSymbolV2PropertiesDialogD1Ev@Base {QGIS_ABI}
 _ZN28QgsGenericProjectionSelector10setMessageE7QString@Base {QGIS_ABI}
 _ZN28QgsGenericProjectionSelector11qt_metacallEN11QMetaObject4CallEiPPv@Base {QGIS_ABI}
 _ZN28QgsGenericProjectionSelector11qt_metacastEPKc@Base {QGIS_ABI}
 _ZN28QgsGenericProjectionSelector12selectedEpsgEv@Base {QGIS_ABI}
 _ZN28QgsGenericProjectionSelector13selectedCrsIdEv@Base {QGIS_ABI}
 _ZN28QgsGenericProjectionSelector15setSelectedEpsgEl@Base {QGIS_ABI}
 _ZN28QgsGenericProjectionSelector16setSelectedCrsIdEl@Base {QGIS_ABI}
 _ZN28QgsGenericProjectionSelector16staticMetaObjectE@Base {QGIS_ABI}
 _ZN28QgsGenericProjectionSelector18setOgcWmsCrsFilterE4QSetI7QStringE@Base {QGIS_ABI}
 _ZN28QgsGenericProjectionSelector18setSelectedCrsNameE7QString@Base {QGIS_ABI}
 _ZN28QgsGenericProjectionSelector19selectedProj4StringEv@Base {QGIS_ABI}
 _ZN28QgsGenericProjectionSelectorC1EP7QWidget6QFlagsIN2Qt10WindowTypeEE@Base {QGIS_ABI}
 _ZN28QgsGenericProjectionSelectorC2EP7QWidget6QFlagsIN2Qt10WindowTypeEE@Base {QGIS_ABI}
 _ZN28QgsGenericProjectionSelectorD0Ev@Base {QGIS_ABI}
 _ZN28QgsGenericProjectionSelectorD1Ev@Base {QGIS_ABI}
 _ZN28QgsGenericProjectionSelectorD2Ev@Base {QGIS_ABI}
 _ZN28QgsProjectBadLayerGuiHandler10dataSourceER8QDomNode@Base {QGIS_ABI}
 _ZN28QgsProjectBadLayerGuiHandler10findLayersERK7QStringRK5QListI8QDomNodeE@Base {QGIS_ABI}
 _ZN28QgsProjectBadLayerGuiHandler11qt_metacallEN11QMetaObject4CallEiPPv@Base {QGIS_ABI}
 _ZN28QgsProjectBadLayerGuiHandler11qt_metacastEPKc@Base {QGIS_ABI}
 _ZN28QgsProjectBadLayerGuiHandler12providerTypeER8QDomNode@Base {QGIS_ABI}
 _ZN28QgsProjectBadLayerGuiHandler13setDataSourceER8QDomNodeRK7QString@Base {QGIS_ABI}
 _ZN28QgsProjectBadLayerGuiHandler15findMissingFileERK7QStringR8QDomNode@Base {QGIS_ABI}
 _ZN28QgsProjectBadLayerGuiHandler15handleBadLayersE5QListI8QDomNodeE12QDomDocument@Base {QGIS_ABI}
 _ZN28QgsProjectBadLayerGuiHandler16staticMetaObjectE@Base {QGIS_ABI}
 _ZN28QgsProjectBadLayerGuiHandler8dataTypeER8QDomNode@Base {QGIS_ABI}
 _ZN28QgsProjectBadLayerGuiHandler9findLayerERK7QStringRK8QDomNode@Base {QGIS_ABI}
 _ZN28QgsProjectBadLayerGuiHandlerC1Ev@Base {QGIS_ABI}
 _ZN28QgsProjectBadLayerGuiHandlerC2Ev@Base {QGIS_ABI}
 _ZN28QgsProjectBadLayerGuiHandlerD0Ev@Base {QGIS_ABI}
 _ZN28QgsProjectBadLayerGuiHandlerD1Ev@Base {QGIS_ABI}
 _ZN28Ui_QgsDetailedItemWidgetBase7setupUiEP7QWidget@Base {QGIS_ABI}
 _ZN28Ui_QgsProjectionSelectorBase13retranslateUiEP7QWidget@Base {QGIS_ABI}
 _ZN28Ui_QgsProjectionSelectorBase7setupUiEP7QWidget@Base {QGIS_ABI}
 _ZN29QgsRendererV2PropertiesDialog11qt_metacallEN11QMetaObject4CallEiPPv@Base {QGIS_ABI}
 _ZN29QgsRendererV2PropertiesDialog11qt_metacastEPKc@Base {QGIS_ABI}
 _ZN29QgsRendererV2PropertiesDialog13keyPressEventEP9QKeyEvent@Base {QGIS_ABI}
 _ZN29QgsRendererV2PropertiesDialog15rendererChangedEv@Base {QGIS_ABI}
 _ZN29QgsRendererV2PropertiesDialog15useNewSymbologyEb@Base {QGIS_ABI}
 _ZN29QgsRendererV2PropertiesDialog15useOldSymbologyEv@Base {QGIS_ABI}
 _ZN29QgsRendererV2PropertiesDialog16showSymbolLevelsEv@Base {QGIS_ABI}
 _ZN29QgsRendererV2PropertiesDialog16staticMetaObjectE@Base {QGIS_ABI}
 _ZN29QgsRendererV2PropertiesDialog4onOKEv@Base {QGIS_ABI}
 _ZN29QgsRendererV2PropertiesDialog5applyEv@Base {QGIS_ABI}
 _ZN29QgsRendererV2PropertiesDialogC1EP14QgsVectorLayerP10QgsStyleV2b@Base {QGIS_ABI}
 _ZN29QgsRendererV2PropertiesDialogC2EP14QgsVectorLayerP10QgsStyleV2b@Base {QGIS_ABI}
 _ZN29QgsRendererV2PropertiesDialogD0Ev@Base {QGIS_ABI}
 _ZN29QgsRendererV2PropertiesDialogD1Ev@Base {QGIS_ABI}
 _ZN30Ui_QgsStyleV2ManagerDialogBase7setupUiEP7QDialog@Base {QGIS_ABI}
 _ZN30Ui_QgsSymbolLevelsV2DialogBase7setupUiEP7QDialog@Base {QGIS_ABI}
 _ZN31QgsSingleSymbolRendererV2Widget11qt_metacallEN11QMetaObject4CallEiPPv@Base {QGIS_ABI}
 _ZN31QgsSingleSymbolRendererV2Widget11qt_metacastEPKc@Base {QGIS_ABI}
 _ZN31QgsSingleSymbolRendererV2Widget16staticMetaObjectE@Base {QGIS_ABI}
 _ZN31QgsSingleSymbolRendererV2Widget18changeSingleSymbolEv@Base {QGIS_ABI}
 _ZN31QgsSingleSymbolRendererV2Widget6createEP14QgsVectorLayerP10QgsStyleV2P20QgsFeatureRendererV2@Base {QGIS_ABI}
 _ZN31QgsSingleSymbolRendererV2Widget8rendererEv@Base {QGIS_ABI}
 _ZN31QgsSingleSymbolRendererV2WidgetC1EP14QgsVectorLayerP10QgsStyleV2P20QgsFeatureRendererV2@Base {QGIS_ABI}
 _ZN31QgsSingleSymbolRendererV2WidgetC2EP14QgsVectorLayerP10QgsStyleV2P20QgsFeatureRendererV2@Base {QGIS_ABI}
 _ZN31QgsSingleSymbolRendererV2WidgetD0Ev@Base {QGIS_ABI}
 _ZN31QgsSingleSymbolRendererV2WidgetD1Ev@Base {QGIS_ABI}
 _ZN31QgsSingleSymbolRendererV2WidgetD2Ev@Base {QGIS_ABI}
 _ZN31QgsSvgMarkerSymbolLayerV2Widget11qt_metacallEN11QMetaObject4CallEiPPv@Base {QGIS_ABI}
 _ZN31QgsSvgMarkerSymbolLayerV2Widget11qt_metacastEPKc@Base {QGIS_ABI}
 _ZN31QgsSvgMarkerSymbolLayerV2Widget11symbolLayerEv@Base {QGIS_ABI}
 _ZN31QgsSvgMarkerSymbolLayerV2Widget12populateListEv@Base {QGIS_ABI}
 _ZN31QgsSvgMarkerSymbolLayerV2Widget14setSymbolLayerEP16QgsSymbolLayerV2@Base {QGIS_ABI}
 _ZN31QgsSvgMarkerSymbolLayerV2Widget16staticMetaObjectE@Base {QGIS_ABI}
 _ZN31QgsSvgMarkerSymbolLayerV2Widget6createEv@Base {QGIS_ABI}
 _ZN31QgsSvgMarkerSymbolLayerV2Widget7setNameERK11QModelIndex@Base {QGIS_ABI}
 _ZN31QgsSvgMarkerSymbolLayerV2Widget7setSizeEv@Base {QGIS_ABI}
 _ZN31QgsSvgMarkerSymbolLayerV2Widget8setAngleEv@Base {QGIS_ABI}
 _ZN31QgsSvgMarkerSymbolLayerV2Widget9setOffsetEv@Base {QGIS_ABI}
 _ZN31QgsSvgMarkerSymbolLayerV2WidgetC1EP7QWidget@Base {QGIS_ABI}
 _ZN31QgsSvgMarkerSymbolLayerV2WidgetC2EP7QWidget@Base {QGIS_ABI}
 _ZN31QgsSvgMarkerSymbolLayerV2WidgetD0Ev@Base {QGIS_ABI}
 _ZN31QgsSvgMarkerSymbolLayerV2WidgetD1Ev@Base {QGIS_ABI}
 _ZN31Ui_QgsRendererV2PropsDialogBase7setupUiEP7QDialog@Base {QGIS_ABI}
 _ZN32QgsMarkerLineSymbolLayerV2Widget11qt_metacallEN11QMetaObject4CallEiPPv@Base {QGIS_ABI}
 _ZN32QgsMarkerLineSymbolLayerV2Widget11qt_metacastEPKc@Base {QGIS_ABI}
 _ZN32QgsMarkerLineSymbolLayerV2Widget11setIntervalEd@Base {QGIS_ABI}
 _ZN32QgsMarkerLineSymbolLayerV2Widget11symbolLayerEv@Base {QGIS_ABI}
 _ZN32QgsMarkerLineSymbolLayerV2Widget12updateMarkerEv@Base {QGIS_ABI}
 _ZN32QgsMarkerLineSymbolLayerV2Widget14setSymbolLayerEP16QgsSymbolLayerV2@Base {QGIS_ABI}
 _ZN32QgsMarkerLineSymbolLayerV2Widget16staticMetaObjectE@Base {QGIS_ABI}
 _ZN32QgsMarkerLineSymbolLayerV2Widget6createEv@Base {QGIS_ABI}
 _ZN32QgsMarkerLineSymbolLayerV2Widget9setMarkerEv@Base {QGIS_ABI}
 _ZN32QgsMarkerLineSymbolLayerV2Widget9setOffsetEv@Base {QGIS_ABI}
 _ZN32QgsMarkerLineSymbolLayerV2Widget9setRotateEv@Base {QGIS_ABI}
 _ZN32QgsMarkerLineSymbolLayerV2WidgetC1EP7QWidget@Base {QGIS_ABI}
 _ZN32QgsMarkerLineSymbolLayerV2WidgetC2EP7QWidget@Base {QGIS_ABI}
 _ZN32QgsMarkerLineSymbolLayerV2WidgetD0Ev@Base {QGIS_ABI}
 _ZN32QgsMarkerLineSymbolLayerV2WidgetD1Ev@Base {QGIS_ABI}
 _ZN32QgsSimpleFillSymbolLayerV2Widget11qt_metacallEN11QMetaObject4CallEiPPv@Base {QGIS_ABI}
 _ZN32QgsSimpleFillSymbolLayerV2Widget11qt_metacastEPKc@Base {QGIS_ABI}
 _ZN32QgsSimpleFillSymbolLayerV2Widget11symbolLayerEv@Base {QGIS_ABI}
 _ZN32QgsSimpleFillSymbolLayerV2Widget13setBrushStyleEv@Base {QGIS_ABI}
 _ZN32QgsSimpleFillSymbolLayerV2Widget14setBorderColorEv@Base {QGIS_ABI}
 _ZN32QgsSimpleFillSymbolLayerV2Widget14setSymbolLayerEP16QgsSymbolLayerV2@Base {QGIS_ABI}
 _ZN32QgsSimpleFillSymbolLayerV2Widget16staticMetaObjectE@Base {QGIS_ABI}
 _ZN32QgsSimpleFillSymbolLayerV2Widget18borderStyleChangedEv@Base {QGIS_ABI}
 _ZN32QgsSimpleFillSymbolLayerV2Widget18borderWidthChangedEv@Base {QGIS_ABI}
 _ZN32QgsSimpleFillSymbolLayerV2Widget6createEv@Base {QGIS_ABI}
 _ZN32QgsSimpleFillSymbolLayerV2Widget8setColorEv@Base {QGIS_ABI}
 _ZN32QgsSimpleFillSymbolLayerV2WidgetC1EP7QWidget@Base {QGIS_ABI}
 _ZN32QgsSimpleFillSymbolLayerV2WidgetC2EP7QWidget@Base {QGIS_ABI}
 _ZN32QgsSimpleFillSymbolLayerV2WidgetD0Ev@Base {QGIS_ABI}
 _ZN32QgsSimpleFillSymbolLayerV2WidgetD1Ev@Base {QGIS_ABI}
 _ZN32QgsSimpleLineSymbolLayerV2Widget11qt_metacallEN11QMetaObject4CallEiPPv@Base {QGIS_ABI}
 _ZN32QgsSimpleLineSymbolLayerV2Widget11qt_metacastEPKc@Base {QGIS_ABI}
 _ZN32QgsSimpleLineSymbolLayerV2Widget11symbolLayerEv@Base {QGIS_ABI}
 _ZN32QgsSimpleLineSymbolLayerV2Widget12colorChangedEv@Base {QGIS_ABI}
 _ZN32QgsSimpleLineSymbolLayerV2Widget13offsetChangedEv@Base {QGIS_ABI}
 _ZN32QgsSimpleLineSymbolLayerV2Widget14setSymbolLayerEP16QgsSymbolLayerV2@Base {QGIS_ABI}
 _ZN32QgsSimpleLineSymbolLayerV2Widget15penStyleChangedEv@Base {QGIS_ABI}
 _ZN32QgsSimpleLineSymbolLayerV2Widget15penWidthChangedEv@Base {QGIS_ABI}
 _ZN32QgsSimpleLineSymbolLayerV2Widget16staticMetaObjectE@Base {QGIS_ABI}
 _ZN32QgsSimpleLineSymbolLayerV2Widget6createEv@Base {QGIS_ABI}
 _ZN32QgsSimpleLineSymbolLayerV2WidgetC1EP7QWidget@Base {QGIS_ABI}
 _ZN32QgsSimpleLineSymbolLayerV2WidgetC2EP7QWidget@Base {QGIS_ABI}
 _ZN32QgsSimpleLineSymbolLayerV2WidgetD0Ev@Base {QGIS_ABI}
 _ZN32QgsSimpleLineSymbolLayerV2WidgetD1Ev@Base {QGIS_ABI}
 _ZN32QgsVectorRandomColorRampV2Dialog11qt_metacallEN11QMetaObject4CallEiPPv@Base {QGIS_ABI}
 _ZN32QgsVectorRandomColorRampV2Dialog11qt_metacastEPKc@Base {QGIS_ABI}
 _ZN32QgsVectorRandomColorRampV2Dialog13updatePreviewEv@Base {QGIS_ABI}
 _ZN32QgsVectorRandomColorRampV2Dialog16staticMetaObjectE@Base {QGIS_ABI}
 _ZN32QgsVectorRandomColorRampV2Dialog7setHue1Ei@Base {QGIS_ABI}
 _ZN32QgsVectorRandomColorRampV2Dialog7setHue2Ei@Base {QGIS_ABI}
 _ZN32QgsVectorRandomColorRampV2Dialog7setSat1Ei@Base {QGIS_ABI}
 _ZN32QgsVectorRandomColorRampV2Dialog7setSat2Ei@Base {QGIS_ABI}
 _ZN32QgsVectorRandomColorRampV2Dialog7setVal1Ei@Base {QGIS_ABI}
 _ZN32QgsVectorRandomColorRampV2Dialog7setVal2Ei@Base {QGIS_ABI}
 _ZN32QgsVectorRandomColorRampV2Dialog8setCountEi@Base {QGIS_ABI}
 _ZN32QgsVectorRandomColorRampV2DialogC1EP26QgsVectorRandomColorRampV2P7QWidget@Base {QGIS_ABI}
 _ZN32QgsVectorRandomColorRampV2DialogC2EP26QgsVectorRandomColorRampV2P7QWidget@Base {QGIS_ABI}
 _ZN32QgsVectorRandomColorRampV2DialogD0Ev@Base {QGIS_ABI}
 _ZN32QgsVectorRandomColorRampV2DialogD1Ev@Base {QGIS_ABI}
 _ZN32Ui_QgsSymbolV2SelectorDialogBase13retranslateUiEP7QDialog@Base {QGIS_ABI}
 _ZN32Ui_QgsSymbolV2SelectorDialogBase7setupUiEP7QDialog@Base {QGIS_ABI}
 _ZN34QgsGraduatedSymbolRendererV2Widget11changeRangeEi@Base {QGIS_ABI}
 _ZN34QgsGraduatedSymbolRendererV2Widget11qt_metacallEN11QMetaObject4CallEiPPv@Base {QGIS_ABI}
 _ZN34QgsGraduatedSymbolRendererV2Widget11qt_metacastEPKc@Base {QGIS_ABI}
 _ZN34QgsGraduatedSymbolRendererV2Widget13rangesClickedERK11QModelIndex@Base {QGIS_ABI}
 _ZN34QgsGraduatedSymbolRendererV2Widget14populateRangesEv@Base {QGIS_ABI}
 _ZN34QgsGraduatedSymbolRendererV2Widget15populateColumnsEv@Base {QGIS_ABI}
 _ZN34QgsGraduatedSymbolRendererV2Widget16staticMetaObjectE@Base {QGIS_ABI}
 _ZN34QgsGraduatedSymbolRendererV2Widget17changeRangeSymbolEi@Base {QGIS_ABI}
 _ZN34QgsGraduatedSymbolRendererV2Widget17classifyGraduatedEv@Base {QGIS_ABI}
 _ZN34QgsGraduatedSymbolRendererV2Widget18changeCurrentValueEP13QStandardItem@Base {QGIS_ABI}
 _ZN34QgsGraduatedSymbolRendererV2Widget18deleteCurrentClassEv@Base {QGIS_ABI}
 _ZN34QgsGraduatedSymbolRendererV2Widget18populateColorRampsEv@Base {QGIS_ABI}
 _ZN34QgsGraduatedSymbolRendererV2Widget19rangesDoubleClickedERK11QModelIndex@Base {QGIS_ABI}
 _ZN34QgsGraduatedSymbolRendererV2Widget20updateUiFromRendererEv@Base {QGIS_ABI}
 _ZN34QgsGraduatedSymbolRendererV2Widget21changeGraduatedSymbolEv@Base {QGIS_ABI}
 _ZN34QgsGraduatedSymbolRendererV2Widget25updateGraduatedSymbolIconEv@Base {QGIS_ABI}
 _ZN34QgsGraduatedSymbolRendererV2Widget6createEP14QgsVectorLayerP10QgsStyleV2P20QgsFeatureRendererV2@Base {QGIS_ABI}
 _ZN34QgsGraduatedSymbolRendererV2Widget8addClassEv@Base {QGIS_ABI}
 _ZN34QgsGraduatedSymbolRendererV2Widget8rendererEv@Base {QGIS_ABI}
 _ZN34QgsGraduatedSymbolRendererV2WidgetC1EP14QgsVectorLayerP10QgsStyleV2P20QgsFeatureRendererV2@Base {QGIS_ABI}
 _ZN34QgsGraduatedSymbolRendererV2WidgetC2EP14QgsVectorLayerP10QgsStyleV2P20QgsFeatureRendererV2@Base {QGIS_ABI}
 _ZN34QgsGraduatedSymbolRendererV2WidgetD0Ev@Base {QGIS_ABI}
 _ZN34QgsGraduatedSymbolRendererV2WidgetD1Ev@Base {QGIS_ABI}
 _ZN34QgsGraduatedSymbolRendererV2WidgetD2Ev@Base {QGIS_ABI}
 _ZN34QgsSimpleMarkerSymbolLayerV2Widget11qt_metacallEN11QMetaObject4CallEiPPv@Base {QGIS_ABI}
 _ZN34QgsSimpleMarkerSymbolLayerV2Widget11qt_metacastEPKc@Base {QGIS_ABI}
 _ZN34QgsSimpleMarkerSymbolLayerV2Widget11symbolLayerEv@Base {QGIS_ABI}
 _ZN34QgsSimpleMarkerSymbolLayerV2Widget12setColorFillEv@Base {QGIS_ABI}
 _ZN34QgsSimpleMarkerSymbolLayerV2Widget14setColorBorderEv@Base {QGIS_ABI}
 _ZN34QgsSimpleMarkerSymbolLayerV2Widget14setSymbolLayerEP16QgsSymbolLayerV2@Base {QGIS_ABI}
 _ZN34QgsSimpleMarkerSymbolLayerV2Widget16staticMetaObjectE@Base {QGIS_ABI}
 _ZN34QgsSimpleMarkerSymbolLayerV2Widget6createEv@Base {QGIS_ABI}
 _ZN34QgsSimpleMarkerSymbolLayerV2Widget7setNameEv@Base {QGIS_ABI}
 _ZN34QgsSimpleMarkerSymbolLayerV2Widget7setSizeEv@Base {QGIS_ABI}
 _ZN34QgsSimpleMarkerSymbolLayerV2Widget8setAngleEv@Base {QGIS_ABI}
 _ZN34QgsSimpleMarkerSymbolLayerV2Widget9setOffsetEv@Base {QGIS_ABI}
 _ZN34QgsSimpleMarkerSymbolLayerV2WidgetC1EP7QWidget@Base {QGIS_ABI}
 _ZN34QgsSimpleMarkerSymbolLayerV2WidgetC2EP7QWidget@Base {QGIS_ABI}
 _ZN34QgsSimpleMarkerSymbolLayerV2WidgetD0Ev@Base {QGIS_ABI}
 _ZN34QgsSimpleMarkerSymbolLayerV2WidgetD1Ev@Base {QGIS_ABI}
 _ZN34QgsVectorGradientColorRampV2Dialog11qt_metacallEN11QMetaObject4CallEiPPv@Base {QGIS_ABI}
 _ZN34QgsVectorGradientColorRampV2Dialog11qt_metacastEPKc@Base {QGIS_ABI}
 _ZN34QgsVectorGradientColorRampV2Dialog13updatePreviewEv@Base {QGIS_ABI}
 _ZN34QgsVectorGradientColorRampV2Dialog16staticMetaObjectE@Base {QGIS_ABI}
 _ZN34QgsVectorGradientColorRampV2Dialog9setColor1Ev@Base {QGIS_ABI}
 _ZN34QgsVectorGradientColorRampV2Dialog9setColor2Ev@Base {QGIS_ABI}
 _ZN34QgsVectorGradientColorRampV2DialogC1EP28QgsVectorGradientColorRampV2P7QWidget@Base {QGIS_ABI}
 _ZN34QgsVectorGradientColorRampV2DialogC2EP28QgsVectorGradientColorRampV2P7QWidget@Base {QGIS_ABI}
 _ZN34QgsVectorGradientColorRampV2DialogD0Ev@Base {QGIS_ABI}
 _ZN34QgsVectorGradientColorRampV2DialogD1Ev@Base {QGIS_ABI}
 _ZN35Ui_QgsGenericProjectionSelectorBase7setupUiEP7QDialog@Base {QGIS_ABI}
 _ZN36QgsCategorizedSymbolRendererV2Widget11qt_metacallEN11QMetaObject4CallEiPPv@Base {QGIS_ABI}
 _ZN36QgsCategorizedSymbolRendererV2Widget11qt_metacastEPKc@Base {QGIS_ABI}
 _ZN36QgsCategorizedSymbolRendererV2Widget13addCategoriesEv@Base {QGIS_ABI}
 _ZN36QgsCategorizedSymbolRendererV2Widget14deleteCategoryEv@Base {QGIS_ABI}
 _ZN36QgsCategorizedSymbolRendererV2Widget15currentCategoryEv@Base {QGIS_ABI}
 _ZN36QgsCategorizedSymbolRendererV2Widget15populateColumnsEv@Base {QGIS_ABI}
 _ZN36QgsCategorizedSymbolRendererV2Widget16staticMetaObjectE@Base {QGIS_ABI}
 _ZN36QgsCategorizedSymbolRendererV2Widget18changeCurrentValueEP13QStandardItem@Base {QGIS_ABI}
 _ZN36QgsCategorizedSymbolRendererV2Widget18currentCategoryRowEv@Base {QGIS_ABI}
 _ZN36QgsCategorizedSymbolRendererV2Widget18populateCategoriesEv@Base {QGIS_ABI}
 _ZN36QgsCategorizedSymbolRendererV2Widget18populateColorRampsEv@Base {QGIS_ABI}
 _ZN36QgsCategorizedSymbolRendererV2Widget19deleteAllCategoriesEv@Base {QGIS_ABI}
 _ZN36QgsCategorizedSymbolRendererV2Widget20changeCategorySymbolEv@Base {QGIS_ABI}
 _ZN36QgsCategorizedSymbolRendererV2Widget20updateUiFromRendererEv@Base {QGIS_ABI}
 _ZN36QgsCategorizedSymbolRendererV2Widget21categoryColumnChangedEv@Base {QGIS_ABI}
 _ZN36QgsCategorizedSymbolRendererV2Widget23categoriesDoubleClickedERK11QModelIndex@Base {QGIS_ABI}
 _ZN36QgsCategorizedSymbolRendererV2Widget23changeCategorizedSymbolEv@Base {QGIS_ABI}
 _ZN36QgsCategorizedSymbolRendererV2Widget27updateCategorizedSymbolIconEv@Base {QGIS_ABI}
 _ZN36QgsCategorizedSymbolRendererV2Widget6createEP14QgsVectorLayerP10QgsStyleV2P20QgsFeatureRendererV2@Base {QGIS_ABI}
 _ZN36QgsCategorizedSymbolRendererV2Widget8rendererEv@Base {QGIS_ABI}
 _ZN36QgsCategorizedSymbolRendererV2WidgetC1EP14QgsVectorLayerP10QgsStyleV2P20QgsFeatureRendererV2@Base {QGIS_ABI}
 _ZN36QgsCategorizedSymbolRendererV2WidgetC2EP14QgsVectorLayerP10QgsStyleV2P20QgsFeatureRendererV2@Base {QGIS_ABI}
 _ZN36QgsCategorizedSymbolRendererV2WidgetD0Ev@Base {QGIS_ABI}
 _ZN36QgsCategorizedSymbolRendererV2WidgetD1Ev@Base {QGIS_ABI}
 _ZN36QgsCategorizedSymbolRendererV2WidgetD2Ev@Base {QGIS_ABI}
 _ZN36QgsLineDecorationSymbolLayerV2Widget11qt_metacallEN11QMetaObject4CallEiPPv@Base {QGIS_ABI}
 _ZN36QgsLineDecorationSymbolLayerV2Widget11qt_metacastEPKc@Base {QGIS_ABI}
 _ZN36QgsLineDecorationSymbolLayerV2Widget11symbolLayerEv@Base {QGIS_ABI}
 _ZN36QgsLineDecorationSymbolLayerV2Widget12colorChangedEv@Base {QGIS_ABI}
 _ZN36QgsLineDecorationSymbolLayerV2Widget14setSymbolLayerEP16QgsSymbolLayerV2@Base {QGIS_ABI}
 _ZN36QgsLineDecorationSymbolLayerV2Widget16staticMetaObjectE@Base {QGIS_ABI}
 _ZN36QgsLineDecorationSymbolLayerV2Widget6createEv@Base {QGIS_ABI}
 _ZN36QgsLineDecorationSymbolLayerV2WidgetC1EP7QWidget@Base {QGIS_ABI}
 _ZN36QgsLineDecorationSymbolLayerV2WidgetC2EP7QWidget@Base {QGIS_ABI}
 _ZN36QgsLineDecorationSymbolLayerV2WidgetD0Ev@Base {QGIS_ABI}
 _ZN36QgsLineDecorationSymbolLayerV2WidgetD1Ev@Base {QGIS_ABI}
 _ZN37QgsVectorColorBrewerColorRampV2Dialog11qt_metacallEN11QMetaObject4CallEiPPv@Base {QGIS_ABI}
 _ZN37QgsVectorColorBrewerColorRampV2Dialog11qt_metacastEPKc@Base {QGIS_ABI}
 _ZN37QgsVectorColorBrewerColorRampV2Dialog13setSchemeNameEv@Base {QGIS_ABI}
 _ZN37QgsVectorColorBrewerColorRampV2Dialog13updatePreviewEv@Base {QGIS_ABI}
 _ZN37QgsVectorColorBrewerColorRampV2Dialog16populateVariantsEv@Base {QGIS_ABI}
 _ZN37QgsVectorColorBrewerColorRampV2Dialog16staticMetaObjectE@Base {QGIS_ABI}
 _ZN37QgsVectorColorBrewerColorRampV2Dialog9setColorsEv@Base {QGIS_ABI}
 _ZN37QgsVectorColorBrewerColorRampV2DialogC1EP31QgsVectorColorBrewerColorRampV2P7QWidget@Base {QGIS_ABI}
 _ZN37QgsVectorColorBrewerColorRampV2DialogC2EP31QgsVectorColorBrewerColorRampV2P7QWidget@Base {QGIS_ABI}
 _ZN37QgsVectorColorBrewerColorRampV2DialogD0Ev@Base {QGIS_ABI}
 _ZN37QgsVectorColorBrewerColorRampV2DialogD1Ev@Base {QGIS_ABI}
 _ZN37Ui_QgsGraduatedSymbolRendererV2Widget13retranslateUiEP7QWidget@Base {QGIS_ABI}
 _ZN37Ui_QgsGraduatedSymbolRendererV2Widget7setupUiEP7QWidget@Base {QGIS_ABI}
 _ZN39Ui_QgsCategorizedSymbolRendererV2Widget13retranslateUiEP7QWidget@Base {QGIS_ABI}
 _ZN39Ui_QgsCategorizedSymbolRendererV2Widget7setupUiEP7QWidget@Base {QGIS_ABI}
 _ZN39Ui_QgsVectorRandomColorRampV2DialogBase13retranslateUiEP7QDialog@Base {QGIS_ABI}
 _ZN39Ui_QgsVectorRandomColorRampV2DialogBase7setupUiEP7QDialog@Base {QGIS_ABI}
 _ZN41Ui_QgsVectorGradientColorRampV2DialogBase13retranslateUiEP7QDialog@Base {QGIS_ABI}
 _ZN41Ui_QgsVectorGradientColorRampV2DialogBase7setupUiEP7QDialog@Base {QGIS_ABI}
 _ZN44Ui_QgsVectorColorBrewerColorRampV2DialogBase7setupUiEP7QDialog@Base {QGIS_ABI}
 _ZN4QMapI7QStringP22QgsSymbolLayerV2WidgetE11node_createEP8QMapDataPPNS4_4NodeERKS0_RKS2_@Base {QGIS_ABI}
 _ZN4QMapI7QStringP22QgsSymbolLayerV2WidgetE8freeDataEP8QMapData@Base {QGIS_ABI}
 _ZN4QMapI7QStringS0_ED1Ev@Base {QGIS_ABI}
 _ZN4QMapIi8QVariantE8freeDataEP8QMapData@Base {QGIS_ABI}
 _ZN4QSetI7QStringED1Ev@Base {QGIS_ABI}
 _ZN5QHashI7QString15QHashDummyValueE13detach_helperEv@Base {QGIS_ABI}
 _ZN5QHashI7QString15QHashDummyValueE13duplicateNodeEPN9QHashData4NodeEPv@Base {QGIS_ABI}
 _ZN5QHashI7QString15QHashDummyValueE8freeDataEP9QHashData@Base {QGIS_ABI}
 _ZN5QListI12QgsRectangleE13detach_helperEv@Base {QGIS_ABI}
 _ZN5QListI12QgsRectangleE4freeEPN9QListData4DataE@Base {QGIS_ABI}
 _ZN5QListI12QgsRectangleE6appendERKS0_@Base {QGIS_ABI}
 _ZN5QListI12QgsRectangleED1Ev@Base {QGIS_ABI}
 _ZN5QListI17QgsSnappingResultE13detach_helperEv@Base {QGIS_ABI}
 _ZN5QListI17QgsSnappingResultE4freeEPN9QListData4DataE@Base {QGIS_ABI}
 _ZN5QListI17QgsSnappingResultE5clearEv@Base {QGIS_ABI}
 _ZN5QListI18QgsRendererRangeV2ED1Ev@Base {QGIS_ABI}
 _ZN5QListI21QgsRendererCategoryV2E13detach_helperEv@Base {QGIS_ABI}
 _ZN5QListI21QgsRendererCategoryV2E4freeEPN9QListData4DataE@Base {QGIS_ABI}
 _ZN5QListI21QgsRendererCategoryV2ED1Ev@Base {QGIS_ABI}
 _ZN5QListI4QUrlE4freeEPN9QListData4DataE@Base {QGIS_ABI}
 _ZN5QListI5QPairIN2Qt10BrushStyleE7QStringEE4freeEPN9QListData4DataE@Base {QGIS_ABI}
 _ZN5QListI5QPairIN2Qt10BrushStyleE7QStringEE6appendERKS4_@Base {QGIS_ABI}
 _ZN5QListI5QPairIN2Qt10BrushStyleE7QStringEED1Ev@Base {QGIS_ABI}
 _ZN5QListI5QPairIN2Qt8PenStyleE7QStringEE4freeEPN9QListData4DataE@Base {QGIS_ABI}
 _ZN5QListI5QPairIN2Qt8PenStyleE7QStringEE6appendERKS4_@Base {QGIS_ABI}
 _ZN5QListI5QPairIN2Qt8PenStyleE7QStringEED1Ev@Base {QGIS_ABI}
 _ZN5QListI5QPairIiiEED1Ev@Base {QGIS_ABI}
 _ZN5QListI7QStringE13detach_helperEv@Base {QGIS_ABI}
 _ZN5QListI7QStringE4freeEPN9QListData4DataE@Base {QGIS_ABI}
 _ZN5QListI7QStringE5clearEv@Base {QGIS_ABI}
 _ZN5QListI7QStringE5eraseENS1_8iteratorE@Base {QGIS_ABI}
 _ZN5QListI7QStringE6appendERKS0_@Base {QGIS_ABI}
 _ZN5QListI7QStringE9removeAllERKS0_@Base {QGIS_ABI}
 _ZN5QListI8QVariantE4freeEPN9QListData4DataE@Base {QGIS_ABI}
 _ZN5QListI8QVariantED1Ev@Base {QGIS_ABI}
 _ZN5QListI8QgsPointE13detach_helperEv@Base {QGIS_ABI}
 _ZN5QListI8QgsPointE4freeEPN9QListData4DataE@Base {QGIS_ABI}
 _ZN5QListI8QgsPointE5eraseENS1_8iteratorE@Base {QGIS_ABI}
 _ZN5QListI8QgsPointE9push_backERKS0_@Base {QGIS_ABI}
 _ZN5QListI8QgsPointED1Ev@Base {QGIS_ABI}
 _ZN5QListIN10QgsSnapper9SnapLayerEE4freeEPN9QListData4DataE@Base {QGIS_ABI}
 _ZN5QListIN10QgsSnapper9SnapLayerEE6appendERKS1_@Base {QGIS_ABI}
 _ZN5QListIN10QgsSnapper9SnapLayerEED1Ev@Base {QGIS_ABI}
 _ZN5QListIP11QgsSymbolV2E13detach_helperEv@Base {QGIS_ABI}
 _ZN5QListIP11QgsSymbolV2ED1Ev@Base {QGIS_ABI}
 _ZN5QListIP13QGraphicsItemED1Ev@Base {QGIS_ABI}
 _ZN5QListIP13QStandardItemED1Ev@Base {QGIS_ABI}
 _ZN5QListIP15QTreeWidgetItemE5firstEv@Base {QGIS_ABI}
 _ZN5QListIP15QTreeWidgetItemED1Ev@Base {QGIS_ABI}
 _ZN5QListIP15QgsComposerItemED1Ev@Base {QGIS_ABI}
 _ZN5QListIP16QgsSymbolLayerV2ED1Ev@Base {QGIS_ABI}
 _ZN5QListIP9QgsSymbolED1Ev@Base {QGIS_ABI}
 _ZN5QListIS_I8QgsPointEE13detach_helperEv@Base {QGIS_ABI}
 _ZN5QListIS_I8QgsPointEE4freeEPN9QListData4DataE@Base {QGIS_ABI}
 _ZN5QListIS_I8QgsPointEE5clearEv@Base {QGIS_ABI}
 _ZN5QListIS_I8QgsPointEED1Ev@Base {QGIS_ABI}
 _ZN5QListIS_I8QgsPointEEixEi@Base {QGIS_ABI}
 _ZN5QListIiED1Ev@Base {QGIS_ABI}
 _ZN7QStringC1EPKc@Base {QGIS_ABI}
 _ZN7QStringC1ERKS_@Base {QGIS_ABI}
 _ZN7QStringD1Ev@Base {QGIS_ABI}
 _ZN7QStringpLEPKc@Base {QGIS_ABI}
 _ZN7QVectorI5QPairId6QColorEE7reallocEii@Base {QGIS_ABI}
 _ZN7QVectorI5QPairId6QColorEED1Ev@Base {QGIS_ABI}
 _ZN7QVectorI7QPointFE7reallocEii@Base {QGIS_ABI}
 _ZN7QVectorI8QgsPointE7reallocEii@Base {QGIS_ABI}
 _ZN7QVectorI8QgsPointEC1ERKS1_@Base {QGIS_ABI}
 _ZN7QVectorI8QgsPointED1Ev@Base {QGIS_ABI}
 _ZN7QVectorIS_I8QgsPointEE4freeEP16QVectorTypedDataIS1_E@Base {QGIS_ABI}
 _ZN7QVectorIS_I8QgsPointEE7reallocEii@Base {QGIS_ABI}
 _ZN7QVectorIS_I8QgsPointEED1Ev@Base {QGIS_ABI}
 _ZN7QVectorIS_I8QgsPointEEixEi@Base {QGIS_ABI}
 _ZN7QVectorIS_IS_I8QgsPointEEE4freeEP16QVectorTypedDataIS2_E@Base {QGIS_ABI}
 _ZN7QVectorIS_IS_I8QgsPointEEE7reallocEii@Base {QGIS_ABI}
 _ZN7QgisGui26openFilesRememberingFilterERK7QStringS2_R11QStringListRS0_S5_b@Base {QGIS_ABI}
 _ZN9QComboBox7addItemERK7QStringRK8QVariant@Base {QGIS_ABI}
 _ZN9QgsMapTip10showMapTipEP11QgsMapLayerR8QgsPointR6QPointP12QgsMapCanvas@Base {QGIS_ABI}
 _ZN9QgsMapTip12fetchFeatureEP11QgsMapLayerR8QgsPointP12QgsMapCanvas@Base {QGIS_ABI}
 _ZN9QgsMapTip5clearEP12QgsMapCanvas@Base {QGIS_ABI}
 _ZN9QgsMapTipC1Ev@Base {QGIS_ABI}
 _ZN9QgsMapTipC2Ev@Base {QGIS_ABI}
 _ZN9QgsMapTipD0Ev@Base {QGIS_ABI}
 _ZN9QgsMapTipD1Ev@Base {QGIS_ABI}
 _ZN9QgsMapTipD2Ev@Base {QGIS_ABI}
 _ZN9QgsSymbol13setLowerValueE7QString@Base {QGIS_ABI}
 _ZN9QgsSymbol13setUpperValueE7QString@Base {QGIS_ABI}
 _ZN9QgsSymbol6setPenE4QPen@Base {QGIS_ABI}
 _ZN9QgsSymbol8setBrushE6QBrush@Base {QGIS_ABI}
 _ZN9QgsSymbol8setLabelE7QString@Base {QGIS_ABI}
 _ZNK11QgsLUDialog10lowerValueEv@Base {QGIS_ABI}
 _ZNK11QgsLUDialog10metaObjectEv@Base {QGIS_ABI}
 _ZNK11QgsLUDialog10upperValueEv@Base {QGIS_ABI}
 _ZNK12QgsMapCanvas10fullExtentEv@Base {QGIS_ABI}
 _ZNK12QgsMapCanvas10layerCountEv@Base {QGIS_ABI}
 _ZNK12QgsMapCanvas10metaObjectEv@Base {QGIS_ABI}
 _ZNK12QgsMapCanvas11canvasColorEv@Base {QGIS_ABI}
 _ZNK12QgsMapCanvas16mapUnitsPerPixelEv@Base {QGIS_ABI}
 _ZNK12QgsMapCanvas6extentEv@Base {QGIS_ABI}
 _ZNK12QgsMapCanvas7isDirtyEv@Base {QGIS_ABI}
 _ZNK12QgsMapCanvas8mapUnitsEv@Base {QGIS_ABI}
 _ZNK13QgisInterface10metaObjectEv@Base {QGIS_ABI}
 _ZNK13QgsQuickPrint10metaObjectEv@Base {QGIS_ABI}
 _ZNK13QgsRubberBand16numberOfVerticesEv@Base {QGIS_ABI}
 _ZNK13QgsRubberBand8getPointEii@Base {QGIS_ABI}
 _ZNK15QTreeWidgetItem4textEi@Base {QGIS_ABI}
 _ZNK15QgsComposerView10metaObjectEv@Base {QGIS_ABI}
 _ZNK15QgsFileDropEdit18acceptableFilePathEP10QDropEvent@Base {QGIS_ABI}
 _ZNK15QgsMapCanvasMap12boundingRectEv@Base {QGIS_ABI}
 _ZNK15QgsVertexMarker12boundingRectEv@Base {QGIS_ABI}
 _ZNK15SymbolLayerItem4dataEi@Base {QGIS_ABI}
 _ZNK15SymbolLayerItem4typeEv@Base {QGIS_ABI}
 _ZNK16QgsMapCanvasItem12boundingRectEv@Base {QGIS_ABI}
 _ZNK16QgsMapCanvasItem4rectEv@Base {QGIS_ABI}
 _ZNK16QgsMessageViewer10metaObjectEv@Base {QGIS_ABI}
 _ZNK18QgsLegendInterface10metaObjectEv@Base {QGIS_ABI}
 _ZNK19QgsDetailedItemData11isCheckableEv@Base {QGIS_ABI}
 _ZNK19QgsDetailedItemData18isRenderedAsWidgetEv@Base {QGIS_ABI}
 _ZNK19QgsDetailedItemData4iconEv@Base {QGIS_ABI}
 _ZNK19QgsDetailedItemData5titleEv@Base {QGIS_ABI}
 _ZNK19QgsDetailedItemData6detailEv@Base {QGIS_ABI}
 _ZNK19QgsDetailedItemData9isCheckedEv@Base {QGIS_ABI}
 _ZNK19QgsDetailedItemData9isEnabledEv@Base {QGIS_ABI}
 _ZNK19QgsMapToolEmitPoint10metaObjectEv@Base {QGIS_ABI}
 _ZNK19QgsPenStyleComboBox8penStyleEv@Base {QGIS_ABI}
 _ZNK20QgsMapOverviewCanvas10metaObjectEv@Base {QGIS_ABI}
 _ZNK21QgsBrushStyleComboBox10brushStyleEv@Base {QGIS_ABI}
 _ZNK21QgsDetailedItemWidget10metaObjectEv@Base {QGIS_ABI}
 _ZNK21QgsEncodingFileDialog10metaObjectEv@Base {QGIS_ABI}
 _ZNK21QgsEncodingFileDialog8encodingEv@Base {QGIS_ABI}
 _ZNK21QgsProjectionSelector10metaObjectEv@Base {QGIS_ABI}
 _ZNK22QgsPenCapStyleComboBox11penCapStyleEv@Base {QGIS_ABI}
 _ZNK22QgsSymbolLayerV2Widget10metaObjectEv@Base {QGIS_ABI}
 _ZNK23QgsDetailedItemDelegate10detailFontERK20QStyleOptionViewItem@Base {QGIS_ABI}
 _ZNK23QgsDetailedItemDelegate10metaObjectEv@Base {QGIS_ABI}
 _ZNK23QgsDetailedItemDelegate13drawHighlightERK20QStyleOptionViewItemP8QPainteri@Base {QGIS_ABI}
 _ZNK23QgsDetailedItemDelegate13paintAsWidgetEP8QPainterRK20QStyleOptionViewItem19QgsDetailedItemData@Base {QGIS_ABI}
 _ZNK23QgsDetailedItemDelegate13paintManuallyEP8QPainterRK20QStyleOptionViewItem19QgsDetailedItemData@Base {QGIS_ABI}
 _ZNK23QgsDetailedItemDelegate15verticalSpacingEv@Base {QGIS_ABI}
 _ZNK23QgsDetailedItemDelegate17horizontalSpacingEv@Base {QGIS_ABI}
 _ZNK23QgsDetailedItemDelegate5paintEP8QPainterRK20QStyleOptionViewItemRK11QModelIndex@Base {QGIS_ABI}
 _ZNK23QgsDetailedItemDelegate6heightERK20QStyleOptionViewItem19QgsDetailedItemData@Base {QGIS_ABI}
 _ZNK23QgsDetailedItemDelegate8sizeHintERK20QStyleOptionViewItemRK11QModelIndex@Base {QGIS_ABI}
 _ZNK23QgsDetailedItemDelegate8wordWrapE7QString12QFontMetricsi@Base {QGIS_ABI}
 _ZNK23QgsDetailedItemDelegate9titleFontERK20QStyleOptionViewItem@Base {QGIS_ABI}
 _ZNK23QgsPenJoinStyleComboBox12penJoinStyleEv@Base {QGIS_ABI}
 _ZNK23QgsStyleV2ManagerDialog10metaObjectEv@Base {QGIS_ABI}
 _ZNK23QgsSymbolLevelsV2Dialog10metaObjectEv@Base {QGIS_ABI}
 _ZNK23QgsSymbolLevelsV2Dialog11usingLevelsEv@Base {QGIS_ABI}
 _ZNK25QgsSymbolV2SelectorDialog10metaObjectEv@Base {QGIS_ABI}
 _ZNK27QgsSymbolV2PropertiesDialog10metaObjectEv@Base {QGIS_ABI}
 _ZNK28QgsGenericProjectionSelector10metaObjectEv@Base {QGIS_ABI}
 _ZNK28QgsProjectBadLayerGuiHandler10metaObjectEv@Base {QGIS_ABI}
 _ZNK29QgsRendererV2PropertiesDialog10metaObjectEv@Base {QGIS_ABI}
 _ZNK31QgsSingleSymbolRendererV2Widget10metaObjectEv@Base {QGIS_ABI}
 _ZNK31QgsSvgMarkerSymbolLayerV2Widget10metaObjectEv@Base {QGIS_ABI}
 _ZNK32QgsMarkerLineSymbolLayerV2Widget10metaObjectEv@Base {QGIS_ABI}
 _ZNK32QgsSimpleFillSymbolLayerV2Widget10metaObjectEv@Base {QGIS_ABI}
 _ZNK32QgsSimpleLineSymbolLayerV2Widget10metaObjectEv@Base {QGIS_ABI}
 _ZNK32QgsVectorRandomColorRampV2Dialog10metaObjectEv@Base {QGIS_ABI}
 _ZNK34QgsGraduatedSymbolRendererV2Widget10metaObjectEv@Base {QGIS_ABI}
 _ZNK34QgsSimpleMarkerSymbolLayerV2Widget10metaObjectEv@Base {QGIS_ABI}
 _ZNK34QgsVectorGradientColorRampV2Dialog10metaObjectEv@Base {QGIS_ABI}
 _ZNK36QgsCategorizedSymbolRendererV2Widget10metaObjectEv@Base {QGIS_ABI}
 _ZNK36QgsLineDecorationSymbolLayerV2Widget10metaObjectEv@Base {QGIS_ABI}
 _ZNK37QgsVectorColorBrewerColorRampV2Dialog10metaObjectEv@Base {QGIS_ABI}
 _ZNK7QStringeqEPKc@Base {QGIS_ABI}
 _ZNK9QgsSymbol10lowerValueEv@Base {QGIS_ABI}
 _ZNK9QgsSymbol10upperValueEv@Base {QGIS_ABI}
 _ZNK9QgsSymbol3penEv@Base {QGIS_ABI}
 _ZNK9QgsSymbol5brushEv@Base {QGIS_ABI}
 _ZNK9QgsSymbol5labelEv@Base {QGIS_ABI}
 _ZTI10QgsMapTool@Base {QGIS_ABI}
 _ZTI11QgsLUDialog@Base {QGIS_ABI}
 _ZTI12QgsMapCanvas@Base {QGIS_ABI}
 _ZTI13QgisInterface@Base {QGIS_ABI}
 _ZTI13QgsMapToolPan@Base {QGIS_ABI}
 _ZTI13QgsQuickPrint@Base {QGIS_ABI}
 _ZTI13QgsRubberBand@Base {QGIS_ABI}
 _ZTI14QgsColorButton@Base {QGIS_ABI}
 _ZTI14QgsMapToolZoom@Base {QGIS_ABI}
 _ZTI15QgsComposerView@Base {QGIS_ABI}
 _ZTI15QgsFileDropEdit@Base {QGIS_ABI}
 _ZTI15QgsMapCanvasMap@Base {QGIS_ABI}
 _ZTI15QgsVertexMarker@Base {QGIS_ABI}
 _ZTI15SymbolLayerItem@Base {QGIS_ABI}
 _ZTI16QgsColorButtonV2@Base {QGIS_ABI}
 _ZTI16QgsMapCanvasItem@Base {QGIS_ABI}
 _ZTI16QgsMessageViewer@Base {QGIS_ABI}
 _ZTI16QgsPanningWidget@Base {QGIS_ABI}
 _ZTI18QgsLegendInterface@Base {QGIS_ABI}
 _ZTI18Ui_QgsLUDialogBase@Base {QGIS_ABI}
 _ZTI18Ui_WidgetSvgMarker@Base {QGIS_ABI}
 _ZTI19QgsMapToolEmitPoint@Base {QGIS_ABI}
 _ZTI19QgsPenStyleComboBox@Base {QGIS_ABI}
 _ZTI19QgsRendererV2Widget@Base {QGIS_ABI}
 _ZTI19Ui_QgsMessageViewer@Base {QGIS_ABI}
 _ZTI19Ui_WidgetMarkerLine@Base {QGIS_ABI}
 _ZTI19Ui_WidgetSimpleFill@Base {QGIS_ABI}
 _ZTI19Ui_WidgetSimpleLine@Base {QGIS_ABI}
 _ZTI20QgsMapOverviewCanvas@Base {QGIS_ABI}
 _ZTI21QgsBrushStyleComboBox@Base {QGIS_ABI}
 _ZTI21QgsDetailedItemWidget@Base {QGIS_ABI}
 _ZTI21QgsEncodingFileDialog@Base {QGIS_ABI}
 _ZTI21QgsProjectionSelector@Base {QGIS_ABI}
 _ZTI21Ui_WidgetSimpleMarker@Base {QGIS_ABI}
 _ZTI22QgsPenCapStyleComboBox@Base {QGIS_ABI}
 _ZTI22QgsSymbolLayerV2Widget@Base {QGIS_ABI}
 _ZTI23QgsDetailedItemDelegate@Base {QGIS_ABI}
 _ZTI23QgsPenJoinStyleComboBox@Base {QGIS_ABI}
 _ZTI23QgsStyleV2ManagerDialog@Base {QGIS_ABI}
 _ZTI23QgsSymbolLevelsV2Dialog@Base {QGIS_ABI}
 _ZTI23Ui_WidgetLineDecoration@Base {QGIS_ABI}
 _ZTI24Ui_DlgSymbolV2Properties@Base {QGIS_ABI}
 _ZTI25QgsProjectBadLayerHandler@Base {QGIS_ABI}
 _ZTI25QgsSymbolV2SelectorDialog@Base {QGIS_ABI}
 _ZTI27QgsSymbolV2PropertiesDialog@Base {QGIS_ABI}
 _ZTI28QgsGenericProjectionSelector@Base {QGIS_ABI}
 _ZTI28QgsProjectBadLayerGuiHandler@Base {QGIS_ABI}
 _ZTI28Ui_QgsDetailedItemWidgetBase@Base {QGIS_ABI}
 _ZTI28Ui_QgsProjectionSelectorBase@Base {QGIS_ABI}
 _ZTI29QgsRendererV2PropertiesDialog@Base {QGIS_ABI}
 _ZTI30Ui_QgsStyleV2ManagerDialogBase@Base {QGIS_ABI}
 _ZTI30Ui_QgsSymbolLevelsV2DialogBase@Base {QGIS_ABI}
 _ZTI31QgsSingleSymbolRendererV2Widget@Base {QGIS_ABI}
 _ZTI31QgsSvgMarkerSymbolLayerV2Widget@Base {QGIS_ABI}
 _ZTI31Ui_QgsRendererV2PropsDialogBase@Base {QGIS_ABI}
 _ZTI32QgsMarkerLineSymbolLayerV2Widget@Base {QGIS_ABI}
 _ZTI32QgsSimpleFillSymbolLayerV2Widget@Base {QGIS_ABI}
 _ZTI32QgsSimpleLineSymbolLayerV2Widget@Base {QGIS_ABI}
 _ZTI32QgsVectorRandomColorRampV2Dialog@Base {QGIS_ABI}
 _ZTI32Ui_QgsSymbolV2SelectorDialogBase@Base {QGIS_ABI}
 _ZTI34QgsGraduatedSymbolRendererV2Widget@Base {QGIS_ABI}
 _ZTI34QgsSimpleMarkerSymbolLayerV2Widget@Base {QGIS_ABI}
 _ZTI34QgsVectorGradientColorRampV2Dialog@Base {QGIS_ABI}
 _ZTI35Ui_QgsGenericProjectionSelectorBase@Base {QGIS_ABI}
 _ZTI36QgsCategorizedSymbolRendererV2Widget@Base {QGIS_ABI}
 _ZTI36QgsLineDecorationSymbolLayerV2Widget@Base {QGIS_ABI}
 _ZTI37QgsVectorColorBrewerColorRampV2Dialog@Base {QGIS_ABI}
 _ZTI37Ui_QgsGraduatedSymbolRendererV2Widget@Base {QGIS_ABI}
 _ZTI39Ui_QgsCategorizedSymbolRendererV2Widget@Base {QGIS_ABI}
 _ZTI39Ui_QgsVectorRandomColorRampV2DialogBase@Base {QGIS_ABI}
 _ZTI41Ui_QgsVectorGradientColorRampV2DialogBase@Base {QGIS_ABI}
 _ZTI44Ui_QgsVectorColorBrewerColorRampV2DialogBase@Base {QGIS_ABI}
 _ZTI9QgsMapTip@Base {QGIS_ABI}
 _ZTI9QgsSymbol@Base {QGIS_ABI}
 _ZTIN2Ui15QgsLUDialogBaseE@Base {QGIS_ABI}
 _ZTIN2Ui15WidgetSvgMarkerE@Base {QGIS_ABI}
 _ZTIN2Ui16QgsMessageViewerE@Base {QGIS_ABI}
 _ZTIN2Ui16WidgetMarkerLineE@Base {QGIS_ABI}
 _ZTIN2Ui16WidgetSimpleFillE@Base {QGIS_ABI}
 _ZTIN2Ui16WidgetSimpleLineE@Base {QGIS_ABI}
 _ZTIN2Ui18WidgetSimpleMarkerE@Base {QGIS_ABI}
 _ZTIN2Ui20WidgetLineDecorationE@Base {QGIS_ABI}
 _ZTIN2Ui21DlgSymbolV2PropertiesE@Base {QGIS_ABI}
 _ZTIN2Ui25QgsDetailedItemWidgetBaseE@Base {QGIS_ABI}
 _ZTIN2Ui25QgsProjectionSelectorBaseE@Base {QGIS_ABI}
 _ZTIN2Ui27QgsStyleV2ManagerDialogBaseE@Base {QGIS_ABI}
 _ZTIN2Ui27QgsSymbolLevelsV2DialogBaseE@Base {QGIS_ABI}
 _ZTIN2Ui28QgsRendererV2PropsDialogBaseE@Base {QGIS_ABI}
 _ZTIN2Ui29QgsSymbolV2SelectorDialogBaseE@Base {QGIS_ABI}
 _ZTIN2Ui32QgsGenericProjectionSelectorBaseE@Base {QGIS_ABI}
 _ZTIN2Ui34QgsGraduatedSymbolRendererV2WidgetE@Base {QGIS_ABI}
 _ZTIN2Ui36QgsCategorizedSymbolRendererV2WidgetE@Base {QGIS_ABI}
 _ZTIN2Ui36QgsVectorRandomColorRampV2DialogBaseE@Base {QGIS_ABI}
 _ZTIN2Ui38QgsVectorGradientColorRampV2DialogBaseE@Base {QGIS_ABI}
 _ZTIN2Ui41QgsVectorColorBrewerColorRampV2DialogBaseE@Base {QGIS_ABI}
 _ZTS10QgsMapTool@Base {QGIS_ABI}
 _ZTS11QgsLUDialog@Base {QGIS_ABI}
 _ZTS12QgsMapCanvas@Base {QGIS_ABI}
 _ZTS13QgisInterface@Base {QGIS_ABI}
 _ZTS13QgsMapToolPan@Base {QGIS_ABI}
 _ZTS13QgsQuickPrint@Base {QGIS_ABI}
 _ZTS13QgsRubberBand@Base {QGIS_ABI}
 _ZTS14QgsColorButton@Base {QGIS_ABI}
 _ZTS14QgsMapToolZoom@Base {QGIS_ABI}
 _ZTS15QgsComposerView@Base {QGIS_ABI}
 _ZTS15QgsFileDropEdit@Base {QGIS_ABI}
 _ZTS15QgsMapCanvasMap@Base {QGIS_ABI}
 _ZTS15QgsVertexMarker@Base {QGIS_ABI}
 _ZTS15SymbolLayerItem@Base {QGIS_ABI}
 _ZTS16QgsColorButtonV2@Base {QGIS_ABI}
 _ZTS16QgsMapCanvasItem@Base {QGIS_ABI}
 _ZTS16QgsMessageViewer@Base {QGIS_ABI}
 _ZTS16QgsPanningWidget@Base {QGIS_ABI}
 _ZTS18QgsLegendInterface@Base {QGIS_ABI}
 _ZTS18Ui_QgsLUDialogBase@Base {QGIS_ABI}
 _ZTS18Ui_WidgetSvgMarker@Base {QGIS_ABI}
 _ZTS19QgsMapToolEmitPoint@Base {QGIS_ABI}
 _ZTS19QgsPenStyleComboBox@Base {QGIS_ABI}
 _ZTS19QgsRendererV2Widget@Base {QGIS_ABI}
 _ZTS19Ui_QgsMessageViewer@Base {QGIS_ABI}
 _ZTS19Ui_WidgetMarkerLine@Base {QGIS_ABI}
 _ZTS19Ui_WidgetSimpleFill@Base {QGIS_ABI}
 _ZTS19Ui_WidgetSimpleLine@Base {QGIS_ABI}
 _ZTS20QgsMapOverviewCanvas@Base {QGIS_ABI}
 _ZTS21QgsBrushStyleComboBox@Base {QGIS_ABI}
 _ZTS21QgsDetailedItemWidget@Base {QGIS_ABI}
 _ZTS21QgsEncodingFileDialog@Base {QGIS_ABI}
 _ZTS21QgsProjectionSelector@Base {QGIS_ABI}
 _ZTS21Ui_WidgetSimpleMarker@Base {QGIS_ABI}
 _ZTS22QgsPenCapStyleComboBox@Base {QGIS_ABI}
 _ZTS22QgsSymbolLayerV2Widget@Base {QGIS_ABI}
 _ZTS23QgsDetailedItemDelegate@Base {QGIS_ABI}
 _ZTS23QgsPenJoinStyleComboBox@Base {QGIS_ABI}
 _ZTS23QgsStyleV2ManagerDialog@Base {QGIS_ABI}
 _ZTS23QgsSymbolLevelsV2Dialog@Base {QGIS_ABI}
 _ZTS23Ui_WidgetLineDecoration@Base {QGIS_ABI}
 _ZTS24Ui_DlgSymbolV2Properties@Base {QGIS_ABI}
 _ZTS25QgsProjectBadLayerHandler@Base {QGIS_ABI}
 _ZTS25QgsSymbolV2SelectorDialog@Base {QGIS_ABI}
 _ZTS27QgsSymbolV2PropertiesDialog@Base {QGIS_ABI}
 _ZTS28QgsGenericProjectionSelector@Base {QGIS_ABI}
 _ZTS28QgsProjectBadLayerGuiHandler@Base {QGIS_ABI}
 _ZTS28Ui_QgsDetailedItemWidgetBase@Base {QGIS_ABI}
 _ZTS28Ui_QgsProjectionSelectorBase@Base {QGIS_ABI}
 _ZTS29QgsRendererV2PropertiesDialog@Base {QGIS_ABI}
 _ZTS30Ui_QgsStyleV2ManagerDialogBase@Base {QGIS_ABI}
 _ZTS30Ui_QgsSymbolLevelsV2DialogBase@Base {QGIS_ABI}
 _ZTS31QgsSingleSymbolRendererV2Widget@Base {QGIS_ABI}
 _ZTS31QgsSvgMarkerSymbolLayerV2Widget@Base {QGIS_ABI}
 _ZTS31Ui_QgsRendererV2PropsDialogBase@Base {QGIS_ABI}
 _ZTS32QgsMarkerLineSymbolLayerV2Widget@Base {QGIS_ABI}
 _ZTS32QgsSimpleFillSymbolLayerV2Widget@Base {QGIS_ABI}
 _ZTS32QgsSimpleLineSymbolLayerV2Widget@Base {QGIS_ABI}
 _ZTS32QgsVectorRandomColorRampV2Dialog@Base {QGIS_ABI}
 _ZTS32Ui_QgsSymbolV2SelectorDialogBase@Base {QGIS_ABI}
 _ZTS34QgsGraduatedSymbolRendererV2Widget@Base {QGIS_ABI}
 _ZTS34QgsSimpleMarkerSymbolLayerV2Widget@Base {QGIS_ABI}
 _ZTS34QgsVectorGradientColorRampV2Dialog@Base {QGIS_ABI}
 _ZTS35Ui_QgsGenericProjectionSelectorBase@Base {QGIS_ABI}
 _ZTS36QgsCategorizedSymbolRendererV2Widget@Base {QGIS_ABI}
 _ZTS36QgsLineDecorationSymbolLayerV2Widget@Base {QGIS_ABI}
 _ZTS37QgsVectorColorBrewerColorRampV2Dialog@Base {QGIS_ABI}
 _ZTS37Ui_QgsGraduatedSymbolRendererV2Widget@Base {QGIS_ABI}
 _ZTS39Ui_QgsCategorizedSymbolRendererV2Widget@Base {QGIS_ABI}
 _ZTS39Ui_QgsVectorRandomColorRampV2DialogBase@Base {QGIS_ABI}
 _ZTS41Ui_QgsVectorGradientColorRampV2DialogBase@Base {QGIS_ABI}
 _ZTS44Ui_QgsVectorColorBrewerColorRampV2DialogBase@Base {QGIS_ABI}
 _ZTS9QgsMapTip@Base {QGIS_ABI}
 _ZTS9QgsSymbol@Base {QGIS_ABI}
 _ZTSN2Ui15QgsLUDialogBaseE@Base {QGIS_ABI}
 _ZTSN2Ui15WidgetSvgMarkerE@Base {QGIS_ABI}
 _ZTSN2Ui16QgsMessageViewerE@Base {QGIS_ABI}
 _ZTSN2Ui16WidgetMarkerLineE@Base {QGIS_ABI}
 _ZTSN2Ui16WidgetSimpleFillE@Base {QGIS_ABI}
 _ZTSN2Ui16WidgetSimpleLineE@Base {QGIS_ABI}
 _ZTSN2Ui18WidgetSimpleMarkerE@Base {QGIS_ABI}
 _ZTSN2Ui20WidgetLineDecorationE@Base {QGIS_ABI}
 _ZTSN2Ui21DlgSymbolV2PropertiesE@Base {QGIS_ABI}
 _ZTSN2Ui25QgsDetailedItemWidgetBaseE@Base {QGIS_ABI}
 _ZTSN2Ui25QgsProjectionSelectorBaseE@Base {QGIS_ABI}
 _ZTSN2Ui27QgsStyleV2ManagerDialogBaseE@Base {QGIS_ABI}
 _ZTSN2Ui27QgsSymbolLevelsV2DialogBaseE@Base {QGIS_ABI}
 _ZTSN2Ui28QgsRendererV2PropsDialogBaseE@Base {QGIS_ABI}
 _ZTSN2Ui29QgsSymbolV2SelectorDialogBaseE@Base {QGIS_ABI}
 _ZTSN2Ui32QgsGenericProjectionSelectorBaseE@Base {QGIS_ABI}
 _ZTSN2Ui34QgsGraduatedSymbolRendererV2WidgetE@Base {QGIS_ABI}
 _ZTSN2Ui36QgsCategorizedSymbolRendererV2WidgetE@Base {QGIS_ABI}
 _ZTSN2Ui36QgsVectorRandomColorRampV2DialogBaseE@Base {QGIS_ABI}
 _ZTSN2Ui38QgsVectorGradientColorRampV2DialogBaseE@Base {QGIS_ABI}
 _ZTSN2Ui41QgsVectorColorBrewerColorRampV2DialogBaseE@Base {QGIS_ABI}
 _ZTV10QgsMapTool@Base {QGIS_ABI}
 _ZTV11QgsLUDialog@Base {QGIS_ABI}
 _ZTV12QgsMapCanvas@Base {QGIS_ABI}
 _ZTV13QgisInterface@Base {QGIS_ABI}
 _ZTV13QgsMapToolPan@Base {QGIS_ABI}
 _ZTV13QgsQuickPrint@Base {QGIS_ABI}
 _ZTV13QgsRubberBand@Base {QGIS_ABI}
 _ZTV14QgsColorButton@Base {QGIS_ABI}
 _ZTV14QgsMapToolZoom@Base {QGIS_ABI}
 _ZTV15QgsComposerView@Base {QGIS_ABI}
 _ZTV15QgsFileDropEdit@Base {QGIS_ABI}
 _ZTV15QgsMapCanvasMap@Base {QGIS_ABI}
 _ZTV15QgsVertexMarker@Base {QGIS_ABI}
 _ZTV15SymbolLayerItem@Base {QGIS_ABI}
 _ZTV16QgsColorButtonV2@Base {QGIS_ABI}
 _ZTV16QgsMapCanvasItem@Base {QGIS_ABI}
 _ZTV16QgsMessageViewer@Base {QGIS_ABI}
 _ZTV16QgsPanningWidget@Base {QGIS_ABI}
 _ZTV18QgsLegendInterface@Base {QGIS_ABI}
 _ZTV19QgsMapToolEmitPoint@Base {QGIS_ABI}
 _ZTV19QgsPenStyleComboBox@Base {QGIS_ABI}
 _ZTV19QgsRendererV2Widget@Base {QGIS_ABI}
 _ZTV20QgsMapOverviewCanvas@Base {QGIS_ABI}
 _ZTV21QgsBrushStyleComboBox@Base {QGIS_ABI}
 _ZTV21QgsDetailedItemWidget@Base {QGIS_ABI}
 _ZTV21QgsEncodingFileDialog@Base {QGIS_ABI}
 _ZTV21QgsProjectionSelector@Base {QGIS_ABI}
 _ZTV22QgsPenCapStyleComboBox@Base {QGIS_ABI}
 _ZTV22QgsSymbolLayerV2Widget@Base {QGIS_ABI}
 _ZTV23QgsDetailedItemDelegate@Base {QGIS_ABI}
 _ZTV23QgsPenJoinStyleComboBox@Base {QGIS_ABI}
 _ZTV23QgsStyleV2ManagerDialog@Base {QGIS_ABI}
 _ZTV23QgsSymbolLevelsV2Dialog@Base {QGIS_ABI}
 _ZTV25QgsProjectBadLayerHandler@Base {QGIS_ABI}
 _ZTV25QgsSymbolV2SelectorDialog@Base {QGIS_ABI}
 _ZTV27QgsSymbolV2PropertiesDialog@Base {QGIS_ABI}
 _ZTV28QgsGenericProjectionSelector@Base {QGIS_ABI}
 _ZTV28QgsProjectBadLayerGuiHandler@Base {QGIS_ABI}
 _ZTV29QgsRendererV2PropertiesDialog@Base {QGIS_ABI}
 _ZTV31QgsSingleSymbolRendererV2Widget@Base {QGIS_ABI}
 _ZTV31QgsSvgMarkerSymbolLayerV2Widget@Base {QGIS_ABI}
 _ZTV32QgsMarkerLineSymbolLayerV2Widget@Base {QGIS_ABI}
 _ZTV32QgsSimpleFillSymbolLayerV2Widget@Base {QGIS_ABI}
 _ZTV32QgsSimpleLineSymbolLayerV2Widget@Base {QGIS_ABI}
 _ZTV32QgsVectorRandomColorRampV2Dialog@Base {QGIS_ABI}
 _ZTV34QgsGraduatedSymbolRendererV2Widget@Base {QGIS_ABI}
 _ZTV34QgsSimpleMarkerSymbolLayerV2Widget@Base {QGIS_ABI}
 _ZTV34QgsVectorGradientColorRampV2Dialog@Base {QGIS_ABI}
 _ZTV36QgsCategorizedSymbolRendererV2Widget@Base {QGIS_ABI}
 _ZTV36QgsLineDecorationSymbolLayerV2Widget@Base {QGIS_ABI}
 _ZTV37QgsVectorColorBrewerColorRampV2Dialog@Base {QGIS_ABI}
 _ZTV9QgsMapTip@Base {QGIS_ABI}
 _ZTV9QgsSymbol@Base {QGIS_ABI}
 _ZThn16_N11QgsLUDialogD0Ev@Base {QGIS_ABI}
 _ZThn16_N11QgsLUDialogD1Ev@Base {QGIS_ABI}
 _ZThn16_N12QgsMapCanvasD0Ev@Base {QGIS_ABI}
 _ZThn16_N12QgsMapCanvasD1Ev@Base {QGIS_ABI}
 _ZThn16_N14QgsColorButtonD0Ev@Base {QGIS_ABI}
 _ZThn16_N14QgsColorButtonD1Ev@Base {QGIS_ABI}
 _ZThn16_N15QgsComposerViewD0Ev@Base {QGIS_ABI}
 _ZThn16_N15QgsComposerViewD1Ev@Base {QGIS_ABI}
 _ZThn16_N15QgsFileDropEditD0Ev@Base {QGIS_ABI}
 _ZThn16_N15QgsFileDropEditD1Ev@Base {QGIS_ABI}
 _ZThn16_N16QgsColorButtonV2D0Ev@Base {QGIS_ABI}
 _ZThn16_N16QgsColorButtonV2D1Ev@Base {QGIS_ABI}
 _ZThn16_N16QgsMessageViewerD0Ev@Base {QGIS_ABI}
 _ZThn16_N16QgsMessageViewerD1Ev@Base {QGIS_ABI}
 _ZThn16_N16QgsPanningWidgetD0Ev@Base {QGIS_ABI}
 _ZThn16_N16QgsPanningWidgetD1Ev@Base {QGIS_ABI}
 _ZThn16_N19QgsPenStyleComboBoxD0Ev@Base {QGIS_ABI}
 _ZThn16_N19QgsPenStyleComboBoxD1Ev@Base {QGIS_ABI}
 _ZThn16_N19QgsRendererV2WidgetD0Ev@Base {QGIS_ABI}
 _ZThn16_N19QgsRendererV2WidgetD1Ev@Base {QGIS_ABI}
 _ZThn16_N20QgsMapOverviewCanvasD0Ev@Base {QGIS_ABI}
 _ZThn16_N20QgsMapOverviewCanvasD1Ev@Base {QGIS_ABI}
 _ZThn16_N21QgsBrushStyleComboBoxD0Ev@Base {QGIS_ABI}
 _ZThn16_N21QgsBrushStyleComboBoxD1Ev@Base {QGIS_ABI}
 _ZThn16_N21QgsDetailedItemWidgetD0Ev@Base {QGIS_ABI}
 _ZThn16_N21QgsDetailedItemWidgetD1Ev@Base {QGIS_ABI}
 _ZThn16_N21QgsEncodingFileDialogD0Ev@Base {QGIS_ABI}
 _ZThn16_N21QgsEncodingFileDialogD1Ev@Base {QGIS_ABI}
 _ZThn16_N21QgsProjectionSelectorD0Ev@Base {QGIS_ABI}
 _ZThn16_N21QgsProjectionSelectorD1Ev@Base {QGIS_ABI}
 _ZThn16_N22QgsPenCapStyleComboBoxD0Ev@Base {QGIS_ABI}
 _ZThn16_N22QgsPenCapStyleComboBoxD1Ev@Base {QGIS_ABI}
 _ZThn16_N22QgsSymbolLayerV2WidgetD0Ev@Base {QGIS_ABI}
 _ZThn16_N22QgsSymbolLayerV2WidgetD1Ev@Base {QGIS_ABI}
 _ZThn16_N23QgsPenJoinStyleComboBoxD0Ev@Base {QGIS_ABI}
 _ZThn16_N23QgsPenJoinStyleComboBoxD1Ev@Base {QGIS_ABI}
 _ZThn16_N23QgsStyleV2ManagerDialogD0Ev@Base {QGIS_ABI}
 _ZThn16_N23QgsStyleV2ManagerDialogD1Ev@Base {QGIS_ABI}
 _ZThn16_N23QgsSymbolLevelsV2DialogD0Ev@Base {QGIS_ABI}
 _ZThn16_N23QgsSymbolLevelsV2DialogD1Ev@Base {QGIS_ABI}
 _ZThn16_N25QgsSymbolV2SelectorDialogD0Ev@Base {QGIS_ABI}
 _ZThn16_N25QgsSymbolV2SelectorDialogD1Ev@Base {QGIS_ABI}
 _ZThn16_N27QgsSymbolV2PropertiesDialogD0Ev@Base {QGIS_ABI}
 _ZThn16_N27QgsSymbolV2PropertiesDialogD1Ev@Base {QGIS_ABI}
 _ZThn16_N28QgsGenericProjectionSelectorD0Ev@Base {QGIS_ABI}
 _ZThn16_N28QgsGenericProjectionSelectorD1Ev@Base {QGIS_ABI}
 _ZThn16_N28QgsProjectBadLayerGuiHandler15handleBadLayersE5QListI8QDomNodeE12QDomDocument@Base {QGIS_ABI}
 _ZThn16_N28QgsProjectBadLayerGuiHandlerD0Ev@Base {QGIS_ABI}
 _ZThn16_N28QgsProjectBadLayerGuiHandlerD1Ev@Base {QGIS_ABI}
 _ZThn16_N29QgsRendererV2PropertiesDialogD0Ev@Base {QGIS_ABI}
 _ZThn16_N29QgsRendererV2PropertiesDialogD1Ev@Base {QGIS_ABI}
 _ZThn16_N31QgsSingleSymbolRendererV2WidgetD0Ev@Base {QGIS_ABI}
 _ZThn16_N31QgsSingleSymbolRendererV2WidgetD1Ev@Base {QGIS_ABI}
 _ZThn16_N31QgsSvgMarkerSymbolLayerV2WidgetD0Ev@Base {QGIS_ABI}
 _ZThn16_N31QgsSvgMarkerSymbolLayerV2WidgetD1Ev@Base {QGIS_ABI}
 _ZThn16_N32QgsMarkerLineSymbolLayerV2WidgetD0Ev@Base {QGIS_ABI}
 _ZThn16_N32QgsMarkerLineSymbolLayerV2WidgetD1Ev@Base {QGIS_ABI}
 _ZThn16_N32QgsSimpleFillSymbolLayerV2WidgetD0Ev@Base {QGIS_ABI}
 _ZThn16_N32QgsSimpleFillSymbolLayerV2WidgetD1Ev@Base {QGIS_ABI}
 _ZThn16_N32QgsSimpleLineSymbolLayerV2WidgetD0Ev@Base {QGIS_ABI}
 _ZThn16_N32QgsSimpleLineSymbolLayerV2WidgetD1Ev@Base {QGIS_ABI}
 _ZThn16_N32QgsVectorRandomColorRampV2DialogD0Ev@Base {QGIS_ABI}
 _ZThn16_N32QgsVectorRandomColorRampV2DialogD1Ev@Base {QGIS_ABI}
 _ZThn16_N34QgsGraduatedSymbolRendererV2WidgetD0Ev@Base {QGIS_ABI}
 _ZThn16_N34QgsGraduatedSymbolRendererV2WidgetD1Ev@Base {QGIS_ABI}
 _ZThn16_N34QgsSimpleMarkerSymbolLayerV2WidgetD0Ev@Base {QGIS_ABI}
 _ZThn16_N34QgsSimpleMarkerSymbolLayerV2WidgetD1Ev@Base {QGIS_ABI}
 _ZThn16_N34QgsVectorGradientColorRampV2DialogD0Ev@Base {QGIS_ABI}
 _ZThn16_N34QgsVectorGradientColorRampV2DialogD1Ev@Base {QGIS_ABI}
 _ZThn16_N36QgsCategorizedSymbolRendererV2WidgetD0Ev@Base {QGIS_ABI}
 _ZThn16_N36QgsCategorizedSymbolRendererV2WidgetD1Ev@Base {QGIS_ABI}
 _ZThn16_N36QgsLineDecorationSymbolLayerV2WidgetD0Ev@Base {QGIS_ABI}
 _ZThn16_N36QgsLineDecorationSymbolLayerV2WidgetD1Ev@Base {QGIS_ABI}
 _ZThn16_N37QgsVectorColorBrewerColorRampV2DialogD0Ev@Base {QGIS_ABI}
 _ZThn16_N37QgsVectorColorBrewerColorRampV2DialogD1Ev@Base {QGIS_ABI}
 _ZThn20_N16QgsMessageViewer10setMessageERK7QStringN16QgsMessageOutput11MessageTypeE@Base {QGIS_ABI}
 _ZThn20_N16QgsMessageViewer11showMessageEb@Base {QGIS_ABI}
 _ZThn20_N16QgsMessageViewer13appendMessageERK7QString@Base {QGIS_ABI}
 _ZThn20_N16QgsMessageViewer8setTitleERK7QString@Base {QGIS_ABI}
 _ZThn20_N16QgsMessageViewerD0Ev@Base {QGIS_ABI}
 _ZThn20_N16QgsMessageViewerD1Ev@Base {QGIS_ABI}
 _ZThn40_N16QgsMessageViewer10setMessageERK7QStringN16QgsMessageOutput11MessageTypeE@Base {QGIS_ABI}
 _ZThn40_N16QgsMessageViewer11showMessageEb@Base {QGIS_ABI}
 _ZThn40_N16QgsMessageViewer13appendMessageERK7QString@Base {QGIS_ABI}
 _ZThn40_N16QgsMessageViewer8setTitleERK7QString@Base {QGIS_ABI}
 _ZThn40_N16QgsMessageViewerD0Ev@Base {QGIS_ABI}
 _ZThn40_N16QgsMessageViewerD1Ev@Base {QGIS_ABI}
 _ZThn8_N12QgsMapCanvasD0Ev@Base {QGIS_ABI}
 _ZThn8_N12QgsMapCanvasD1Ev@Base {QGIS_ABI}
 _ZThn8_N14QgsColorButtonD0Ev@Base {QGIS_ABI}
 _ZThn8_N14QgsColorButtonD1Ev@Base {QGIS_ABI}
 _ZThn8_N15QgsComposerViewD0Ev@Base {QGIS_ABI}
 _ZThn8_N15QgsComposerViewD1Ev@Base {QGIS_ABI}
 _ZThn8_N15QgsFileDropEditD0Ev@Base {QGIS_ABI}
 _ZThn8_N15QgsFileDropEditD1Ev@Base {QGIS_ABI}
 _ZThn8_N16QgsMessageViewerD0Ev@Base {QGIS_ABI}
 _ZThn8_N16QgsMessageViewerD1Ev@Base {QGIS_ABI}
 _ZThn8_N16QgsPanningWidgetD0Ev@Base {QGIS_ABI}
 _ZThn8_N16QgsPanningWidgetD1Ev@Base {QGIS_ABI}
 _ZThn8_N20QgsMapOverviewCanvasD0Ev@Base {QGIS_ABI}
 _ZThn8_N20QgsMapOverviewCanvasD1Ev@Base {QGIS_ABI}
 _ZThn8_N21QgsDetailedItemWidgetD0Ev@Base {QGIS_ABI}
 _ZThn8_N21QgsDetailedItemWidgetD1Ev@Base {QGIS_ABI}
 _ZThn8_N21QgsEncodingFileDialogD0Ev@Base {QGIS_ABI}
 _ZThn8_N21QgsEncodingFileDialogD1Ev@Base {QGIS_ABI}
 _ZThn8_N21QgsProjectionSelectorD0Ev@Base {QGIS_ABI}
 _ZThn8_N21QgsProjectionSelectorD1Ev@Base {QGIS_ABI}
 _ZThn8_N28QgsGenericProjectionSelectorD0Ev@Base {QGIS_ABI}
 _ZThn8_N28QgsGenericProjectionSelectorD1Ev@Base {QGIS_ABI}
 _ZZN11QMetaTypeIdI19QgsDetailedItemDataE14qt_metatype_idEvE11metatype_id@Base {QGIS_ABI}
 _ZplPKcRK7QString@Base {QGIS_ABI}
 _ZplRK7QStringPKc@Base {QGIS_ABI}
 capture_point_cursor@Base {QGIS_ABI}
 cross_hair_cursor@Base {QGIS_ABI}
 identify_cursor@Base {QGIS_ABI}
 pan_bits@Base {QGIS_ABI}
 pan_mask_bits@Base {QGIS_ABI}
 select_cursor@Base {QGIS_ABI}
 zoom_in@Base {QGIS_ABI}
 zoom_out@Base {QGIS_ABI}
