libqgispython.so.1.4.0 python-qgis #MINVER#
 _ZN10QByteArrayD1Ev@Base 1.4.0
 _ZN14QgsPythonUtilsD0Ev@Base 1.4.0
 _ZN14QgsPythonUtilsD1Ev@Base 1.4.0
 _ZN18QgsPythonUtilsImpl10evalStringERK7QStringRS0_@Base 1.4.0
 _ZN18QgsPythonUtilsImpl10exitPythonEv@Base 1.4.0
 _ZN18QgsPythonUtilsImpl10initPythonEP13QgisInterface@Base 1.4.0
 _ZN18QgsPythonUtilsImpl10loadPluginE7QString@Base 1.4.0
 _ZN18QgsPythonUtilsImpl10pluginListEv@Base 1.4.0
 _ZN18QgsPythonUtilsImpl10pythonPathEv@Base 1.4.0
 _ZN18QgsPythonUtilsImpl11pluginsPathEv@Base 1.4.0
 _ZN18QgsPythonUtilsImpl11startPluginE7QString@Base 1.4.0
 _ZN18QgsPythonUtilsImpl12getTracebackEv@Base 1.4.0
 _ZN18QgsPythonUtilsImpl12unloadPluginE7QString@Base 1.4.0
 _ZN18QgsPythonUtilsImpl14homePythonPathEv@Base 1.4.0
 _ZN18QgsPythonUtilsImpl14isPluginLoadedE7QString@Base 1.4.0
 _ZN18QgsPythonUtilsImpl15getTypeAsStringEP7_object@Base 1.4.0
 _ZN18QgsPythonUtilsImpl15homePluginsPathEv@Base 1.4.0
 _ZN18QgsPythonUtilsImpl15runStringUnsafeERK7QStringb@Base 1.4.0
 _ZN18QgsPythonUtilsImpl16installErrorHookEv@Base 1.4.0
 _ZN18QgsPythonUtilsImpl17PyObjectToQStringEP7_object@Base 1.4.0
 _ZN18QgsPythonUtilsImpl17getPluginMetadataE7QStringS0_@Base 1.4.0
 _ZN18QgsPythonUtilsImpl17listActivePluginsEv@Base 1.4.0
 _ZN18QgsPythonUtilsImpl18uninstallErrorHookEv@Base 1.4.0
 _ZN18QgsPythonUtilsImpl19getVariableFromMainE7QString@Base 1.4.0
 _ZN18QgsPythonUtilsImpl19installConsoleHooksEv@Base 1.4.0
 _ZN18QgsPythonUtilsImpl21uninstallConsoleHooksEv@Base 1.4.0
 _ZN18QgsPythonUtilsImpl8getErrorER7QStringS1_@Base 1.4.0
 _ZN18QgsPythonUtilsImpl9getResultEv@Base 1.4.0
 _ZN18QgsPythonUtilsImpl9isEnabledEv@Base 1.4.0
 _ZN18QgsPythonUtilsImpl9runStringERK7QStringS0_@Base 1.4.0
 _ZN18QgsPythonUtilsImplC1Ev@Base 1.4.0
 _ZN18QgsPythonUtilsImplC2Ev@Base 1.4.0
 _ZN18QgsPythonUtilsImplD0Ev@Base 1.4.0
 _ZN18QgsPythonUtilsImplD1Ev@Base 1.4.0
 _ZN18QgsPythonUtilsImplD2Ev@Base 1.4.0
 _ZN5QListI7QStringE4freeEPN9QListData4DataE@Base 1.4.0
 _ZN5QListI7QStringE6appendERKS0_@Base 1.4.0
 _ZN7QStringC1EPKc@Base 1.4.0
 _ZN7QStringC1ERKS_@Base 1.4.0
 _ZN7QStringD1Ev@Base 1.4.0
 _ZN7QStringaSEPKc@Base 1.4.0
 _ZTI14QgsPythonUtils@Base 1.4.0
 _ZTI18QgsPythonUtilsImpl@Base 1.4.0
 _ZTS14QgsPythonUtils@Base 1.4.0
 _ZTS18QgsPythonUtilsImpl@Base 1.4.0
 _ZTV14QgsPythonUtils@Base 1.4.0
 _ZTV18QgsPythonUtilsImpl@Base 1.4.0
 _ZplPKcRK7QString@Base 1.4.0
 _ZplRK7QStringPKc@Base 1.4.0
 instance@Base 1.4.0
