libgrassplugin.so qgis-plugin-grass #MINVER#
 _Z12string_widthRK7QString@Base 1.4.0
 _Z15konsole_wcwidtht@Base 1.4.0
 _Z21qMetaTypeDeleteHelperI19QgsDetailedItemDataEvPT_@Base 1.4.0
 _Z23qStringComparisonHelperRK7QStringPKc@Base 1.4.0
 _Z24qMetaTypeConstructHelperI19QgsDetailedItemDataEPvPKT_@Base 1.4.0
 _Z30qInitResources_qgsgrass_pluginv@Base 1.4.0
 _Z33qCleanupResources_qgsgrass_pluginv@Base 1.4.0
 _Z8qWarningv@Base 1.4.0
 _Z9moveBlockP8_IO_FILEiiPc@Base 1.4.0
 _ZN10QByteArray4dataEv@Base 1.4.0
 _ZN10QByteArrayD1Ev@Base 1.4.0
 _ZN10QMultiHashIiPN7Konsole6Filter7HotSpotEED1Ev@Base 1.4.0
 _ZN10QgisPluginD0Ev@Base 1.4.0
 _ZN10QgisPluginD1Ev@Base 1.4.0
 _ZN10QgisPluginD2Ev@Base 1.4.0
 _ZN11KPtyPrivate8chownptyEb@Base 1.4.0
 _ZN11KPtyPrivateC1Ev@Base 1.4.0
 _ZN11KPtyPrivateC2Ev@Base 1.4.0
 _ZN11QMetaTypeIdI19QgsDetailedItemDataE14qt_metatype_idEv@Base 1.4.0
 _ZN11QStringListC1ERK7QString@Base 1.4.0
 _ZN11QStringListD1Ev@Base 1.4.0
 _ZN11QStringListaSERKS_@Base 1.4.0
 _ZN11QTermWidget11qt_metacallEN11QMetaObject4CallEiPPv@Base 1.4.0
 _ZN11QTermWidget11qt_metacastEPKc@Base 1.4.0
 _ZN11QTermWidget11resizeEventEP12QResizeEvent@Base 1.4.0
 _ZN11QTermWidget12receivedDataERK7QString@Base 1.4.0
 _ZN11QTermWidget12setFixedSizeEii@Base 1.4.0
 _ZN11QTermWidget12setTextCodecEP10QTextCodec@Base 1.4.0
 _ZN11QTermWidget13copyClipboardEv@Base 1.4.0
 _ZN11QTermWidget14pasteClipboardEv@Base 1.4.0
 _ZN11QTermWidget14setColorSchemeEi@Base 1.4.0
 _ZN11QTermWidget14setEnvironmentERK11QStringList@Base 1.4.0
 _ZN11QTermWidget14setHistorySizeEi@Base 1.4.0
 _ZN11QTermWidget15sessionFinishedEv@Base 1.4.0
 _ZN11QTermWidget15setShellProgramERK7QString@Base 1.4.0
 _ZN11QTermWidget15setTerminalFontER5QFont@Base 1.4.0
 _ZN11QTermWidget16staticMetaObjectE@Base 1.4.0
 _ZN11QTermWidget17startShellProgramEv@Base 1.4.0
 _ZN11QTermWidget18flowControlEnabledEv@Base 1.4.0
 _ZN11QTermWidget19setWorkingDirectoryERK7QString@Base 1.4.0
 _ZN11QTermWidget20setScrollBarPositionENS_17ScrollBarPositionE@Base 1.4.0
 _ZN11QTermWidget21setFlowControlEnabledEb@Base 1.4.0
 _ZN11QTermWidget28setFlowControlWarningEnabledEb@Base 1.4.0
 _ZN11QTermWidget4initEv@Base 1.4.0
 _ZN11QTermWidget7setArgsER11QStringList@Base 1.4.0
 _ZN11QTermWidget7setSizeEii@Base 1.4.0
 _ZN11QTermWidget8finishedEv@Base 1.4.0
 _ZN11QTermWidget8sendTextER7QString@Base 1.4.0
 _ZN11QTermWidgetC1EiP7QWidget@Base 1.4.0
 _ZN11QTermWidgetC2EiP7QWidget@Base 1.4.0
 _ZN11QTermWidgetD0Ev@Base 1.4.0
 _ZN11QTermWidgetD1Ev@Base 1.4.0
 _ZN11QTermWidgetD2Ev@Base 1.4.0
 _ZN12QgsGrassEdit10alterTableEv@Base 1.4.0
 _ZN12QgsGrassEdit10closeEventEP11QCloseEvent@Base 1.4.0
 _ZN12QgsGrassEdit10deleteLineEv@Base 1.4.0
 _ZN12QgsGrassEdit10displayMapEv@Base 1.4.0
 _ZN12QgsGrassEdit10isEditableEP11QgsMapLayer@Base 1.4.0
 _ZN12QgsGrassEdit10moveVertexEv@Base 1.4.0
 _ZN12QgsGrassEdit10postRenderEP8QPainter@Base 1.4.0
 _ZN12QgsGrassEdit10updateSymbEv@Base 1.4.0
 _ZN12QgsGrassEdit11checkOrphanEii@Base 1.4.0
 _ZN12QgsGrassEdit11displayIconEddRK4QPeniiP8QPainter@Base 1.4.0
 _ZN12QgsGrassEdit11displayNodeEiRK4QPeniP8QPainter@Base 1.4.0
 _ZN12QgsGrassEdit11newBoundaryEv@Base 1.4.0
 _ZN12QgsGrassEdit11newCentroidEv@Base 1.4.0
 _ZN12QgsGrassEdit11qt_metacallEN11QMetaObject4CallEiPPv@Base 1.4.0
 _ZN12QgsGrassEdit11qt_metacastEPKc@Base 1.4.0
 _ZN12QgsGrassEdit12deleteVertexEv@Base 1.4.0
 _ZN12QgsGrassEdit12eraseDynamicEv@Base 1.4.0
 _ZN12QgsGrassEdit12eraseElementEi@Base 1.4.0
 _ZN12QgsGrassEdit12fieldChangedEv@Base 1.4.0
 _ZN12QgsGrassEdit13addAttributesEii@Base 1.4.0
 _ZN12QgsGrassEdit14catModeChangedEv@Base 1.4.0
 _ZN12QgsGrassEdit14displayDynamicEP9line_pnts@Base 1.4.0
 _ZN12QgsGrassEdit14displayDynamicEP9line_pntsddii@Base 1.4.0
 _ZN12QgsGrassEdit14displayDynamicEddii@Base 1.4.0
 _ZN12QgsGrassEdit14displayElementEiRK4QPeniP8QPainter@Base 1.4.0
 _ZN12QgsGrassEdit14displayUpdatedEv@Base 1.4.0
 _ZN12QgsGrassEdit14editAttributesEv@Base 1.4.0
 _ZN12QgsGrassEdit14increaseMaxCatEv@Base 1.4.0
 _ZN12QgsGrassEdit15changeSymbologyEP15QTreeWidgetItemi@Base 1.4.0
 _ZN12QgsGrassEdit15lineSymbFromMapEi@Base 1.4.0
 _ZN12QgsGrassEdit15nodeSymbFromMapEi@Base 1.4.0
 _ZN12QgsGrassEdit15restorePositionEv@Base 1.4.0
 _ZN12QgsGrassEdit15setCanvasPromptE7QStringS0_S0_@Base 1.4.0
 _ZN12QgsGrassEdit16attributesClosedEv@Base 1.4.0
 _ZN12QgsGrassEdit16lineWidthChangedEv@Base 1.4.0
 _ZN12QgsGrassEdit16staticMetaObjectE@Base 1.4.0
 _ZN12QgsGrassEdit17columnTypeChangedEii@Base 1.4.0
 _ZN12QgsGrassEdit17markerSizeChangedEv@Base 1.4.0
 _ZN12QgsGrassEdit17setAttributeTableEi@Base 1.4.0
 _ZN12QgsGrassEdit18saveWindowLocationEv@Base 1.4.0
 _ZN12QgsGrassEdit19transformLayerToMapE8QgsPoint@Base 1.4.0
 _ZN12QgsGrassEdit22transformLayerToCanvasE8QgsPoint@Base 1.4.0
 _ZN12QgsGrassEdit26attributeTableFieldChangedEv@Base 1.4.0
 _ZN12QgsGrassEdit2trEPKcS1_@Base 1.4.0
 _ZN12QgsGrassEdit4initEv@Base 1.4.0
 _ZN12QgsGrassEdit4snapEPdS0_@Base 1.4.0
 _ZN12QgsGrassEdit4snapER8QgsPoint@Base 1.4.0
 _ZN12QgsGrassEdit4snapER8QgsPointdd@Base 1.4.0
 _ZN12QgsGrassEdit6addCatEi@Base 1.4.0
 _ZN12QgsGrassEdit7isValidEv@Base 1.4.0
 _ZN12QgsGrassEdit7newLineEv@Base 1.4.0
 _ZN12QgsGrassEdit8editCatsEv@Base 1.4.0
 _ZN12QgsGrassEdit8finishedEv@Base 1.4.0
 _ZN12QgsGrassEdit8keyPressEP9QKeyEvent@Base 1.4.0
 _ZN12QgsGrassEdit8mRunningE@Base 1.4.0
 _ZN12QgsGrassEdit8moveLineEv@Base 1.4.0
 _ZN12QgsGrassEdit8newPointEv@Base 1.4.0
 _ZN12QgsGrassEdit9addColumnEv@Base 1.4.0
 _ZN12QgsGrassEdit9addVertexEv@Base 1.4.0
 _ZN12QgsGrassEdit9closeEditEv@Base 1.4.0
 _ZN12QgsGrassEdit9deleteCatEiii@Base 1.4.0
 _ZN12QgsGrassEdit9isRunningEv@Base 1.4.0
 _ZN12QgsGrassEdit9splitLineEv@Base 1.4.0
 _ZN12QgsGrassEdit9startToolEi@Base 1.4.0
 _ZN12QgsGrassEdit9thresholdEv@Base 1.4.0
 _ZN12QgsGrassEdit9writeLineEiP9line_pnts@Base 1.4.0
 _ZN12QgsGrassEditC1EP13QgisInterfaceP11QgsMapLayerbP7QWidget6QFlagsIN2Qt10WindowTypeEE@Base 1.4.0
 _ZN12QgsGrassEditC2EP13QgisInterfaceP11QgsMapLayerbP7QWidget6QFlagsIN2Qt10WindowTypeEE@Base 1.4.0
 _ZN12QgsGrassEditD0Ev@Base 1.4.0
 _ZN12QgsGrassEditD1Ev@Base 1.4.0
 _ZN12QgsGrassEditD2Ev@Base 1.4.0
 _ZN13QListIteratorI7QStringED1Ev@Base 1.4.0
 _ZN13QgsGrassModel10itemMapsetERK11QModelIndex@Base 1.4.0
 _ZN13QgsGrassModel11qt_metacallEN11QMetaObject4CallEiPPv@Base 1.4.0
 _ZN13QgsGrassModel11qt_metacastEPKc@Base 1.4.0
 _ZN13QgsGrassModel11refreshItemEP17QgsGrassModelItem@Base 1.4.0
 _ZN13QgsGrassModel11removeItemsEP17QgsGrassModelItem11QStringList@Base 1.4.0
 _ZN13QgsGrassModel11setLocationERK7QStringS2_@Base 1.4.0
 _ZN13QgsGrassModel16staticMetaObjectE@Base 1.4.0
 _ZN13QgsGrassModel5indexEP17QgsGrassModelItem@Base 1.4.0
 _ZN13QgsGrassModel7itemMapERK11QModelIndex@Base 1.4.0
 _ZN13QgsGrassModel7refreshEv@Base 1.4.0
 _ZN13QgsGrassModel8addItemsEP17QgsGrassModelItem11QStringListi@Base 1.4.0
 _ZN13QgsGrassModel8itemInfoERK11QModelIndex@Base 1.4.0
 _ZN13QgsGrassModel8itemNameERK11QModelIndex@Base 1.4.0
 _ZN13QgsGrassModelC1EP7QObject@Base 1.4.0
 _ZN13QgsGrassModelC2EP7QObject@Base 1.4.0
 _ZN13QgsGrassModelD0Ev@Base 1.4.0
 _ZN13QgsGrassModelD1Ev@Base 1.4.0
 _ZN13QgsGrassModelD2Ev@Base 1.4.0
 _ZN13QgsGrassShell10closeShellEv@Base 1.4.0
 _ZN13QgsGrassShell11qt_metacallEN11QMetaObject4CallEiPPv@Base 1.4.0
 _ZN13QgsGrassShell11qt_metacastEPKc@Base 1.4.0
 _ZN13QgsGrassShell12initTerminalEP11QTermWidget@Base 1.4.0
 _ZN13QgsGrassShell16staticMetaObjectE@Base 1.4.0
 _ZN13QgsGrassShellC1EP13QgsGrassToolsP10QTabWidgetPKc@Base 1.4.0
 _ZN13QgsGrassShellC2EP13QgsGrassToolsP10QTabWidgetPKc@Base 1.4.0
 _ZN13QgsGrassShellD0Ev@Base 1.4.0
 _ZN13QgsGrassShellD1Ev@Base 1.4.0
 _ZN13QgsGrassShellD2Ev@Base 1.4.0
 _ZN13QgsGrassTools10addModulesEP15QTreeWidgetItemR11QDomElement@Base 1.4.0
 _ZN13QgsGrassTools10closeEventEP11QCloseEvent@Base 1.4.0
 _ZN13QgsGrassTools10closeToolsEv@Base 1.4.0
 _ZN13QgsGrassTools10loadConfigE7QString@Base 1.4.0
 _ZN13QgsGrassTools11qt_metacallEN11QMetaObject4CallEiPPv@Base 1.4.0
 _ZN13QgsGrassTools11qt_metacastEPKc@Base 1.4.0
 _ZN13QgsGrassTools13mapsetChangedEv@Base 1.4.0
 _ZN13QgsGrassTools13moduleClickedEP15QTreeWidgetItemi@Base 1.4.0
 _ZN13QgsGrassTools13regionChangedEv@Base 1.4.0
 _ZN13QgsGrassTools15listItemClickedERK11QModelIndex@Base 1.4.0
 _ZN13QgsGrassTools15restorePositionEv@Base 1.4.0
 _ZN13QgsGrassTools16staticMetaObjectE@Base 1.4.0
 _ZN13QgsGrassTools17emitRegionChangedEv@Base 1.4.0
 _ZN13QgsGrassTools18saveWindowLocationEv@Base 1.4.0
 _ZN13QgsGrassTools27on_mFilterInput_textChangedE7QString@Base 1.4.0
 _ZN13QgsGrassTools5closeEv@Base 1.4.0
 _ZN13QgsGrassTools6appDirEv@Base 1.4.0
 _ZN13QgsGrassTools9runModuleE7QString@Base 1.4.0
 _ZN13QgsGrassToolsC1EP13QgisInterfaceP7QWidgetPKc6QFlagsIN2Qt10WindowTypeEE@Base 1.4.0
 _ZN13QgsGrassToolsC2EP13QgisInterfaceP7QWidgetPKc6QFlagsIN2Qt10WindowTypeEE@Base 1.4.0
 _ZN13QgsGrassToolsD0Ev@Base 1.4.0
 _ZN13QgsGrassToolsD1Ev@Base 1.4.0
 _ZN13QgsGrassToolsD2Ev@Base 1.4.0
 _ZN13QgsGrassUtils10itemExistsE7QStringS0_@Base 1.4.0
 _ZN13QgsGrassUtils15addVectorLayersEP13QgisInterface7QStringS2_S2_S2_@Base 1.4.0
 _ZN13QgsGrassUtils15vectorLayerNameE7QStringS0_i@Base 1.4.0
 _ZN13QgsGrassUtilsC1Ev@Base 1.4.0
 _ZN13QgsGrassUtilsC2Ev@Base 1.4.0
 _ZN13QgsGrassUtilsD1Ev@Base 1.4.0
 _ZN13QgsGrassUtilsD2Ev@Base 1.4.0
 _ZN14K3ShellProcess11qt_metacallEN11QMetaObject4CallEiPPv@Base 1.4.0
 _ZN14K3ShellProcess11qt_metacastEPKc@Base 1.4.0
 _ZN14K3ShellProcess16staticMetaObjectE@Base 1.4.0
 _ZN14K3ShellProcess5quoteERK7QString@Base 1.4.0
 _ZN14K3ShellProcess5startEN9K3Process7RunModeE6QFlagsINS0_17CommunicationFlagEE@Base 1.4.0
 _ZN14K3ShellProcessC1EPKc@Base 1.4.0
 _ZN14K3ShellProcessC2EPKc@Base 1.4.0
 _ZN14K3ShellProcessD0Ev@Base 1.4.0
 _ZN14K3ShellProcessD1Ev@Base 1.4.0
 _ZN14K3ShellProcessD2Ev@Base 1.4.0
 _ZN14QgsGrassModule10inExecPathE7QString@Base 1.4.0
 _ZN14QgsGrassModule10readStderrEv@Base 1.4.0
 _ZN14QgsGrassModule10readStdoutEv@Base 1.4.0
 _ZN14QgsGrassModule10viewOutputEv@Base 1.4.0
 _ZN14QgsGrassModule11qt_metacallEN11QMetaObject4CallEiPPv@Base 1.4.0
 _ZN14QgsGrassModule11qt_metacastEPKc@Base 1.4.0
 _ZN14QgsGrassModule13execArgumentsE7QString@Base 1.4.0
 _ZN14QgsGrassModule15mExecPathInitedE@Base 1.4.0
 _ZN14QgsGrassModule16staticMetaObjectE@Base 1.4.0
 _ZN14QgsGrassModule2trEPKcS1_@Base 1.4.0
 _ZN14QgsGrassModule3runEv@Base 1.4.0
 _ZN14QgsGrassModule5closeEv@Base 1.4.0
 _ZN14QgsGrassModule5labelE7QString@Base 1.4.0
 _ZN14QgsGrassModule6pixmapE7QStringi@Base 1.4.0
 _ZN14QgsGrassModule8findExecE7QString@Base 1.4.0
 _ZN14QgsGrassModule8finishedEiN8QProcess10ExitStatusE@Base 1.4.0
 _ZN14QgsGrassModule9mExecPathE@Base 1.4.0
 _ZN14QgsGrassModule9nodeByKeyE11QDomElement7QString@Base 1.4.0
 _ZN14QgsGrassModule9qgisIfaceEv@Base 1.4.0
 _ZN14QgsGrassModuleC1EP13QgsGrassTools7QStringP13QgisInterfaceS2_P7QWidget6QFlagsIN2Qt10WindowTypeEE@Base 1.4.0
 _ZN14QgsGrassModuleC2EP13QgsGrassTools7QStringP13QgisInterfaceS2_P7QWidget6QFlagsIN2Qt10WindowTypeEE@Base 1.4.0
 _ZN14QgsGrassModuleD0Ev@Base 1.4.0
 _ZN14QgsGrassModuleD1Ev@Base 1.4.0
 _ZN14QgsGrassModuleD2Ev@Base 1.4.0
 _ZN14QgsGrassPlugin10newProjectEv@Base 1.4.0
 _ZN14QgsGrassPlugin10openMapsetEv@Base 1.4.0
 _ZN14QgsGrassPlugin10postRenderEP8QPainter@Base 1.4.0
 _ZN14QgsGrassPlugin10saveMapsetEv@Base 1.4.0
 _ZN14QgsGrassPlugin11closeMapsetEv@Base 1.4.0
 _ZN14QgsGrassPlugin11descriptionEv@Base 1.4.0
 _ZN14QgsGrassPlugin11projectReadEv@Base 1.4.0
 _ZN14QgsGrassPlugin11qt_metacallEN11QMetaObject4CallEiPPv@Base 1.4.0
 _ZN14QgsGrassPlugin11qt_metacastEPKc@Base 1.4.0
 _ZN14QgsGrassPlugin12changeRegionEv@Base 1.4.0
 _ZN14QgsGrassPlugin12getThemeIconE7QString@Base 1.4.0
 _ZN14QgsGrassPlugin12redrawRegionEv@Base 1.4.0
 _ZN14QgsGrassPlugin12regionClosedEv@Base 1.4.0
 _ZN14QgsGrassPlugin12setRegionPenER4QPen@Base 1.4.0
 _ZN14QgsGrassPlugin12switchRegionEb@Base 1.4.0
 _ZN14QgsGrassPlugin13displayRegionEv@Base 1.4.0
 _ZN14QgsGrassPlugin13mapsetChangedEv@Base 1.4.0
 _ZN14QgsGrassPlugin13setEditActionEv@Base 1.4.0
 _ZN14QgsGrassPlugin15setCurrentThemeE7QString@Base 1.4.0
 _ZN14QgsGrassPlugin16staticMetaObjectE@Base 1.4.0
 _ZN14QgsGrassPlugin2trEPKcS1_@Base 1.4.0
 _ZN14QgsGrassPlugin4editEv@Base 1.4.0
 _ZN14QgsGrassPlugin4helpEv@Base 1.4.0
 _ZN14QgsGrassPlugin4nameEv@Base 1.4.0
 _ZN14QgsGrassPlugin4typeEv@Base 1.4.0
 _ZN14QgsGrassPlugin6unloadEv@Base 1.4.0
 _ZN14QgsGrassPlugin7cleanUpEv@Base 1.4.0
 _ZN14QgsGrassPlugin7initGuiEv@Base 1.4.0
 _ZN14QgsGrassPlugin7versionEv@Base 1.4.0
 _ZN14QgsGrassPlugin9addRasterEv@Base 1.4.0
 _ZN14QgsGrassPlugin9addVectorEv@Base 1.4.0
 _ZN14QgsGrassPlugin9closeEditE7QString@Base 1.4.0
 _ZN14QgsGrassPlugin9newMapsetEv@Base 1.4.0
 _ZN14QgsGrassPlugin9newVectorEv@Base 1.4.0
 _ZN14QgsGrassPlugin9openToolsEv@Base 1.4.0
 _ZN14QgsGrassPlugin9regionPenEv@Base 1.4.0
 _ZN14QgsGrassPluginC1EP13QgisInterface@Base 1.4.0
 _ZN14QgsGrassPluginC2EP13QgisInterface@Base 1.4.0
 _ZN14QgsGrassPluginD0Ev@Base 1.4.0
 _ZN14QgsGrassPluginD1Ev@Base 1.4.0
 _ZN14QgsGrassPluginD2Ev@Base 1.4.0
 _ZN14QgsGrassRegion10formatEdgeEd@Base 1.4.0
 _ZN14QgsGrassRegion10postRenderEP8QPainter@Base 1.4.0
 _ZN14QgsGrassRegion11changeColorEv@Base 1.4.0
 _ZN14QgsGrassRegion11changeWidthEv@Base 1.4.0
 _ZN14QgsGrassRegion11colsChangedERK7QString@Base 1.4.0
 _ZN14QgsGrassRegion11eastChangedERK7QString@Base 1.4.0
 _ZN14QgsGrassRegion11qt_metacallEN11QMetaObject4CallEiPPv@Base 1.4.0
 _ZN14QgsGrassRegion11qt_metacastEPKc@Base 1.4.0
 _ZN14QgsGrassRegion11rowsChangedERK7QString@Base 1.4.0
 _ZN14QgsGrassRegion11westChangedERK7QString@Base 1.4.0
 _ZN14QgsGrassRegion12EWResChangedERK7QString@Base 1.4.0
 _ZN14QgsGrassRegion12NSResChangedERK7QString@Base 1.4.0
 _ZN14QgsGrassRegion12northChangedERK7QString@Base 1.4.0
 _ZN14QgsGrassRegion12radioChangedEv@Base 1.4.0
 _ZN14QgsGrassRegion12setGuiValuesEbbbbbbbb@Base 1.4.0
 _ZN14QgsGrassRegion12southChangedERK7QString@Base 1.4.0
 _ZN14QgsGrassRegion13displayRegionEv@Base 1.4.0
 _ZN14QgsGrassRegion15restorePositionEv@Base 1.4.0
 _ZN14QgsGrassRegion16staticMetaObjectE@Base 1.4.0
 _ZN14QgsGrassRegion18saveWindowLocationEv@Base 1.4.0
 _ZN14QgsGrassRegion4drawEdddd@Base 1.4.0
 _ZN14QgsGrassRegion6acceptEv@Base 1.4.0
 _ZN14QgsGrassRegion6adjustEv@Base 1.4.0
 _ZN14QgsGrassRegion6rejectEv@Base 1.4.0
 _ZN14QgsGrassRegionC1EP14QgsGrassPluginP13QgisInterfaceP7QWidget6QFlagsIN2Qt10WindowTypeEE@Base 1.4.0
 _ZN14QgsGrassRegionC2EP14QgsGrassPluginP13QgisInterfaceP7QWidget6QFlagsIN2Qt10WindowTypeEE@Base 1.4.0
 _ZN14QgsGrassRegionD0Ev@Base 1.4.0
 _ZN14QgsGrassRegionD1Ev@Base 1.4.0
 _ZN14QgsGrassRegionD2Ev@Base 1.4.0
 _ZN14QgsGrassSelect10lastMapsetE@Base 1.4.0
 _ZN14QgsGrassSelect10setMapsetsEv@Base 1.4.0
 _ZN14QgsGrassSelect11lastMapcalcE@Base 1.4.0
 _ZN14QgsGrassSelect11qt_metacallEN11QMetaObject4CallEiPPv@Base 1.4.0
 _ZN14QgsGrassSelect11qt_metacastEPKc@Base 1.4.0
 _ZN14QgsGrassSelect12lastGisdbaseE@Base 1.4.0
 _ZN14QgsGrassSelect12lastLocationE@Base 1.4.0
 _ZN14QgsGrassSelect12setLocationsEv@Base 1.4.0
 _ZN14QgsGrassSelect12vectorLayersE7QStringS0_S0_S0_@Base 1.4.0
 _ZN14QgsGrassSelect13lastRasterMapE@Base 1.4.0
 _ZN14QgsGrassSelect13lastVectorMapE@Base 1.4.0
 _ZN14QgsGrassSelect13on_ok_clickedEv@Base 1.4.0
 _ZN14QgsGrassSelect15restorePositionEv@Base 1.4.0
 _ZN14QgsGrassSelect16staticMetaObjectE@Base 1.4.0
 _ZN14QgsGrassSelect17on_cancel_clickedEv@Base 1.4.0
 _ZN14QgsGrassSelect18saveWindowLocationEv@Base 1.4.0
 _ZN14QgsGrassSelect25on_GisdbaseBrowse_clickedEv@Base 1.4.0
 _ZN14QgsGrassSelect2trEPKcS1_@Base 1.4.0
 _ZN14QgsGrassSelect5firstE@Base 1.4.0
 _ZN14QgsGrassSelect7setMapsEv@Base 1.4.0
 _ZN14QgsGrassSelect9lastLayerE@Base 1.4.0
 _ZN14QgsGrassSelect9setLayersEv@Base 1.4.0
 _ZN14QgsGrassSelectC1Ei@Base 1.4.0
 _ZN14QgsGrassSelectC2Ei@Base 1.4.0
 _ZN14QgsGrassSelectD0Ev@Base 1.4.0
 _ZN14QgsGrassSelectD1Ev@Base 1.4.0
 _ZN14QgsGrassSelectD2Ev@Base 1.4.0
 _ZN14TermWidgetImpl13createSessionEv@Base 1.4.0
 _ZN14TermWidgetImpl21createTerminalDisplayEPN7Konsole7SessionEP7QWidget@Base 1.4.0
 _ZN14TermWidgetImplC1EP7QWidget@Base 1.4.0
 _ZN14TermWidgetImplC2EP7QWidget@Base 1.4.0
 _ZN15QTreeWidgetItem7setIconEiRK5QIcon@Base 1.4.0
 _ZN15QVarLengthArrayIhLi64EEixEi@Base 1.4.0
 _ZN15QgsGrassBrowser11qt_metacallEN11QMetaObject4CallEiPPv@Base 1.4.0
 _ZN15QgsGrassBrowser11qt_metacastEPKc@Base 1.4.0
 _ZN15QgsGrassBrowser11setLocationERK7QStringS2_@Base 1.4.0
 _ZN15QgsGrassBrowser11writeRegionEP9Cell_head@Base 1.4.0
 _ZN15QgsGrassBrowser13doubleClickedERK11QModelIndex@Base 1.4.0
 _ZN15QgsGrassBrowser13formatMessageE7QString@Base 1.4.0
 _ZN15QgsGrassBrowser13getItemRegionERK11QModelIndexP9Cell_head@Base 1.4.0
 _ZN15QgsGrassBrowser13regionChangedEv@Base 1.4.0
 _ZN15QgsGrassBrowser14currentChangedERK11QModelIndexS2_@Base 1.4.0
 _ZN15QgsGrassBrowser15showContextMenuERK6QPoint@Base 1.4.0
 _ZN15QgsGrassBrowser16selectionChangedERK14QItemSelectionS2_@Base 1.4.0
 _ZN15QgsGrassBrowser16staticMetaObjectE@Base 1.4.0
 _ZN15QgsGrassBrowser6addMapEv@Base 1.4.0
 _ZN15QgsGrassBrowser7copyMapEv@Base 1.4.0
 _ZN15QgsGrassBrowser7refreshEv@Base 1.4.0
 _ZN15QgsGrassBrowser9deleteMapEv@Base 1.4.0
 _ZN15QgsGrassBrowser9renameMapEv@Base 1.4.0
 _ZN15QgsGrassBrowser9setRegionEv@Base 1.4.0
 _ZN15QgsGrassBrowserC1EP13QgisInterfaceP7QWidget6QFlagsIN2Qt10WindowTypeEE@Base 1.4.0
 _ZN15QgsGrassBrowserC2EP13QgisInterfaceP7QWidget6QFlagsIN2Qt10WindowTypeEE@Base 1.4.0
 _ZN15QgsGrassBrowserD0Ev@Base 1.4.0
 _ZN15QgsGrassBrowserD1Ev@Base 1.4.0
 _ZN15QgsGrassBrowserD2Ev@Base 1.4.0
 _ZN15QgsGrassMapcalc10deleteItemEv@Base 1.4.0
 _ZN15QgsGrassMapcalc10growCanvasEiiii@Base 1.4.0
 _ZN15QgsGrassMapcalc10mapChangedEv@Base 1.4.0
 _ZN15QgsGrassMapcalc10selectItemEv@Base 1.4.0
 _ZN15QgsGrassMapcalc10updateMapsEv@Base 1.4.0
 _ZN15QgsGrassMapcalc10usesRegionEv@Base 1.4.0
 _ZN15QgsGrassMapcalc11addConstantEv@Base 1.4.0
 _ZN15QgsGrassMapcalc11addFunctionEv@Base 1.4.0
 _ZN15QgsGrassMapcalc11checkOutputEv@Base 1.4.0
 _ZN15QgsGrassMapcalc11checkRegionEv@Base 1.4.0
 _ZN15QgsGrassMapcalc11inputRegionEP9Cell_headb@Base 1.4.0
 _ZN15QgsGrassMapcalc11qt_metacallEN11QMetaObject4CallEiPPv@Base 1.4.0
 _ZN15QgsGrassMapcalc11qt_metacastEPKc@Base 1.4.0
 _ZN15QgsGrassMapcalc11showOptionsEi@Base 1.4.0
 _ZN15QgsGrassMapcalc12resizeCanvasEii@Base 1.4.0
 _ZN15QgsGrassMapcalc13addConnectionEv@Base 1.4.0
 _ZN15QgsGrassMapcalc13keyPressEventEP9QKeyEvent@Base 1.4.0
 _ZN15QgsGrassMapcalc14mouseMoveEventEP11QMouseEvent@Base 1.4.0
 _ZN15QgsGrassMapcalc14requestsRegionEv@Base 1.4.0
 _ZN15QgsGrassMapcalc15constantChangedEv@Base 1.4.0
 _ZN15QgsGrassMapcalc15functionChangedEv@Base 1.4.0
 _ZN15QgsGrassMapcalc15mousePressEventEP11QMouseEvent@Base 1.4.0
 _ZN15QgsGrassMapcalc16staticMetaObjectE@Base 1.4.0
 _ZN15QgsGrassMapcalc17mouseReleaseEventEP11QMouseEvent@Base 1.4.0
 _ZN15QgsGrassMapcalc17setToolActionsOffEv@Base 1.4.0
 _ZN15QgsGrassMapcalc2trEPKcS1_@Base 1.4.0
 _ZN15QgsGrassMapcalc4loadEv@Base 1.4.0
 _ZN15QgsGrassMapcalc4saveEv@Base 1.4.0
 _ZN15QgsGrassMapcalc5clearEv@Base 1.4.0
 _ZN15QgsGrassMapcalc5limitEP6QPoint@Base 1.4.0
 _ZN15QgsGrassMapcalc5readyEv@Base 1.4.0
 _ZN15QgsGrassMapcalc6addMapEv@Base 1.4.0
 _ZN15QgsGrassMapcalc6outputEi@Base 1.4.0
 _ZN15QgsGrassMapcalc6saveAsEv@Base 1.4.0
 _ZN15QgsGrassMapcalc7setToolEi@Base 1.4.0
 _ZN15QgsGrassMapcalc8autoGrowEv@Base 1.4.0
 _ZN15QgsGrassMapcalc9argumentsEv@Base 1.4.0
 _ZN15QgsGrassMapcalc9setOptionEv@Base 1.4.0
 _ZN15QgsGrassMapcalcC1EP13QgsGrassToolsP14QgsGrassModuleP13QgisInterfaceP7QWidget6QFlagsIN2Qt10WindowTypeEE@Base 1.4.0
 _ZN15QgsGrassMapcalcC2EP13QgsGrassToolsP14QgsGrassModuleP13QgisInterfaceP7QWidget6QFlagsIN2Qt10WindowTypeEE@Base 1.4.0
 _ZN15QgsGrassMapcalcD0Ev@Base 1.4.0
 _ZN15QgsGrassMapcalcD1Ev@Base 1.4.0
 _ZN15QgsGrassMapcalcD2Ev@Base 1.4.0
 _ZN16QgsDataSourceURID1Ev@Base 1.4.0
 _ZN16QgsGrassEditTool10mouseClickER8QgsPointN2Qt11MouseButtonE@Base 1.4.0
 _ZN16QgsGrassEditTool11qt_metacallEN11QMetaObject4CallEiPPv@Base 1.4.0
 _ZN16QgsGrassEditTool11qt_metacastEPKc@Base 1.4.0
 _ZN16QgsGrassEditTool15canvasMoveEventEP11QMouseEvent@Base 1.4.0
 _ZN16QgsGrassEditTool16canvasPressEventEP11QMouseEvent@Base 1.4.0
 _ZN16QgsGrassEditTool16staticMetaObjectE@Base 1.4.0
 _ZN16QgsGrassEditTool9mouseMoveER8QgsPoint@Base 1.4.0
 _ZN16QgsGrassEditToolC1EP12QgsGrassEdit@Base 1.4.0
 _ZN16QgsGrassEditToolC2EP12QgsGrassEdit@Base 1.4.0
 _ZN16QgsGrassEditToolD0Ev@Base 1.4.0
 _ZN16QgsGrassEditToolD1Ev@Base 1.4.0
 _ZN16QgsGrassEditToolD2Ev@Base 1.4.0
 _ZN17QgsGrassEditLayer14updatePositionEv@Base 1.4.0
 _ZN17QgsGrassEditLayer5paintEP8QPainter@Base 1.4.0
 _ZN17QgsGrassEditLayerD0Ev@Base 1.4.0
 _ZN17QgsGrassEditLayerD1Ev@Base 1.4.0
 _ZN17QgsGrassModelItem12htmlTableRowE11QStringList@Base 1.4.0
 _ZN17QgsGrassModelItem12htmlTableRowE7QStringS0_@Base 1.4.0
 _ZN17QgsGrassModelItem3uriEv@Base 1.4.0
 _ZN17QgsGrassModelItem4dataEi@Base 1.4.0
 _ZN17QgsGrassModelItem4infoEv@Base 1.4.0
 _ZN17QgsGrassModelItem4nameEv@Base 1.4.0
 _ZN17QgsGrassModelItem5childEi@Base 1.4.0
 _ZN17QgsGrassModelItem8populateEv@Base 1.4.0
 _ZN17QgsGrassModelItem9copyNamesEPS_@Base 1.4.0
 _ZN17QgsGrassModelItemC1Ev@Base 1.4.0
 _ZN17QgsGrassModelItemC2Ev@Base 1.4.0
 _ZN17QgsGrassModelItemD1Ev@Base 1.4.0
 _ZN17QgsGrassModelItemD2Ev@Base 1.4.0
 _ZN17QgsGrassNewMapset10closeEventEP11QCloseEvent@Base 1.4.0
 _ZN17QgsGrassNewMapset10drawRegionEv@Base 1.4.0
 _ZN17QgsGrassNewMapset10setMapsetsEv@Base 1.4.0
 _ZN17QgsGrassNewMapset11checkRegionEv@Base 1.4.0
 _ZN17QgsGrassNewMapset11clearRegionEv@Base 1.4.0
 _ZN17QgsGrassNewMapset11loadRegionsEv@Base 1.4.0
 _ZN17QgsGrassNewMapset11qt_metacallEN11QMetaObject4CallEiPPv@Base 1.4.0
 _ZN17QgsGrassNewMapset11qt_metacastEPKc@Base 1.4.0
 _ZN17QgsGrassNewMapset12createMapsetEv@Base 1.4.0
 _ZN17QgsGrassNewMapset12pageSelectedEi@Base 1.4.0
 _ZN17QgsGrassNewMapset12setLocationsEv@Base 1.4.0
 _ZN17QgsGrassNewMapset12sridSelectedE7QString@Base 1.4.0
 _ZN17QgsGrassNewMapset13checkLocationEv@Base 1.4.0
 _ZN17QgsGrassNewMapset13keyPressEventEP9QKeyEvent@Base 1.4.0
 _ZN17QgsGrassNewMapset13mapsetChangedEv@Base 1.4.0
 _ZN17QgsGrassNewMapset13regionChangedEv@Base 1.4.0
 _ZN17QgsGrassNewMapset13setFinishPageEv@Base 1.4.0
 _ZN17QgsGrassNewMapset13setRegionPageEv@Base 1.4.0
 _ZN17QgsGrassNewMapset14browseDatabaseEv@Base 1.4.0
 _ZN17QgsGrassNewMapset15databaseChangedEv@Base 1.4.0
 _ZN17QgsGrassNewMapset15setLocationPageEv@Base 1.4.0
 _ZN17QgsGrassNewMapset16setCurrentRegionEv@Base 1.4.0
 _ZN17QgsGrassNewMapset16staticMetaObjectE@Base 1.4.0
 _ZN17QgsGrassNewMapset17projRadioSwitchedEv@Base 1.4.0
 _ZN17QgsGrassNewMapset17setProjectionPageEv@Base 1.4.0
 _ZN17QgsGrassNewMapset17setSelectedRegionEv@Base 1.4.0
 _ZN17QgsGrassNewMapset18newLocationChangedEv@Base 1.4.0
 _ZN17QgsGrassNewMapset18projectionSelectedEv@Base 1.4.0
 _ZN17QgsGrassNewMapset18setGrassProjectionEv@Base 1.4.0
 _ZN17QgsGrassNewMapset21locationRadioSwitchedEv@Base 1.4.0
 _ZN17QgsGrassNewMapset22setGrassRegionDefaultsEv@Base 1.4.0
 _ZN17QgsGrassNewMapset23existingLocationChangedERK7QString@Base 1.4.0
 _ZN17QgsGrassNewMapset2trEPKcS1_@Base 1.4.0
 _ZN17QgsGrassNewMapset5closeEv@Base 1.4.0
 _ZN17QgsGrassNewMapset6acceptEv@Base 1.4.0
 _ZN17QgsGrassNewMapset8mRunningE@Base 1.4.0
 _ZN17QgsGrassNewMapset8setErrorEP6QLabelRK7QString@Base 1.4.0
 _ZN17QgsGrassNewMapset9isRunningEv@Base 1.4.0
 _ZN17QgsGrassNewMapsetC1EP13QgisInterfaceP14QgsGrassPluginP7QWidget6QFlagsIN2Qt10WindowTypeEE@Base 1.4.0
 _ZN17QgsGrassNewMapsetC2EP13QgisInterfaceP14QgsGrassPluginP7QWidget6QFlagsIN2Qt10WindowTypeEE@Base 1.4.0
 _ZN17QgsGrassNewMapsetD0Ev@Base 1.4.0
 _ZN17QgsGrassNewMapsetD1Ev@Base 1.4.0
 _ZN17QgsGrassNewMapsetD2Ev@Base 1.4.0
 _ZN18QgsGrassAttributes10addTextRowEiRK7QString@Base 1.4.0
 _ZN18QgsGrassAttributes10tabChangedEi@Base 1.4.0
 _ZN18QgsGrassAttributes11qt_metacallEN11QMetaObject4CallEiPPv@Base 1.4.0
 _ZN18QgsGrassAttributes11qt_metacastEPKc@Base 1.4.0
 _ZN18QgsGrassAttributes12addAttributeEiRK7QStringS2_S2_@Base 1.4.0
 _ZN18QgsGrassAttributes12resetButtonsEv@Base 1.4.0
 _ZN18QgsGrassAttributes14setRowReadOnlyEP12QTableWidgetib@Base 1.4.0
 _ZN18QgsGrassAttributes15restorePositionEv@Base 1.4.0
 _ZN18QgsGrassAttributes15setCategoryModeEN12QgsGrassEdit7CatModeERK7QString@Base 1.4.0
 _ZN18QgsGrassAttributes16staticMetaObjectE@Base 1.4.0
 _ZN18QgsGrassAttributes16updateAttributesEv@Base 1.4.0
 _ZN18QgsGrassAttributes17columnSizeChangedEiii@Base 1.4.0
 _ZN18QgsGrassAttributes18saveWindowLocationEv@Base 1.4.0
 _ZN18QgsGrassAttributes5clearEv@Base 1.4.0
 _ZN18QgsGrassAttributes6addCatEv@Base 1.4.0
 _ZN18QgsGrassAttributes6addTabERK7QString@Base 1.4.0
 _ZN18QgsGrassAttributes6setCatEiRK7QStringi@Base 1.4.0
 _ZN18QgsGrassAttributes7setLineEi@Base 1.4.0
 _ZN18QgsGrassAttributes8setFieldEii@Base 1.4.0
 _ZN18QgsGrassAttributes9deleteCatEv@Base 1.4.0
 _ZN18QgsGrassAttributesC1EP12QgsGrassEditP16QgsGrassProvideriP7QWidgetPKc6QFlagsIN2Qt10WindowTypeEE@Base 1.4.0
 _ZN18QgsGrassAttributesC2EP12QgsGrassEditP16QgsGrassProvideriP7QWidgetPKc6QFlagsIN2Qt10WindowTypeEE@Base 1.4.0
 _ZN18QgsGrassAttributesD0Ev@Base 1.4.0
 _ZN18QgsGrassAttributesD1Ev@Base 1.4.0
 _ZN18QgsGrassAttributesD2Ev@Base 1.4.0
 _ZN18QgsGrassModuleFile11qt_metacallEN11QMetaObject4CallEiPPv@Base 1.4.0
 _ZN18QgsGrassModuleFile11qt_metacastEPKc@Base 1.4.0
 _ZN18QgsGrassModuleFile16staticMetaObjectE@Base 1.4.0
 _ZN18QgsGrassModuleFile5readyEv@Base 1.4.0
 _ZN18QgsGrassModuleFile6browseEv@Base 1.4.0
 _ZN18QgsGrassModuleFile7optionsEv@Base 1.4.0
 _ZN18QgsGrassModuleFileC1EP14QgsGrassModule7QStringR11QDomElementS4_R8QDomNodeP7QWidget@Base 1.4.0
 _ZN18QgsGrassModuleFileC2EP14QgsGrassModule7QStringR11QDomElementS4_R8QDomNodeP7QWidget@Base 1.4.0
 _ZN18QgsGrassModuleFileD0Ev@Base 1.4.0
 _ZN18QgsGrassModuleFileD1Ev@Base 1.4.0
 _ZN18QgsGrassModuleFileD2Ev@Base 1.4.0
 _ZN18QgsGrassModuleFlag11qt_metacallEN11QMetaObject4CallEiPPv@Base 1.4.0
 _ZN18QgsGrassModuleFlag11qt_metacastEPKc@Base 1.4.0
 _ZN18QgsGrassModuleFlag16staticMetaObjectE@Base 1.4.0
 _ZN18QgsGrassModuleFlag7optionsEv@Base 1.4.0
 _ZN18QgsGrassModuleFlagC1EP14QgsGrassModule7QStringR11QDomElementS4_R8QDomNodeP7QWidget@Base 1.4.0
 _ZN18QgsGrassModuleFlagC2EP14QgsGrassModule7QStringR11QDomElementS4_R8QDomNodeP7QWidget@Base 1.4.0
 _ZN18QgsGrassModuleFlagD0Ev@Base 1.4.0
 _ZN18QgsGrassModuleFlagD1Ev@Base 1.4.0
 _ZN18QgsGrassModuleFlagD2Ev@Base 1.4.0
 _ZN18QgsGrassModuleItem5readyEv@Base 1.4.0
 _ZN18QgsGrassModuleItem6hiddenEv@Base 1.4.0
 _ZN18QgsGrassModuleItem7optionsEv@Base 1.4.0
 _ZN18QgsGrassModuleItemC1EP14QgsGrassModule7QStringR11QDomElementS4_R8QDomNode@Base 1.4.0
 _ZN18QgsGrassModuleItemC2EP14QgsGrassModule7QStringR11QDomElementS4_R8QDomNode@Base 1.4.0
 _ZN18QgsGrassModuleItemD0Ev@Base 1.4.0
 _ZN18QgsGrassModuleItemD1Ev@Base 1.4.0
 _ZN18QgsGrassModuleItemD2Ev@Base 1.4.0
 _ZN18QgsGrassRegionEdit10deactivateEv@Base 1.4.0
 _ZN18QgsGrassRegionEdit15canvasMoveEventEP11QMouseEvent@Base 1.4.0
 _ZN18QgsGrassRegionEdit16canvasPressEventEP11QMouseEvent@Base 1.4.0
 _ZN18QgsGrassRegionEditD0Ev@Base 1.4.0
 _ZN18QgsGrassRegionEditD1Ev@Base 1.4.0
 _ZN19CleanUpGlobalStaticD1Ev@Base 1.4.0
 _ZN19K3ProcessController10addProcessEi@Base 1.4.0
 _ZN19K3ProcessController11addKProcessEP9K3Process@Base 1.4.0
 _ZN19K3ProcessController11qt_metacallEN11QMetaObject4CallEiPPv@Base 1.4.0
 _ZN19K3ProcessController11qt_metacastEPKc@Base 1.4.0
 _ZN19K3ProcessController13resetHandlersEv@Base 1.4.0
 _ZN19K3ProcessController13setupHandlersEv@Base 1.4.0
 _ZN19K3ProcessController14removeKProcessEP9K3Process@Base 1.4.0
 _ZN19K3ProcessController15rescheduleCheckEv@Base 1.4.0
 _ZN19K3ProcessController15unscheduleCheckEv@Base 1.4.0
 _ZN19K3ProcessController16staticMetaObjectE@Base 1.4.0
 _ZN19K3ProcessController17theSigCHLDHandlerEi@Base 1.4.0
 _ZN19K3ProcessController18slotDoHousekeepingEv@Base 1.4.0
 _ZN19K3ProcessController18waitForProcessExitEi@Base 1.4.0
 _ZN19K3ProcessController3refEv@Base 1.4.0
 _ZN19K3ProcessController5derefEv@Base 1.4.0
 _ZN19K3ProcessController7Private10handlerSetE@Base 1.4.0
 _ZN19K3ProcessController7Private19oldChildHandlerDataE@Base 1.4.0
 _ZN19K3ProcessController7Private8instanceE@Base 1.4.0
 _ZN19K3ProcessController7Private8refCountE@Base 1.4.0
 _ZN19K3ProcessController8instanceEv@Base 1.4.0
 _ZN19K3ProcessControllerC1Ev@Base 1.4.0
 _ZN19K3ProcessControllerC2Ev@Base 1.4.0
 _ZN19K3ProcessControllerD0Ev@Base 1.4.0
 _ZN19K3ProcessControllerD1Ev@Base 1.4.0
 _ZN19K3ProcessControllerD2Ev@Base 1.4.0
 _ZN19QgsGrassEditNewLine10deactivateEv@Base 1.4.0
 _ZN19QgsGrassEditNewLine10mouseClickER8QgsPointN2Qt11MouseButtonE@Base 1.4.0
 _ZN19QgsGrassEditNewLine11qt_metacallEN11QMetaObject4CallEiPPv@Base 1.4.0
 _ZN19QgsGrassEditNewLine11qt_metacastEPKc@Base 1.4.0
 _ZN19QgsGrassEditNewLine16staticMetaObjectE@Base 1.4.0
 _ZN19QgsGrassEditNewLine8activateEv@Base 1.4.0
 _ZN19QgsGrassEditNewLine9mouseMoveER8QgsPoint@Base 1.4.0
 _ZN19QgsGrassEditNewLineC1EP12QgsGrassEditb@Base 1.4.0
 _ZN19QgsGrassEditNewLineC2EP12QgsGrassEditb@Base 1.4.0
 _ZN19QgsGrassEditNewLineD0Ev@Base 1.4.0
 _ZN19QgsGrassEditNewLineD1Ev@Base 1.4.0
 _ZN19QgsGrassMapcalcItem11setSelectedEb@Base 1.4.0
 _ZN19QgsGrassMapcalcItem8selectedEv@Base 1.4.0
 _ZN19QgsGrassMapcalcItemC1Ev@Base 1.4.0
 _ZN19QgsGrassMapcalcItemC2Ev@Base 1.4.0
 _ZN19QgsGrassMapcalcItemD0Ev@Base 1.4.0
 _ZN19QgsGrassMapcalcItemD1Ev@Base 1.4.0
 _ZN19QgsGrassMapcalcItemD2Ev@Base 1.4.0
 _ZN19QgsGrassMapcalcView11qt_metacallEN11QMetaObject4CallEiPPv@Base 1.4.0
 _ZN19QgsGrassMapcalcView11qt_metacastEPKc@Base 1.4.0
 _ZN19QgsGrassMapcalcView13keyPressEventEP9QKeyEvent@Base 1.4.0
 _ZN19QgsGrassMapcalcView14mouseMoveEventEP11QMouseEvent@Base 1.4.0
 _ZN19QgsGrassMapcalcView15mousePressEventEP11QMouseEvent@Base 1.4.0
 _ZN19QgsGrassMapcalcView16staticMetaObjectE@Base 1.4.0
 _ZN19QgsGrassMapcalcView17mouseReleaseEventEP11QMouseEvent@Base 1.4.0
 _ZN19QgsGrassMapcalcViewC1EP15QgsGrassMapcalcP7QWidget6QFlagsIN2Qt10WindowTypeEE@Base 1.4.0
 _ZN19QgsGrassMapcalcViewC2EP15QgsGrassMapcalcP7QWidget6QFlagsIN2Qt10WindowTypeEE@Base 1.4.0
 _ZN19QgsGrassMapcalcViewD0Ev@Base 1.4.0
 _ZN19QgsGrassMapcalcViewD1Ev@Base 1.4.0
 _ZN19QgsGrassModuleField11qt_metacallEN11QMetaObject4CallEiPPv@Base 1.4.0
 _ZN19QgsGrassModuleField11qt_metacastEPKc@Base 1.4.0
 _ZN19QgsGrassModuleField12updateFieldsEv@Base 1.4.0
 _ZN19QgsGrassModuleField16staticMetaObjectE@Base 1.4.0
 _ZN19QgsGrassModuleField7optionsEv@Base 1.4.0
 _ZN19QgsGrassModuleFieldC1EP14QgsGrassModuleP29QgsGrassModuleStandardOptions7QStringR11QDomElementS6_R8QDomNodeP7QWidget@Base 1.4.0
 _ZN19QgsGrassModuleFieldC2EP14QgsGrassModuleP29QgsGrassModuleStandardOptions7QStringR11QDomElementS6_R8QDomNodeP7QWidget@Base 1.4.0
 _ZN19QgsGrassModuleFieldD0Ev@Base 1.4.0
 _ZN19QgsGrassModuleFieldD1Ev@Base 1.4.0
 _ZN19QgsGrassModuleFieldD2Ev@Base 1.4.0
 _ZN19QgsGrassModuleInput10currentMapEv@Base 1.4.0
 _ZN19QgsGrassModuleInput11qt_metacallEN11QMetaObject4CallEiPPv@Base 1.4.0
 _ZN19QgsGrassModuleInput11qt_metacastEPKc@Base 1.4.0
 _ZN19QgsGrassModuleInput12currentLayerEv@Base 1.4.0
 _ZN19QgsGrassModuleInput12valueChangedEv@Base 1.4.0
 _ZN19QgsGrassModuleInput13currentFieldsEv@Base 1.4.0
 _ZN19QgsGrassModuleInput16staticMetaObjectE@Base 1.4.0
 _ZN19QgsGrassModuleInput16updateQgisLayersEv@Base 1.4.0
 _ZN19QgsGrassModuleInput5readyEv@Base 1.4.0
 _ZN19QgsGrassModuleInput7changedEi@Base 1.4.0
 _ZN19QgsGrassModuleInput7optionsEv@Base 1.4.0
 _ZN19QgsGrassModuleInput9useRegionEv@Base 1.4.0
 _ZN19QgsGrassModuleInputC1EP14QgsGrassModuleP29QgsGrassModuleStandardOptions7QStringR11QDomElementS6_R8QDomNodeP7QWidget@Base 1.4.0
 _ZN19QgsGrassModuleInputC2EP14QgsGrassModuleP29QgsGrassModuleStandardOptions7QStringR11QDomElementS6_R8QDomNodeP7QWidget@Base 1.4.0
 _ZN19QgsGrassModuleInputD0Ev@Base 1.4.0
 _ZN19QgsGrassModuleInputD1Ev@Base 1.4.0
 _ZN19QgsGrassModuleInputD2Ev@Base 1.4.0
 _ZN19Ui_QgsGrassEditBase13retranslateUiEP11QMainWindow@Base 1.4.0
 _ZN19Ui_QgsGrassEditBase7setupUiEP11QMainWindow@Base 1.4.0
 _ZN20QgsGrassEditMoveLine10mouseClickER8QgsPointN2Qt11MouseButtonE@Base 1.4.0
 _ZN20QgsGrassEditMoveLine11qt_metacallEN11QMetaObject4CallEiPPv@Base 1.4.0
 _ZN20QgsGrassEditMoveLine11qt_metacastEPKc@Base 1.4.0
 _ZN20QgsGrassEditMoveLine16staticMetaObjectE@Base 1.4.0
 _ZN20QgsGrassEditMoveLine9mouseMoveER8QgsPoint@Base 1.4.0
 _ZN20QgsGrassEditMoveLineC1EP12QgsGrassEdit@Base 1.4.0
 _ZN20QgsGrassEditMoveLineC2EP12QgsGrassEdit@Base 1.4.0
 _ZN20QgsGrassEditMoveLineD0Ev@Base 1.4.0
 _ZN20QgsGrassEditMoveLineD1Ev@Base 1.4.0
 _ZN20QgsGrassEditNewPoint10mouseClickER8QgsPointN2Qt11MouseButtonE@Base 1.4.0
 _ZN20QgsGrassEditNewPoint11qt_metacallEN11QMetaObject4CallEiPPv@Base 1.4.0
 _ZN20QgsGrassEditNewPoint11qt_metacastEPKc@Base 1.4.0
 _ZN20QgsGrassEditNewPoint16staticMetaObjectE@Base 1.4.0
 _ZN20QgsGrassEditNewPointC1EP12QgsGrassEditb@Base 1.4.0
 _ZN20QgsGrassEditNewPointC2EP12QgsGrassEditb@Base 1.4.0
 _ZN20QgsGrassEditNewPointD0Ev@Base 1.4.0
 _ZN20QgsGrassEditNewPointD1Ev@Base 1.4.0
 _ZN20QgsGrassModuleOption11addLineEditEv@Base 1.4.0
 _ZN20QgsGrassModuleOption11qt_metacallEN11QMetaObject4CallEiPPv@Base 1.4.0
 _ZN20QgsGrassModuleOption11qt_metacastEPKc@Base 1.4.0
 _ZN20QgsGrassModuleOption12outputExistsEv@Base 1.4.0
 _ZN20QgsGrassModuleOption14removeLineEditEv@Base 1.4.0
 _ZN20QgsGrassModuleOption16staticMetaObjectE@Base 1.4.0
 _ZN20QgsGrassModuleOption5readyEv@Base 1.4.0
 _ZN20QgsGrassModuleOption5valueEv@Base 1.4.0
 _ZN20QgsGrassModuleOption7optionsEv@Base 1.4.0
 _ZN20QgsGrassModuleOptionC1EP14QgsGrassModule7QStringR11QDomElementS4_R8QDomNodeP7QWidget@Base 1.4.0
 _ZN20QgsGrassModuleOptionC2EP14QgsGrassModule7QStringR11QDomElementS4_R8QDomNodeP7QWidget@Base 1.4.0
 _ZN20QgsGrassModuleOptionD0Ev@Base 1.4.0
 _ZN20QgsGrassModuleOptionD1Ev@Base 1.4.0
 _ZN20QgsGrassModuleOptionD2Ev@Base 1.4.0
 _ZN20Ui_QgsGrassToolsBase7setupUiEP7QDialog@Base 1.4.0
 _ZN21QgsGrassEditAddVertex10mouseClickER8QgsPointN2Qt11MouseButtonE@Base 1.4.0
 _ZN21QgsGrassEditAddVertex11qt_metacallEN11QMetaObject4CallEiPPv@Base 1.4.0
 _ZN21QgsGrassEditAddVertex11qt_metacastEPKc@Base 1.4.0
 _ZN21QgsGrassEditAddVertex16staticMetaObjectE@Base 1.4.0
 _ZN21QgsGrassEditAddVertex9mouseMoveER8QgsPoint@Base 1.4.0
 _ZN21QgsGrassEditAddVertexC1EP12QgsGrassEdit@Base 1.4.0
 _ZN21QgsGrassEditAddVertexC2EP12QgsGrassEdit@Base 1.4.0
 _ZN21QgsGrassEditAddVertexD0Ev@Base 1.4.0
 _ZN21QgsGrassEditAddVertexD1Ev@Base 1.4.0
 _ZN21QgsGrassEditSplitLine10mouseClickER8QgsPointN2Qt11MouseButtonE@Base 1.4.0
 _ZN21QgsGrassEditSplitLine11qt_metacallEN11QMetaObject4CallEiPPv@Base 1.4.0
 _ZN21QgsGrassEditSplitLine11qt_metacastEPKc@Base 1.4.0
 _ZN21QgsGrassEditSplitLine16staticMetaObjectE@Base 1.4.0
 _ZN21QgsGrassEditSplitLineC1EP12QgsGrassEdit@Base 1.4.0
 _ZN21QgsGrassEditSplitLineC2EP12QgsGrassEdit@Base 1.4.0
 _ZN21QgsGrassEditSplitLineD0Ev@Base 1.4.0
 _ZN21QgsGrassEditSplitLineD1Ev@Base 1.4.0
 _ZN21QgsGrassElementDialog11qt_metacallEN11QMetaObject4CallEiPPv@Base 1.4.0
 _ZN21QgsGrassElementDialog11qt_metacastEPKc@Base 1.4.0
 _ZN21QgsGrassElementDialog11textChangedEv@Base 1.4.0
 _ZN21QgsGrassElementDialog16staticMetaObjectE@Base 1.4.0
 _ZN21QgsGrassElementDialog7getItemE7QStringS0_S0_S0_S0_Pb@Base 1.4.0
 _ZN21QgsGrassElementDialogC1Ev@Base 1.4.0
 _ZN21QgsGrassElementDialogC2Ev@Base 1.4.0
 _ZN21QgsGrassElementDialogD0Ev@Base 1.4.0
 _ZN21QgsGrassElementDialogD1Ev@Base 1.4.0
 _ZN21QgsGrassElementDialogD2Ev@Base 1.4.0
 _ZN21QgsGrassMapcalcObject10expressionEv@Base 1.4.0
 _ZN21QgsGrassMapcalcObject10tryConnectEP24QgsGrassMapcalcConnectori@Base 1.4.0
 _ZN21QgsGrassMapcalcObject11setFunctionE23QgsGrassMapcalcFunction@Base 1.4.0
 _ZN21QgsGrassMapcalcObject11setSelectedEb@Base 1.4.0
 _ZN21QgsGrassMapcalcObject11socketPointEii@Base 1.4.0
 _ZN21QgsGrassMapcalcObject12setConnectorEiiP24QgsGrassMapcalcConnectori@Base 1.4.0
 _ZN21QgsGrassMapcalcObject4typeEv@Base 1.4.0
 _ZN21QgsGrassMapcalcObject5paintEP8QPainterPK24QStyleOptionGraphicsItemP7QWidget@Base 1.4.0
 _ZN21QgsGrassMapcalcObject8setValueE7QStringS0_@Base 1.4.0
 _ZN21QgsGrassMapcalcObject9resetSizeEv@Base 1.4.0
 _ZN21QgsGrassMapcalcObject9setCenterEii@Base 1.4.0
 _ZN21QgsGrassMapcalcObjectC1Ei@Base 1.4.0
 _ZN21QgsGrassMapcalcObjectC2Ei@Base 1.4.0
 _ZN21QgsGrassMapcalcObjectD0Ev@Base 1.4.0
 _ZN21QgsGrassMapcalcObjectD1Ev@Base 1.4.0
 _ZN21QgsGrassMapcalcObjectD2Ev@Base 1.4.0
 _ZN21QgsGrassModuleOptions10thawOutputEv@Base 1.4.0
 _ZN21QgsGrassModuleOptions10usesRegionEv@Base 1.4.0
 _ZN21QgsGrassModuleOptions11checkOutputEv@Base 1.4.0
 _ZN21QgsGrassModuleOptions11checkRegionEv@Base 1.4.0
 _ZN21QgsGrassModuleOptions11inputRegionEP9Cell_headb@Base 1.4.0
 _ZN21QgsGrassModuleOptions12freezeOutputEv@Base 1.4.0
 _ZN21QgsGrassModuleOptions14requestsRegionEv@Base 1.4.0
 _ZN21QgsGrassModuleOptions5readyEv@Base 1.4.0
 _ZN21QgsGrassModuleOptions6outputEi@Base 1.4.0
 _ZN21QgsGrassModuleOptions9argumentsEv@Base 1.4.0
 _ZN21QgsGrassModuleOptions9flagNamesEv@Base 1.4.0
 _ZN21QgsGrassModuleOptionsC1EP13QgsGrassToolsP14QgsGrassModuleP13QgisInterface@Base 1.4.0
 _ZN21QgsGrassModuleOptionsC2EP13QgsGrassToolsP14QgsGrassModuleP13QgisInterface@Base 1.4.0
 _ZN21QgsGrassModuleOptionsD0Ev@Base 1.4.0
 _ZN21QgsGrassModuleOptionsD1Ev@Base 1.4.0
 _ZN21QgsGrassModuleOptionsD2Ev@Base 1.4.0
 _ZN21Ui_QgsGrassModuleBase13retranslateUiEP7QDialog@Base 1.4.0
 _ZN21Ui_QgsGrassModuleBase7setupUiEP7QDialog@Base 1.4.0
 _ZN21Ui_QgsGrassRegionBase13retranslateUiEP7QDialog@Base 1.4.0
 _ZN21Ui_QgsGrassRegionBase7setupUiEP7QDialog@Base 1.4.0
 _ZN21Ui_QgsGrassSelectBase13retranslateUiEP7QDialog@Base 1.4.0
 _ZN21Ui_QgsGrassSelectBase7setupUiEP7QDialog@Base 1.4.0
 _ZN22QgsGrassEditAttributes10mouseClickER8QgsPointN2Qt11MouseButtonE@Base 1.4.0
 _ZN22QgsGrassEditAttributes11qt_metacallEN11QMetaObject4CallEiPPv@Base 1.4.0
 _ZN22QgsGrassEditAttributes11qt_metacastEPKc@Base 1.4.0
 _ZN22QgsGrassEditAttributes16staticMetaObjectE@Base 1.4.0
 _ZN22QgsGrassEditAttributesC1EP12QgsGrassEdit@Base 1.4.0
 _ZN22QgsGrassEditAttributesC2EP12QgsGrassEdit@Base 1.4.0
 _ZN22QgsGrassEditAttributesD0Ev@Base 1.4.0
 _ZN22QgsGrassEditAttributesD1Ev@Base 1.4.0
 _ZN22QgsGrassEditDeleteLine10mouseClickER8QgsPointN2Qt11MouseButtonE@Base 1.4.0
 _ZN22QgsGrassEditDeleteLine11qt_metacallEN11QMetaObject4CallEiPPv@Base 1.4.0
 _ZN22QgsGrassEditDeleteLine11qt_metacastEPKc@Base 1.4.0
 _ZN22QgsGrassEditDeleteLine16staticMetaObjectE@Base 1.4.0
 _ZN22QgsGrassEditDeleteLineC1EP12QgsGrassEdit@Base 1.4.0
 _ZN22QgsGrassEditDeleteLineC2EP12QgsGrassEdit@Base 1.4.0
 _ZN22QgsGrassEditDeleteLineD0Ev@Base 1.4.0
 _ZN22QgsGrassEditDeleteLineD1Ev@Base 1.4.0
 _ZN22QgsGrassEditMoveVertex10mouseClickER8QgsPointN2Qt11MouseButtonE@Base 1.4.0
 _ZN22QgsGrassEditMoveVertex11qt_metacallEN11QMetaObject4CallEiPPv@Base 1.4.0
 _ZN22QgsGrassEditMoveVertex11qt_metacastEPKc@Base 1.4.0
 _ZN22QgsGrassEditMoveVertex16staticMetaObjectE@Base 1.4.0
 _ZN22QgsGrassEditMoveVertex9mouseMoveER8QgsPoint@Base 1.4.0
 _ZN22QgsGrassEditMoveVertexC1EP12QgsGrassEdit@Base 1.4.0
 _ZN22QgsGrassEditMoveVertexC2EP12QgsGrassEdit@Base 1.4.0
 _ZN22QgsGrassEditMoveVertexD0Ev@Base 1.4.0
 _ZN22QgsGrassEditMoveVertexD1Ev@Base 1.4.0
 _ZN22QgsGrassModuleCheckBox10adjustTextEv@Base 1.4.0
 _ZN22QgsGrassModuleCheckBox10setToolTipERK7QString@Base 1.4.0
 _ZN22QgsGrassModuleCheckBox11qt_metacallEN11QMetaObject4CallEiPPv@Base 1.4.0
 _ZN22QgsGrassModuleCheckBox11qt_metacastEPKc@Base 1.4.0
 _ZN22QgsGrassModuleCheckBox11resizeEventEP12QResizeEvent@Base 1.4.0
 _ZN22QgsGrassModuleCheckBox16staticMetaObjectE@Base 1.4.0
 _ZN22QgsGrassModuleCheckBox7setTextERK7QString@Base 1.4.0
 _ZN22QgsGrassModuleCheckBoxC1ERK7QStringP7QWidget@Base 1.4.0
 _ZN22QgsGrassModuleCheckBoxC2ERK7QStringP7QWidget@Base 1.4.0
 _ZN22QgsGrassModuleCheckBoxD0Ev@Base 1.4.0
 _ZN22QgsGrassModuleCheckBoxD1Ev@Base 1.4.0
 _ZN22QgsGrassModuleCheckBoxD2Ev@Base 1.4.0
 _ZN22Ui_QgsGrassMapcalcBase7setupUiEP11QMainWindow@Base 1.4.0
 _ZN23QgsGrassMapcalcFunctionC1ERKS_@Base 1.4.0
 _ZN23QgsGrassMapcalcFunctionC1Ei7QStringiS0_S0_S0_b@Base 1.4.0
 _ZN23QgsGrassMapcalcFunctionC2Ei7QStringiS0_S0_S0_b@Base 1.4.0
 _ZN23QgsGrassMapcalcFunctionD1Ev@Base 1.4.0
 _ZN23QgsGrassModuleGdalInput11qt_metacallEN11QMetaObject4CallEiPPv@Base 1.4.0
 _ZN23QgsGrassModuleGdalInput11qt_metacastEPKc@Base 1.4.0
 _ZN23QgsGrassModuleGdalInput16staticMetaObjectE@Base 1.4.0
 _ZN23QgsGrassModuleGdalInput16updateQgisLayersEv@Base 1.4.0
 _ZN23QgsGrassModuleGdalInput5readyEv@Base 1.4.0
 _ZN23QgsGrassModuleGdalInput7optionsEv@Base 1.4.0
 _ZN23QgsGrassModuleGdalInputC1EP14QgsGrassModulei7QStringR11QDomElementS4_R8QDomNodeP7QWidget@Base 1.4.0
 _ZN23QgsGrassModuleGdalInputC2EP14QgsGrassModulei7QStringR11QDomElementS4_R8QDomNodeP7QWidget@Base 1.4.0
 _ZN23QgsGrassModuleGdalInputD0Ev@Base 1.4.0
 _ZN23QgsGrassModuleGdalInputD1Ev@Base 1.4.0
 _ZN23QgsGrassModuleGdalInputD2Ev@Base 1.4.0
 _ZN23QgsGrassModuleSelection11qt_metacallEN11QMetaObject4CallEiPPv@Base 1.4.0
 _ZN23QgsGrassModuleSelection11qt_metacastEPKc@Base 1.4.0
 _ZN23QgsGrassModuleSelection15updateSelectionEv@Base 1.4.0
 _ZN23QgsGrassModuleSelection16staticMetaObjectE@Base 1.4.0
 _ZN23QgsGrassModuleSelection7optionsEv@Base 1.4.0
 _ZN23QgsGrassModuleSelectionC1EP14QgsGrassModuleP29QgsGrassModuleStandardOptions7QStringR11QDomElementS6_R8QDomNodeP7QWidget@Base 1.4.0
 _ZN23QgsGrassModuleSelectionC2EP14QgsGrassModuleP29QgsGrassModuleStandardOptions7QStringR11QDomElementS6_R8QDomNodeP7QWidget@Base 1.4.0
 _ZN23QgsGrassModuleSelectionD0Ev@Base 1.4.0
 _ZN23QgsGrassModuleSelectionD1Ev@Base 1.4.0
 _ZN23QgsGrassModuleSelectionD2Ev@Base 1.4.0
 _ZN24QgsGrassEditDeleteVertex10mouseClickER8QgsPointN2Qt11MouseButtonE@Base 1.4.0
 _ZN24QgsGrassEditDeleteVertex11qt_metacallEN11QMetaObject4CallEiPPv@Base 1.4.0
 _ZN24QgsGrassEditDeleteVertex11qt_metacastEPKc@Base 1.4.0
 _ZN24QgsGrassEditDeleteVertex16staticMetaObjectE@Base 1.4.0
 _ZN24QgsGrassEditDeleteVertexC1EP12QgsGrassEdit@Base 1.4.0
 _ZN24QgsGrassEditDeleteVertexC2EP12QgsGrassEdit@Base 1.4.0
 _ZN24QgsGrassEditDeleteVertexD0Ev@Base 1.4.0
 _ZN24QgsGrassEditDeleteVertexD1Ev@Base 1.4.0
 _ZN24QgsGrassMapcalcConnector10expressionEv@Base 1.4.0
 _ZN24QgsGrassMapcalcConnector11selectedEndEv@Base 1.4.0
 _ZN24QgsGrassMapcalcConnector11setSelectedEb@Base 1.4.0
 _ZN24QgsGrassMapcalcConnector13tryConnectEndEi@Base 1.4.0
 _ZN24QgsGrassMapcalcConnector5paintEP8QPainterPK24QStyleOptionGraphicsItemP7QWidget@Base 1.4.0
 _ZN24QgsGrassMapcalcConnector5pointEi@Base 1.4.0
 _ZN24QgsGrassMapcalcConnector6objectEi@Base 1.4.0
 _ZN24QgsGrassMapcalcConnector7repaintEv@Base 1.4.0
 _ZN24QgsGrassMapcalcConnector8setPointEi6QPoint@Base 1.4.0
 _ZN24QgsGrassMapcalcConnector9connectedEi@Base 1.4.0
 _ZN24QgsGrassMapcalcConnector9selectEndE6QPoint@Base 1.4.0
 _ZN24QgsGrassMapcalcConnector9setSocketEiP21QgsGrassMapcalcObjectii@Base 1.4.0
 _ZN24QgsGrassMapcalcConnectorC1EP14QGraphicsScene@Base 1.4.0
 _ZN24QgsGrassMapcalcConnectorC2EP14QGraphicsScene@Base 1.4.0
 _ZN24QgsGrassMapcalcConnectorD0Ev@Base 1.4.0
 _ZN24QgsGrassMapcalcConnectorD1Ev@Base 1.4.0
 _ZN24QgsGrassMapcalcConnectorD2Ev@Base 1.4.0
 _ZN24Ui_QgsGrassNewMapsetBase13retranslateUiEP7QWizard@Base 1.4.0
 _ZN24Ui_QgsGrassNewMapsetBase7setupUiEP7QWizard@Base 1.4.0
 _ZN25Ui_QgsGrassAttributesBase13retranslateUiEP7QDialog@Base 1.4.0
 _ZN25Ui_QgsGrassAttributesBase7setupUiEP7QDialog@Base 1.4.0
 _ZN26QgsGrassAttributesKeyPress11eventFilterEP7QObjectP6QEvent@Base 1.4.0
 _ZN26QgsGrassAttributesKeyPress11qt_metacallEN11QMetaObject4CallEiPPv@Base 1.4.0
 _ZN26QgsGrassAttributesKeyPress11qt_metacastEPKc@Base 1.4.0
 _ZN26QgsGrassAttributesKeyPress16staticMetaObjectE@Base 1.4.0
 _ZN26QgsGrassAttributesKeyPressC1EP12QTableWidget@Base 1.4.0
 _ZN26QgsGrassAttributesKeyPressC2EP12QTableWidget@Base 1.4.0
 _ZN26QgsGrassAttributesKeyPressD0Ev@Base 1.4.0
 _ZN26QgsGrassAttributesKeyPressD1Ev@Base 1.4.0
 _ZN26QgsGrassAttributesKeyPressD2Ev@Base 1.4.0
 _ZN26QgsGrassModuleGroupBoxItem11adjustTitleEv@Base 1.4.0
 _ZN26QgsGrassModuleGroupBoxItem11qt_metacallEN11QMetaObject4CallEiPPv@Base 1.4.0
 _ZN26QgsGrassModuleGroupBoxItem11qt_metacastEPKc@Base 1.4.0
 _ZN26QgsGrassModuleGroupBoxItem11resizeEventEP12QResizeEvent@Base 1.4.0
 _ZN26QgsGrassModuleGroupBoxItem16staticMetaObjectE@Base 1.4.0
 _ZN26QgsGrassModuleGroupBoxItemC1EP14QgsGrassModule7QStringR11QDomElementS4_R8QDomNodeP7QWidget@Base 1.4.0
 _ZN26QgsGrassModuleGroupBoxItemC2EP14QgsGrassModule7QStringR11QDomElementS4_R8QDomNodeP7QWidget@Base 1.4.0
 _ZN26QgsGrassModuleGroupBoxItemD0Ev@Base 1.4.0
 _ZN26QgsGrassModuleGroupBoxItemD1Ev@Base 1.4.0
 _ZN26QgsGrassModuleGroupBoxItemD2Ev@Base 1.4.0
 _ZN29QgsGrassModuleStandardOptions10thawOutputEv@Base 1.4.0
 _ZN29QgsGrassModuleStandardOptions10usesRegionEv@Base 1.4.0
 _ZN29QgsGrassModuleStandardOptions11checkOutputEv@Base 1.4.0
 _ZN29QgsGrassModuleStandardOptions11checkRegionEv@Base 1.4.0
 _ZN29QgsGrassModuleStandardOptions11inputRegionEP9Cell_headb@Base 1.4.0
 _ZN29QgsGrassModuleStandardOptions12freezeOutputEv@Base 1.4.0
 _ZN29QgsGrassModuleStandardOptions14requestsRegionEv@Base 1.4.0
 _ZN29QgsGrassModuleStandardOptions4itemE7QString@Base 1.4.0
 _ZN29QgsGrassModuleStandardOptions5readyEv@Base 1.4.0
 _ZN29QgsGrassModuleStandardOptions6outputEi@Base 1.4.0
 _ZN29QgsGrassModuleStandardOptions9argumentsEv@Base 1.4.0
 _ZN29QgsGrassModuleStandardOptions9flagNamesEv@Base 1.4.0
 _ZN29QgsGrassModuleStandardOptionsC1EP13QgsGrassToolsP14QgsGrassModuleP13QgisInterface7QString11QDomElementP7QWidget6QFlagsIN2Qt10WindowTypeEE@Base 1.4.0
 _ZN29QgsGrassModuleStandardOptionsC2EP13QgsGrassToolsP14QgsGrassModuleP13QgisInterface7QString11QDomElementP7QWidget6QFlagsIN2Qt10WindowTypeEE@Base 1.4.0
 _ZN29QgsGrassModuleStandardOptionsD0Ev@Base 1.4.0
 _ZN29QgsGrassModuleStandardOptionsD1Ev@Base 1.4.0
 _ZN29QgsGrassModuleStandardOptionsD2Ev@Base 1.4.0
 _ZN38QgsGrassEditAttributeTableItemDelegateC1EP7QObject@Base 1.4.0
 _ZN38QgsGrassEditAttributeTableItemDelegateC2EP7QObject@Base 1.4.0
 _ZN38QgsGrassEditAttributeTableItemDelegateD0Ev@Base 1.4.0
 _ZN38QgsGrassEditAttributeTableItemDelegateD1Ev@Base 1.4.0
 _ZN47qCleanupResources_qgsgrass_plugin__dest_class__D1Ev@Base 1.4.0
 _ZN4KPty10closeSlaveEv@Base 1.4.0
 _ZN4KPty10setWinSizeEii@Base 1.4.0
 _ZN4KPty4openEv@Base 1.4.0
 _ZN4KPty5closeEv@Base 1.4.0
 _ZN4KPty5loginEPKcS1_@Base 1.4.0
 _ZN4KPty6logoutEv@Base 1.4.0
 _ZN4KPty7setCTtyEv@Base 1.4.0
 _ZN4KPty7setEchoEb@Base 1.4.0
 _ZN4KPty9tcSetAttrEP7termios@Base 1.4.0
 _ZN4KPtyC1EP11KPtyPrivate@Base 1.4.0
 _ZN4KPtyC1Ev@Base 1.4.0
 _ZN4KPtyC2EP11KPtyPrivate@Base 1.4.0
 _ZN4KPtyC2Ev@Base 1.4.0
 _ZN4KPtyD1Ev@Base 1.4.0
 _ZN4KPtyD2Ev@Base 1.4.0
 _ZN4QDir4homeEv@Base 1.4.0
 _ZN4QMapI7QStringS0_E8freeDataEP8QMapData@Base 1.4.0
 _ZN4QMapIi8QVariantE8freeDataEP8QMapData@Base 1.4.0
 _ZN4QMapIi8QgsFieldE8freeDataEP8QMapData@Base 1.4.0
 _ZN5QHashI7QStringPN7Konsole18KeyboardTranslatorEE13duplicateNodeEPN9QHashData4NodeEPv@Base 1.4.0
 _ZN5QHashI7QStringPN7Konsole18KeyboardTranslatorEE6removeERKS0_@Base 1.4.0
 _ZN5QHashI7QStringPN7Konsole18KeyboardTranslatorEE8freeDataEP9QHashData@Base 1.4.0
 _ZN5QHashIPN7Konsole7SessionEbE13duplicateNodeEPN9QHashData4NodeEPv@Base 1.4.0
 _ZN5QHashIPN7Konsole7SessionEbE8freeDataEP9QHashData@Base 1.4.0
 _ZN5QHashIPN7Konsole7SessionEbED1Ev@Base 1.4.0
 _ZN5QHashIi7QStringE13detach_helperEv@Base 1.4.0
 _ZN5QHashIi7QStringE13duplicateNodeEPN9QHashData4NodeEPv@Base 1.4.0
 _ZN5QHashIi7QStringE8freeDataEP9QHashData@Base 1.4.0
 _ZN5QHashIi7QStringED1Ev@Base 1.4.0
 _ZN5QHashIiN7Konsole18KeyboardTranslator5EntryEE13duplicateNodeEPN9QHashData4NodeEPv@Base 1.4.0
 _ZN5QHashIiN7Konsole18KeyboardTranslator5EntryEE6removeERKi@Base 1.4.0
 _ZN5QHashIiN7Konsole18KeyboardTranslator5EntryEE8freeDataEP9QHashData@Base 1.4.0
 _ZN5QHashIiPN7Konsole6Filter7HotSpotEE13detach_helperEv@Base 1.4.0
 _ZN5QHashIiPN7Konsole6Filter7HotSpotEE13duplicateNodeEPN9QHashData4NodeEPv@Base 1.4.0
 _ZN5QHashIiPN7Konsole6Filter7HotSpotEE8freeDataEP9QHashData@Base 1.4.0
 _ZN5QHashIimE13duplicateNodeEPN9QHashData4NodeEPv@Base 1.4.0
 _ZN5QHashIimE8freeDataEP9QHashData@Base 1.4.0
 _ZN5QHashIimED1Ev@Base 1.4.0
 _ZN5QHashItPtE13duplicateNodeEPN9QHashData4NodeEPv@Base 1.4.0
 _ZN5QHashItPtE8freeDataEP9QHashData@Base 1.4.0
 _ZN5QHashItPtED1Ev@Base 1.4.0
 _ZN5QListI10QByteArrayE13detach_helperEv@Base 1.4.0
 _ZN5QListI10QByteArrayE4freeEPN9QListData4DataE@Base 1.4.0
 _ZN5QListI10QByteArrayE6appendERKS0_@Base 1.4.0
 _ZN5QListI10QByteArrayED1Ev@Base 1.4.0
 _ZN5QListI11QModelIndexE13detach_helperEv@Base 1.4.0
 _ZN5QListI11QModelIndexE4freeEPN9QListData4DataE@Base 1.4.0
 _ZN5QListI11QModelIndexED1Ev@Base 1.4.0
 _ZN5QListI7QStringE13detach_helperEv@Base 1.4.0
 _ZN5QListI7QStringE4freeEPN9QListData4DataE@Base 1.4.0
 _ZN5QListI7QStringE5eraseENS1_8iteratorE@Base 1.4.0
 _ZN5QListI7QStringE6appendERKS0_@Base 1.4.0
 _ZN5QListI7QStringE9takeFirstEv@Base 1.4.0
 _ZN5QListI7QStringED1Ev@Base 1.4.0
 _ZN5QListI7QStringEixEi@Base 1.4.0
 _ZN5QListIN7Konsole18KeyboardTranslator5EntryEE13detach_helperEv@Base 1.4.0
 _ZN5QListIN7Konsole18KeyboardTranslator5EntryEE4freeEPN9QListData4DataE@Base 1.4.0
 _ZN5QListIN7Konsole18KeyboardTranslator5EntryEE6appendERKS2_@Base 1.4.0
 _ZN5QListIN7Konsole18KeyboardTranslator5EntryEED1Ev@Base 1.4.0
 _ZN5QListIN7Konsole24KeyboardTranslatorReader5TokenEE4freeEPN9QListData4DataE@Base 1.4.0
 _ZN5QListIN7Konsole24KeyboardTranslatorReader5TokenEE6appendERKS2_@Base 1.4.0
 _ZN5QListIN7Konsole24KeyboardTranslatorReader5TokenEED1Ev@Base 1.4.0
 _ZN5QListIN7Konsole3Pty7SendJobEE4freeEPN9QListData4DataE@Base 1.4.0
 _ZN5QListIN7Konsole3Pty7SendJobEE5eraseENS3_8iteratorE@Base 1.4.0
 _ZN5QListIN7Konsole3Pty7SendJobEED1Ev@Base 1.4.0
 _ZN5QListIP13QGraphicsItemED1Ev@Base 1.4.0
 _ZN5QListIP13QStandardItemED1Ev@Base 1.4.0
 _ZN5QListIP7QActionE13detach_helperEv@Base 1.4.0
 _ZN5QListIP7QActionE6appendERKS1_@Base 1.4.0
 _ZN5QListIP7QActionED1Ev@Base 1.4.0
 _ZN5QListIP9K3ProcessED1Ev@Base 1.4.0
 _ZN5QListIPN7Konsole12ScreenWindowEE13detach_helperEv@Base 1.4.0
 _ZN5QListIPN7Konsole12ScreenWindowEED1Ev@Base 1.4.0
 _ZN5QListIPN7Konsole15TerminalDisplayEE13detach_helperEv@Base 1.4.0
 _ZN5QListIPN7Konsole15TerminalDisplayEED1Ev@Base 1.4.0
 _ZN5QListIPN7Konsole18KeyboardTranslatorEED1Ev@Base 1.4.0
 _ZN5QListIPN7Konsole6Filter7HotSpotEE13detach_helperEv@Base 1.4.0
 _ZN5QListIPN7Konsole6Filter7HotSpotEE6appendERKS3_@Base 1.4.0
 _ZN5QListIPN7Konsole6Filter7HotSpotEED1Ev@Base 1.4.0
 _ZN5QListIPN7Konsole6FilterEE13detach_helperEv@Base 1.4.0
 _ZN5QListIPN7Konsole6FilterEED1Ev@Base 1.4.0
 _ZN5QListIPN7Konsole6FilterEED2Ev@Base 1.4.0
 _ZN5QListIPN7Konsole7SessionEE13detach_helperEv@Base 1.4.0
 _ZN5QListIPN7Konsole7SessionEE6appendERKS2_@Base 1.4.0
 _ZN5QListIPN7Konsole7SessionEED1Ev@Base 1.4.0
 _ZN5QListIiE13detach_helperEv@Base 1.4.0
 _ZN5QListIiED1Ev@Base 1.4.0
 _ZN6QDebugC1E9QtMsgType@Base 1.4.0
 _ZN6QDebugD1Ev@Base 1.4.0
 _ZN6QDebuglsEPKc@Base 1.4.0
 _ZN6QDebuglsERK10QByteArray@Base 1.4.0
 _ZN6QDebuglsERK7QString@Base 1.4.0
 _ZN7Konsole10BlockArray14decreaseBufferEm@Base 1.4.0
 _ZN7Konsole10BlockArray14increaseBufferEv@Base 1.4.0
 _ZN7Konsole10BlockArray14setHistorySizeEm@Base 1.4.0
 _ZN7Konsole10BlockArray2atEm@Base 1.4.0
 _ZN7Konsole10BlockArray5unmapEv@Base 1.4.0
 _ZN7Konsole10BlockArray6appendEPNS_5BlockE@Base 1.4.0
 _ZN7Konsole10BlockArray7setSizeEm@Base 1.4.0
 _ZN7Konsole10BlockArray8newBlockEv@Base 1.4.0
 _ZN7Konsole10BlockArrayC1Ev@Base 1.4.0
 _ZN7Konsole10BlockArrayC2Ev@Base 1.4.0
 _ZN7Konsole10BlockArrayD1Ev@Base 1.4.0
 _ZN7Konsole10BlockArrayD2Ev@Base 1.4.0
 _ZN7Konsole11FilterChain12removeFilterEPNS_6FilterE@Base 1.4.0
 _ZN7Konsole11FilterChain14containsFilterEPNS_6FilterE@Base 1.4.0
 _ZN7Konsole11FilterChain5clearEv@Base 1.4.0
 _ZN7Konsole11FilterChain5resetEv@Base 1.4.0
 _ZN7Konsole11FilterChain7processEv@Base 1.4.0
 _ZN7Konsole11FilterChain9addFilterEPNS_6FilterE@Base 1.4.0
 _ZN7Konsole11FilterChain9setBufferEPK7QStringPK5QListIiE@Base 1.4.0
 _ZN7Konsole11FilterChainD0Ev@Base 1.4.0
 _ZN7Konsole11FilterChainD1Ev@Base 1.4.0
 _ZN7Konsole11FilterChainD2Ev@Base 1.4.0
 _ZN7Konsole11HTMLDecoder10decodeLineEPKNS_9CharacterEih@Base 1.4.0
 _ZN7Konsole11HTMLDecoder13setColorTableEPKNS_10ColorEntryE@Base 1.4.0
 _ZN7Konsole11HTMLDecoder3endEv@Base 1.4.0
 _ZN7Konsole11HTMLDecoder5beginEP11QTextStream@Base 1.4.0
 _ZN7Konsole11HTMLDecoder8openSpanER7QStringRKS1_@Base 1.4.0
 _ZN7Konsole11HTMLDecoder9closeSpanER7QString@Base 1.4.0
 _ZN7Konsole11HTMLDecoderC1Ev@Base 1.4.0
 _ZN7Konsole11HTMLDecoderC2Ev@Base 1.4.0
 _ZN7Konsole11HTMLDecoderD0Ev@Base 1.4.0
 _ZN7Konsole11HTMLDecoderD1Ev@Base 1.4.0
 _ZN7Konsole11HistoryFile3addEPKhi@Base 1.4.0
 _ZN7Konsole11HistoryFile3getEPhii@Base 1.4.0
 _ZN7Konsole11HistoryFile3lenEv@Base 1.4.0
 _ZN7Konsole11HistoryFile3mapEv@Base 1.4.0
 _ZN7Konsole11HistoryFile5unmapEv@Base 1.4.0
 _ZN7Konsole11HistoryFile8isMappedEv@Base 1.4.0
 _ZN7Konsole11HistoryFileC1Ev@Base 1.4.0
 _ZN7Konsole11HistoryFileC2Ev@Base 1.4.0
 _ZN7Konsole11HistoryFileD0Ev@Base 1.4.0
 _ZN7Konsole11HistoryFileD1Ev@Base 1.4.0
 _ZN7Konsole11HistoryFileD2Ev@Base 1.4.0
 _ZN7Konsole11HistoryTypeC1Ev@Base 1.4.0
 _ZN7Konsole11HistoryTypeC2Ev@Base 1.4.0
 _ZN7Konsole11HistoryTypeD0Ev@Base 1.4.0
 _ZN7Konsole11HistoryTypeD1Ev@Base 1.4.0
 _ZN7Konsole11HistoryTypeD2Ev@Base 1.4.0
 _ZN7Konsole12FilterObject11qt_metacallEN11QMetaObject4CallEiPPv@Base 1.4.0
 _ZN7Konsole12FilterObject11qt_metacastEPKc@Base 1.4.0
 _ZN7Konsole12FilterObject16staticMetaObjectE@Base 1.4.0
 _ZN7Konsole12FilterObject9activatedEv@Base 1.4.0
 _ZN7Konsole12FilterObjectD0Ev@Base 1.4.0
 _ZN7Konsole12FilterObjectD1Ev@Base 1.4.0
 _ZN7Konsole12RegExpFilter10newHotSpotEiiii@Base 1.4.0
 _ZN7Konsole12RegExpFilter7HotSpot16setCapturedTextsERK11QStringList@Base 1.4.0
 _ZN7Konsole12RegExpFilter7HotSpot8activateEP7QObject@Base 1.4.0
 _ZN7Konsole12RegExpFilter7HotSpotC1Eiiii@Base 1.4.0
 _ZN7Konsole12RegExpFilter7HotSpotC2Eiiii@Base 1.4.0
 _ZN7Konsole12RegExpFilter7HotSpotD0Ev@Base 1.4.0
 _ZN7Konsole12RegExpFilter7HotSpotD1Ev@Base 1.4.0
 _ZN7Konsole12RegExpFilter7HotSpotD2Ev@Base 1.4.0
 _ZN7Konsole12RegExpFilter7processEv@Base 1.4.0
 _ZN7Konsole12RegExpFilter9setRegExpERK7QRegExp@Base 1.4.0
 _ZN7Konsole12RegExpFilterC1Ev@Base 1.4.0
 _ZN7Konsole12RegExpFilterC2Ev@Base 1.4.0
 _ZN7Konsole12RegExpFilterD0Ev@Base 1.4.0
 _ZN7Konsole12RegExpFilterD1Ev@Base 1.4.0
 _ZN7Konsole12RegExpFilterD2Ev@Base 1.4.0
 _ZN7Konsole12ScreenWindow10isSelectedEii@Base 1.4.0
 _ZN7Konsole12ScreenWindow11qt_metacallEN11QMetaObject4CallEiPPv@Base 1.4.0
 _ZN7Konsole12ScreenWindow11qt_metacastEPKc@Base 1.4.0
 _ZN7Konsole12ScreenWindow13outputChangedEv@Base 1.4.0
 _ZN7Konsole12ScreenWindow14clearSelectionEv@Base 1.4.0
 _ZN7Konsole12ScreenWindow14fillUnusedAreaEv@Base 1.4.0
 _ZN7Konsole12ScreenWindow14setTrackOutputEb@Base 1.4.0
 _ZN7Konsole12ScreenWindow14setWindowLinesEi@Base 1.4.0
 _ZN7Konsole12ScreenWindow15getSelectionEndERiS1_@Base 1.4.0
 _ZN7Konsole12ScreenWindow15setSelectionEndEii@Base 1.4.0
 _ZN7Konsole12ScreenWindow16resetScrollCountEv@Base 1.4.0
 _ZN7Konsole12ScreenWindow16selectionChangedEv@Base 1.4.0
 _ZN7Konsole12ScreenWindow16staticMetaObjectE@Base 1.4.0
 _ZN7Konsole12ScreenWindow17getLinePropertiesEv@Base 1.4.0
 _ZN7Konsole12ScreenWindow17getSelectionStartERiS1_@Base 1.4.0
 _ZN7Konsole12ScreenWindow17setSelectionStartEiib@Base 1.4.0
 _ZN7Konsole12ScreenWindow19notifyOutputChangedEv@Base 1.4.0
 _ZN7Konsole12ScreenWindow8getImageEv@Base 1.4.0
 _ZN7Konsole12ScreenWindow8scrollByENS0_18RelativeScrollModeEi@Base 1.4.0
 _ZN7Konsole12ScreenWindow8scrollToEi@Base 1.4.0
 _ZN7Konsole12ScreenWindow8scrolledEi@Base 1.4.0
 _ZN7Konsole12ScreenWindow9setScreenEPNS_6ScreenE@Base 1.4.0
 _ZN7Konsole12ScreenWindowC1EP7QObject@Base 1.4.0
 _ZN7Konsole12ScreenWindowC2EP7QObject@Base 1.4.0
 _ZN7Konsole12ScreenWindowD0Ev@Base 1.4.0
 _ZN7Konsole12ScreenWindowD1Ev@Base 1.4.0
 _ZN7Konsole12ScreenWindowD2Ev@Base 1.4.0
 _ZN7Konsole12SessionGroup10addSessionEPNS_7SessionE@Base 1.4.0
 _ZN7Konsole12SessionGroup10connectAllEb@Base 1.4.0
 _ZN7Konsole12SessionGroup11connectPairEPNS_7SessionES2_@Base 1.4.0
 _ZN7Konsole12SessionGroup11qt_metacallEN11QMetaObject4CallEiPPv@Base 1.4.0
 _ZN7Konsole12SessionGroup11qt_metacastEPKc@Base 1.4.0
 _ZN7Konsole12SessionGroup13removeSessionEPNS_7SessionE@Base 1.4.0
 _ZN7Konsole12SessionGroup13setMasterModeEi@Base 1.4.0
 _ZN7Konsole12SessionGroup14disconnectPairEPNS_7SessionES2_@Base 1.4.0
 _ZN7Konsole12SessionGroup15setMasterStatusEPNS_7SessionEb@Base 1.4.0
 _ZN7Konsole12SessionGroup16staticMetaObjectE@Base 1.4.0
 _ZN7Konsole12SessionGroupC1Ev@Base 1.4.0
 _ZN7Konsole12SessionGroupC2Ev@Base 1.4.0
 _ZN7Konsole12SessionGroupD0Ev@Base 1.4.0
 _ZN7Konsole12SessionGroupD1Ev@Base 1.4.0
 _ZN7Konsole12SessionGroupD2Ev@Base 1.4.0
 _ZN7Konsole12ShellCommand6expandERK11QStringList@Base 1.4.0
 _ZN7Konsole12ShellCommand6expandERK7QString@Base 1.4.0
 _ZN7Konsole12ShellCommandC1ERK7QString@Base 1.4.0
 _ZN7Konsole12ShellCommandC1ERK7QStringRK11QStringList@Base 1.4.0
 _ZN7Konsole12ShellCommandC2ERK7QString@Base 1.4.0
 _ZN7Konsole12ShellCommandC2ERK7QStringRK11QStringList@Base 1.4.0
 _ZN7Konsole13HistoryScroll14addCellsVectorERK7QVectorINS_9CharacterEE@Base 1.4.0
 _ZN7Konsole13HistoryScroll9hasScrollEv@Base 1.4.0
 _ZN7Konsole13HistoryScrollC1EPNS_11HistoryTypeE@Base 1.4.0
 _ZN7Konsole13HistoryScrollC2EPNS_11HistoryTypeE@Base 1.4.0
 _ZN7Konsole13HistoryScrollD0Ev@Base 1.4.0
 _ZN7Konsole13HistoryScrollD1Ev@Base 1.4.0
 _ZN7Konsole13HistoryScrollD2Ev@Base 1.4.0
 _ZN7Konsole14CharacterColorC1Ehi@Base 1.4.0
 _ZN7Konsole14Vt102Emulation10resetModesEv@Base 1.4.0
 _ZN7Konsole14Vt102Emulation10resetTokenEv@Base 1.4.0
 _ZN7Konsole14Vt102Emulation10saveCursorEv@Base 1.4.0
 _ZN7Konsole14Vt102Emulation10sendStringEPKci@Base 1.4.0
 _ZN7Konsole14Vt102Emulation10setCharsetEii@Base 1.4.0
 _ZN7Konsole14Vt102Emulation10setMarginsEii@Base 1.4.0
 _ZN7Konsole14Vt102Emulation10useCharsetEi@Base 1.4.0
 _ZN7Konsole14Vt102Emulation11addArgumentEv@Base 1.4.0
 _ZN7Konsole14Vt102Emulation11pushToTokenEi@Base 1.4.0
 _ZN7Konsole14Vt102Emulation11qt_metacallEN11QMetaObject4CallEiPPv@Base 1.4.0
 _ZN7Konsole14Vt102Emulation11qt_metacastEPKc@Base 1.4.0
 _ZN7Konsole14Vt102Emulation11receiveCharEi@Base 1.4.0
 _ZN7Konsole14Vt102Emulation11restoreModeEi@Base 1.4.0
 _ZN7Konsole14Vt102Emulation11updateTitleEv@Base 1.4.0
 _ZN7Konsole14Vt102Emulation12applyCharsetEt@Base 1.4.0
 _ZN7Konsole14Vt102Emulation12reportStatusEv@Base 1.4.0
 _ZN7Konsole14Vt102Emulation12resetCharsetEi@Base 1.4.0
 _ZN7Konsole14Vt102Emulation12sendKeyEventEP9QKeyEvent@Base 1.4.0
 _ZN7Konsole14Vt102Emulation13initTokenizerEv@Base 1.4.0
 _ZN7Konsole14Vt102Emulation13restoreCursorEv@Base 1.4.0
 _ZN7Konsole14Vt102Emulation14sendMouseEventEiiii@Base 1.4.0
 _ZN7Konsole14Vt102Emulation16ReportErrorTokenEv@Base 1.4.0
 _ZN7Konsole14Vt102Emulation16reportAnswerBackEv@Base 1.4.0
 _ZN7Konsole14Vt102Emulation16setAndUseCharsetEii@Base 1.4.0
 _ZN7Konsole14Vt102Emulation16staticMetaObjectE@Base 1.4.0
 _ZN7Konsole14Vt102Emulation17clearEntireScreenEv@Base 1.4.0
 _ZN7Konsole14Vt102Emulation17setDefaultMarginsEv@Base 1.4.0
 _ZN7Konsole14Vt102Emulation18reportTerminalTypeEv@Base 1.4.0
 _ZN7Konsole14Vt102Emulation18scan_buffer_reportEv@Base 1.4.0
 _ZN7Konsole14Vt102Emulation19reportTerminalParmsEi@Base 1.4.0
 _ZN7Konsole14Vt102Emulation20reportCursorPositionEv@Base 1.4.0
 _ZN7Konsole14Vt102Emulation24clearScreenAndSetColumnsEi@Base 1.4.0
 _ZN7Konsole14Vt102Emulation25reportSecondaryAttributesEv@Base 1.4.0
 _ZN7Konsole14Vt102Emulation3tauEiii@Base 1.4.0
 _ZN7Konsole14Vt102Emulation5resetEv@Base 1.4.0
 _ZN7Konsole14Vt102Emulation7getModeEi@Base 1.4.0
 _ZN7Konsole14Vt102Emulation7setModeEi@Base 1.4.0
 _ZN7Konsole14Vt102Emulation8addDigitEi@Base 1.4.0
 _ZN7Konsole14Vt102Emulation8saveModeEi@Base 1.4.0
 _ZN7Konsole14Vt102Emulation8sendTextERK7QString@Base 1.4.0
 _ZN7Konsole14Vt102Emulation9XtermHackEv@Base 1.4.0
 _ZN7Konsole14Vt102Emulation9resetModeEi@Base 1.4.0
 _ZN7Konsole14Vt102EmulationC1Ev@Base 1.4.0
 _ZN7Konsole14Vt102EmulationC2Ev@Base 1.4.0
 _ZN7Konsole14Vt102EmulationD0Ev@Base 1.4.0
 _ZN7Konsole14Vt102EmulationD1Ev@Base 1.4.0
 _ZN7Konsole14Vt102EmulationD2Ev@Base 1.4.0
 _ZN7Konsole14vt100_graphicsE@Base 1.4.0
 _ZN7Konsole15HistoryTypeFileC1ERK7QString@Base 1.4.0
 _ZN7Konsole15HistoryTypeFileC2ERK7QString@Base 1.4.0
 _ZN7Konsole15HistoryTypeFileD0Ev@Base 1.4.0
 _ZN7Konsole15HistoryTypeFileD1Ev@Base 1.4.0
 _ZN7Konsole15HistoryTypeNoneC1Ev@Base 1.4.0
 _ZN7Konsole15HistoryTypeNoneC2Ev@Base 1.4.0
 _ZN7Konsole15HistoryTypeNoneD0Ev@Base 1.4.0
 _ZN7Konsole15HistoryTypeNoneD1Ev@Base 1.4.0
 _ZN7Konsole15TerminalDisplay10blinkEventEv@Base 1.4.0
 _ZN7Konsole15TerminalDisplay10clearImageEv@Base 1.4.0
 _ZN7Konsole15TerminalDisplay10drawCursorER8QPainterRK5QRectRK6QColorS8_Rb@Base 1.4.0
 _ZN7Konsole15TerminalDisplay10enableBellEv@Base 1.4.0
 _ZN7Konsole15TerminalDisplay10fontChangeERK5QFont@Base 1.4.0
 _ZN7Konsole15TerminalDisplay10paintEventEP11QPaintEvent@Base 1.4.0
 _ZN7Konsole15TerminalDisplay10setOpacityEd@Base 1.4.0
 _ZN7Konsole15TerminalDisplay10wheelEventEP11QWheelEvent@Base 1.4.0
 _ZN7Konsole15TerminalDisplay11mouseSignalEiiii@Base 1.4.0
 _ZN7Konsole15TerminalDisplay11qt_metacallEN11QMetaObject4CallEiPPv@Base 1.4.0
 _ZN7Konsole15TerminalDisplay11qt_metacastEPKc@Base 1.4.0
 _ZN7Konsole15TerminalDisplay11resizeEventEP12QResizeEvent@Base 1.4.0
 _ZN7Konsole15TerminalDisplay11scrollImageEiRK5QRect@Base 1.4.0
 _ZN7Konsole15TerminalDisplay11setBellModeEi@Base 1.4.0
 _ZN7Konsole15TerminalDisplay11updateImageEv@Base 1.4.0
 _ZN7Konsole15TerminalDisplay12calcGeometryEv@Base 1.4.0
 _ZN7Konsole15TerminalDisplay12drawContentsER8QPainterRK5QRect@Base 1.4.0
 _ZN7Konsole15TerminalDisplay12paintFiltersER8QPainter@Base 1.4.0
 _ZN7Konsole15TerminalDisplay12setFixedSizeEii@Base 1.4.0
 _ZN7Konsole15TerminalDisplay12setSelectionERK7QString@Base 1.4.0
 _ZN7Konsole15TerminalDisplay12setUsesMouseEb@Base 1.4.0
 _ZN7Konsole15TerminalDisplay13copyClipboardEv@Base 1.4.0
 _ZN7Konsole15TerminalDisplay13emitSelectionEbb@Base 1.4.0
 _ZN7Konsole15TerminalDisplay13filterActionsERK6QPoint@Base 1.4.0
 _ZN7Konsole15TerminalDisplay13keyPressEventEP9QKeyEvent@Base 1.4.0
 _ZN7Konsole15TerminalDisplay13propagateSizeEv@Base 1.4.0
 _ZN7Konsole15TerminalDisplay13setColorTableEPKNS_10ColorEntryE@Base 1.4.0
 _ZN7Konsole15TerminalDisplay13setRandomSeedEj@Base 1.4.0
 _ZN7Konsole15TerminalDisplay14_antialiasTextE@Base 1.4.0
 _ZN7Konsole15TerminalDisplay14dragEnterEventEP15QDragEnterEvent@Base 1.4.0
 _ZN7Konsole15TerminalDisplay14drawBackgroundER8QPainterRK5QRectRK6QColorb@Base 1.4.0
 _ZN7Konsole15TerminalDisplay14drawCharactersER8QPainterRK5QRectRK7QStringPKNS_9CharacterEb@Base 1.4.0
 _ZN7Konsole15TerminalDisplay14mouseMoveEventEP11QMouseEvent@Base 1.4.0
 _ZN7Konsole15TerminalDisplay14pasteClipboardEv@Base 1.4.0
 _ZN7Konsole15TerminalDisplay14pasteSelectionEv@Base 1.4.0
 _ZN7Konsole15TerminalDisplay14processFiltersEv@Base 1.4.0
 _ZN7Konsole15TerminalDisplay14setLineSpacingEj@Base 1.4.0
 _ZN7Konsole15TerminalDisplay14swapColorTableEv@Base 1.4.0
 _ZN7Konsole15TerminalDisplay15extendSelectionERK6QPoint@Base 1.4.0
 _ZN7Konsole15TerminalDisplay15isBusySelectingEb@Base 1.4.0
 _ZN7Konsole15TerminalDisplay15mousePressEventEP11QMouseEvent@Base 1.4.0
 _ZN7Konsole15TerminalDisplay15outputSuspendedEb@Base 1.4.0
 _ZN7Konsole15TerminalDisplay15sendStringToEmuEPKc@Base 1.4.0
 _ZN7Konsole15TerminalDisplay15setScreenWindowEPNS_12ScreenWindowE@Base 1.4.0
 _ZN7Konsole15TerminalDisplay15updateImageSizeEv@Base 1.4.0
 _ZN7Konsole15TerminalDisplay16blinkCursorEventEv@Base 1.4.0
 _ZN7Konsole15TerminalDisplay16configureRequestEPS0_iRK6QPoint@Base 1.4.0
 _ZN7Konsole15TerminalDisplay16drawTextFragmentER8QPainterRK5QRectRK7QStringPKNS_9CharacterE@Base 1.4.0
 _ZN7Konsole15TerminalDisplay16inputMethodEventEP17QInputMethodEvent@Base 1.4.0
 _ZN7Konsole15TerminalDisplay16keyPressedSignalEP9QKeyEvent@Base 1.4.0
 _ZN7Konsole15TerminalDisplay16staticMetaObjectE@Base 1.4.0
 _ZN7Konsole15TerminalDisplay17HAVE_TRANSPARENCYE@Base 1.4.0
 _ZN7Konsole15TerminalDisplay17mouseReleaseEventEP11QMouseEvent@Base 1.4.0
 _ZN7Konsole15TerminalDisplay17setBlinkingCursorEb@Base 1.4.0
 _ZN7Konsole15TerminalDisplay17setWordCharactersERK7QString@Base 1.4.0
 _ZN7Konsole15TerminalDisplay18drawLineCharStringER8QPainteriiRK7QStringPKNS_9CharacterE@Base 1.4.0
 _ZN7Konsole15TerminalDisplay18focusNextPrevChildEb@Base 1.4.0
 _ZN7Konsole15TerminalDisplay18tripleClickTimeoutEv@Base 1.4.0
 _ZN7Konsole15TerminalDisplay20setScrollBarPositionENS0_17ScrollBarPositionE@Base 1.4.0
 _ZN7Konsole15TerminalDisplay20updateLinePropertiesEv@Base 1.4.0
 _ZN7Konsole15TerminalDisplay21flowControlKeyPressedEb@Base 1.4.0
 _ZN7Konsole15TerminalDisplay21mouseDoubleClickEventEP11QMouseEvent@Base 1.4.0
 _ZN7Konsole15TerminalDisplay21mouseTripleClickEventEP11QMouseEvent@Base 1.4.0
 _ZN7Konsole15TerminalDisplay22setKeyboardCursorColorEbRK6QColor@Base 1.4.0
 _ZN7Konsole15TerminalDisplay22setKeyboardCursorShapeENS0_19KeyboardCursorShapeE@Base 1.4.0
 _ZN7Konsole15TerminalDisplay22showResizeNotificationEv@Base 1.4.0
 _ZN7Konsole15TerminalDisplay23changedFontMetricSignalEii@Base 1.4.0
 _ZN7Konsole15TerminalDisplay24changedContentSizeSignalEii@Base 1.4.0
 _ZN7Konsole15TerminalDisplay24scrollBarPositionChangedEi@Base 1.4.0
 _ZN7Konsole15TerminalDisplay28drawInputMethodPreeditStringER8QPainterRK5QRect@Base 1.4.0
 _ZN7Konsole15TerminalDisplay28setFlowControlWarningEnabledEb@Base 1.4.0
 _ZN7Konsole15TerminalDisplay4bellERK7QString@Base 1.4.0
 _ZN7Konsole15TerminalDisplay5eventEP6QEvent@Base 1.4.0
 _ZN7Konsole15TerminalDisplay6doDragEv@Base 1.4.0
 _ZN7Konsole15TerminalDisplay7setFontERK5QFont@Base 1.4.0
 _ZN7Konsole15TerminalDisplay7setSizeEii@Base 1.4.0
 _ZN7Konsole15TerminalDisplay9dropEventEP10QDropEvent@Base 1.4.0
 _ZN7Konsole15TerminalDisplay9hideEventEP10QHideEvent@Base 1.4.0
 _ZN7Konsole15TerminalDisplay9makeImageEv@Base 1.4.0
 _ZN7Konsole15TerminalDisplay9setScrollEii@Base 1.4.0
 _ZN7Konsole15TerminalDisplay9setVTFontERK5QFont@Base 1.4.0
 _ZN7Konsole15TerminalDisplay9showEventEP10QShowEvent@Base 1.4.0
 _ZN7Konsole15TerminalDisplayC1EP7QWidget@Base 1.4.0
 _ZN7Konsole15TerminalDisplayC2EP7QWidget@Base 1.4.0
 _ZN7Konsole15TerminalDisplayD0Ev@Base 1.4.0
 _ZN7Konsole15TerminalDisplayD1Ev@Base 1.4.0
 _ZN7Konsole15TerminalDisplayD2Ev@Base 1.4.0
 _ZN7Konsole16PlainTextDecoder10decodeLineEPKNS_9CharacterEih@Base 1.4.0
 _ZN7Konsole16PlainTextDecoder21setTrailingWhitespaceEb@Base 1.4.0
 _ZN7Konsole16PlainTextDecoder3endEv@Base 1.4.0
 _ZN7Konsole16PlainTextDecoder5beginEP11QTextStream@Base 1.4.0
 _ZN7Konsole16PlainTextDecoderC1Ev@Base 1.4.0
 _ZN7Konsole16PlainTextDecoderC2Ev@Base 1.4.0
 _ZN7Konsole16PlainTextDecoderD0Ev@Base 1.4.0
 _ZN7Konsole16PlainTextDecoderD1Ev@Base 1.4.0
 _ZN7Konsole17ExtendedCharTable18createExtendedCharEPtt@Base 1.4.0
 _ZN7Konsole17ExtendedCharTable8instanceE@Base 1.4.0
 _ZN7Konsole17ExtendedCharTableC1Ev@Base 1.4.0
 _ZN7Konsole17ExtendedCharTableC2Ev@Base 1.4.0
 _ZN7Konsole17ExtendedCharTableD1Ev@Base 1.4.0
 _ZN7Konsole17ExtendedCharTableD2Ev@Base 1.4.0
 _ZN7Konsole17HistoryScrollFile10getLineLenEi@Base 1.4.0
 _ZN7Konsole17HistoryScrollFile11startOfLineEi@Base 1.4.0
 _ZN7Konsole17HistoryScrollFile13isWrappedLineEi@Base 1.4.0
 _ZN7Konsole17HistoryScrollFile7addLineEb@Base 1.4.0
 _ZN7Konsole17HistoryScrollFile8addCellsEPKNS_9CharacterEi@Base 1.4.0
 _ZN7Konsole17HistoryScrollFile8getCellsEiiiPNS_9CharacterE@Base 1.4.0
 _ZN7Konsole17HistoryScrollFile8getLinesEv@Base 1.4.0
 _ZN7Konsole17HistoryScrollFileC1ERK7QString@Base 1.4.0
 _ZN7Konsole17HistoryScrollFileC2ERK7QString@Base 1.4.0
 _ZN7Konsole17HistoryScrollFileD0Ev@Base 1.4.0
 _ZN7Konsole17HistoryScrollFileD1Ev@Base 1.4.0
 _ZN7Konsole17HistoryScrollFileD2Ev@Base 1.4.0
 _ZN7Konsole17HistoryScrollNone10getLineLenEi@Base 1.4.0
 _ZN7Konsole17HistoryScrollNone13isWrappedLineEi@Base 1.4.0
 _ZN7Konsole17HistoryScrollNone7addLineEb@Base 1.4.0
 _ZN7Konsole17HistoryScrollNone8addCellsEPKNS_9CharacterEi@Base 1.4.0
 _ZN7Konsole17HistoryScrollNone8getCellsEiiiPNS_9CharacterE@Base 1.4.0
 _ZN7Konsole17HistoryScrollNone8getLinesEv@Base 1.4.0
 _ZN7Konsole17HistoryScrollNone9hasScrollEv@Base 1.4.0
 _ZN7Konsole17HistoryScrollNoneC1Ev@Base 1.4.0
 _ZN7Konsole17HistoryScrollNoneC2Ev@Base 1.4.0
 _ZN7Konsole17HistoryScrollNoneD0Ev@Base 1.4.0
 _ZN7Konsole17HistoryScrollNoneD1Ev@Base 1.4.0
 _ZN7Konsole17HistoryScrollNoneD2Ev@Base 1.4.0
 _ZN7Konsole17HistoryTypeBufferC1Ej@Base 1.4.0
 _ZN7Konsole17HistoryTypeBufferC2Ej@Base 1.4.0
 _ZN7Konsole17HistoryTypeBufferD0Ev@Base 1.4.0
 _ZN7Konsole17HistoryTypeBufferD1Ev@Base 1.4.0
 _ZN7Konsole18KeyboardTranslator11removeEntryERKNS0_5EntryE@Base 1.4.0
 _ZN7Konsole18KeyboardTranslator12replaceEntryERKNS0_5EntryES3_@Base 1.4.0
 _ZN7Konsole18KeyboardTranslator14setDescriptionERK7QString@Base 1.4.0
 _ZN7Konsole18KeyboardTranslator5EntryC1Ev@Base 1.4.0
 _ZN7Konsole18KeyboardTranslator5EntryC2Ev@Base 1.4.0
 _ZN7Konsole18KeyboardTranslator7setNameERK7QString@Base 1.4.0
 _ZN7Konsole18KeyboardTranslator8addEntryERKNS0_5EntryE@Base 1.4.0
 _ZN7Konsole18KeyboardTranslatorC1ERK7QString@Base 1.4.0
 _ZN7Konsole18KeyboardTranslatorC2ERK7QString@Base 1.4.0
 _ZN7Konsole18KeyboardTranslatorD1Ev@Base 1.4.0
 _ZN7Konsole19HistoryScrollBuffer10getLineLenEi@Base 1.4.0
 _ZN7Konsole19HistoryScrollBuffer11bufferIndexEi@Base 1.4.0
 _ZN7Konsole19HistoryScrollBuffer13isWrappedLineEi@Base 1.4.0
 _ZN7Konsole19HistoryScrollBuffer13setMaxNbLinesEj@Base 1.4.0
 _ZN7Konsole19HistoryScrollBuffer14addCellsVectorERK7QVectorINS_9CharacterEE@Base 1.4.0
 _ZN7Konsole19HistoryScrollBuffer7addLineEb@Base 1.4.0
 _ZN7Konsole19HistoryScrollBuffer8addCellsEPKNS_9CharacterEi@Base 1.4.0
 _ZN7Konsole19HistoryScrollBuffer8getCellsEiiiPNS_9CharacterE@Base 1.4.0
 _ZN7Konsole19HistoryScrollBuffer8getLinesEv@Base 1.4.0
 _ZN7Konsole19HistoryScrollBufferC1Ej@Base 1.4.0
 _ZN7Konsole19HistoryScrollBufferC2Ej@Base 1.4.0
 _ZN7Konsole19HistoryScrollBufferD0Ev@Base 1.4.0
 _ZN7Konsole19HistoryScrollBufferD1Ev@Base 1.4.0
 _ZN7Konsole19HistoryScrollBufferD2Ev@Base 1.4.0
 _ZN7Konsole21HistoryTypeBlockArrayC1Em@Base 1.4.0
 _ZN7Konsole21HistoryTypeBlockArrayC2Em@Base 1.4.0
 _ZN7Konsole21HistoryTypeBlockArrayD0Ev@Base 1.4.0
 _ZN7Konsole21HistoryTypeBlockArrayD1Ev@Base 1.4.0
 _ZN7Konsole23HistoryScrollBlockArray10getLineLenEi@Base 1.4.0
 _ZN7Konsole23HistoryScrollBlockArray13isWrappedLineEi@Base 1.4.0
 _ZN7Konsole23HistoryScrollBlockArray7addLineEb@Base 1.4.0
 _ZN7Konsole23HistoryScrollBlockArray8addCellsEPKNS_9CharacterEi@Base 1.4.0
 _ZN7Konsole23HistoryScrollBlockArray8getCellsEiiiPNS_9CharacterE@Base 1.4.0
 _ZN7Konsole23HistoryScrollBlockArray8getLinesEv@Base 1.4.0
 _ZN7Konsole23HistoryScrollBlockArrayC1Em@Base 1.4.0
 _ZN7Konsole23HistoryScrollBlockArrayC2Em@Base 1.4.0
 _ZN7Konsole23HistoryScrollBlockArrayD0Ev@Base 1.4.0
 _ZN7Konsole23HistoryScrollBlockArrayD1Ev@Base 1.4.0
 _ZN7Konsole23HistoryScrollBlockArrayD2Ev@Base 1.4.0
 _ZN7Konsole24KeyboardTranslatorReader10parseErrorEv@Base 1.4.0
 _ZN7Konsole24KeyboardTranslatorReader11createEntryERK7QStringS3_@Base 1.4.0
 _ZN7Konsole24KeyboardTranslatorReader12hasNextEntryEv@Base 1.4.0
 _ZN7Konsole24KeyboardTranslatorReader14decodeSequenceERK7QStringRiR6QFlagsIN2Qt16KeyboardModifierEES9_RS5_INS_18KeyboardTranslator5StateEESD_@Base 1.4.0
 _ZN7Konsole24KeyboardTranslatorReader14parseAsCommandERK7QStringRNS_18KeyboardTranslator7CommandE@Base 1.4.0
 _ZN7Konsole24KeyboardTranslatorReader14parseAsKeyCodeERK7QStringRi@Base 1.4.0
 _ZN7Konsole24KeyboardTranslatorReader15parseAsModifierERK7QStringRN2Qt16KeyboardModifierE@Base 1.4.0
 _ZN7Konsole24KeyboardTranslatorReader16parseAsStateFlagERK7QStringRNS_18KeyboardTranslator5StateE@Base 1.4.0
 _ZN7Konsole24KeyboardTranslatorReader8readNextEv@Base 1.4.0
 _ZN7Konsole24KeyboardTranslatorReader8tokenizeERK7QString@Base 1.4.0
 _ZN7Konsole24KeyboardTranslatorReader9nextEntryEv@Base 1.4.0
 _ZN7Konsole24KeyboardTranslatorReaderC1EP9QIODevice@Base 1.4.0
 _ZN7Konsole24KeyboardTranslatorReaderC2EP9QIODevice@Base 1.4.0
 _ZN7Konsole24KeyboardTranslatorReaderD1Ev@Base 1.4.0
 _ZN7Konsole24KeyboardTranslatorWriter10writeEntryERKNS_18KeyboardTranslator5EntryE@Base 1.4.0
 _ZN7Konsole24KeyboardTranslatorWriter11writeHeaderERK7QString@Base 1.4.0
 _ZN7Konsole24KeyboardTranslatorWriterC1EP9QIODevice@Base 1.4.0
 _ZN7Konsole24KeyboardTranslatorWriterC2EP9QIODevice@Base 1.4.0
 _ZN7Konsole24KeyboardTranslatorWriterD1Ev@Base 1.4.0
 _ZN7Konsole24KeyboardTranslatorWriterD2Ev@Base 1.4.0
 _ZN7Konsole24TerminalCharacterDecoderD0Ev@Base 1.4.0
 _ZN7Konsole24TerminalCharacterDecoderD1Ev@Base 1.4.0
 _ZN7Konsole24TerminalImageFilterChain8setImageEPKNS_9CharacterEiiRK7QVectorIhE@Base 1.4.0
 _ZN7Konsole24TerminalImageFilterChainC1Ev@Base 1.4.0
 _ZN7Konsole24TerminalImageFilterChainC2Ev@Base 1.4.0
 _ZN7Konsole24TerminalImageFilterChainD0Ev@Base 1.4.0
 _ZN7Konsole24TerminalImageFilterChainD1Ev@Base 1.4.0
 _ZN7Konsole24TerminalImageFilterChainD2Ev@Base 1.4.0
 _ZN7Konsole25KeyboardTranslatorManager13addTranslatorEPNS_18KeyboardTranslatorE@Base 1.4.0
 _ZN7Konsole25KeyboardTranslatorManager14allTranslatorsEv@Base 1.4.0
 _ZN7Konsole25KeyboardTranslatorManager14findTranslatorERK7QString@Base 1.4.0
 _ZN7Konsole25KeyboardTranslatorManager14loadTranslatorEP9QIODeviceRK7QString@Base 1.4.0
 _ZN7Konsole25KeyboardTranslatorManager14loadTranslatorERK7QString@Base 1.4.0
 _ZN7Konsole25KeyboardTranslatorManager14saveTranslatorEPKNS_18KeyboardTranslatorE@Base 1.4.0
 _ZN7Konsole25KeyboardTranslatorManager15findTranslatorsEv@Base 1.4.0
 _ZN7Konsole25KeyboardTranslatorManager16deleteTranslatorERK7QString@Base 1.4.0
 _ZN7Konsole25KeyboardTranslatorManager17defaultTranslatorEv@Base 1.4.0
 _ZN7Konsole25KeyboardTranslatorManager18findTranslatorPathERK7QString@Base 1.4.0
 _ZN7Konsole25KeyboardTranslatorManager21defaultTranslatorTextE@Base 1.4.0
 _ZN7Konsole25KeyboardTranslatorManager8instanceEv@Base 1.4.0
 _ZN7Konsole25KeyboardTranslatorManagerC1Ev@Base 1.4.0
 _ZN7Konsole25KeyboardTranslatorManagerC2Ev@Base 1.4.0
 _ZN7Konsole25KeyboardTranslatorManagerD1Ev@Base 1.4.0
 _ZN7Konsole25KeyboardTranslatorManagerD2Ev@Base 1.4.0
 _ZN7Konsole3Pty10doSendJobsEv@Base 1.4.0
 _ZN7Konsole3Pty10setXonXoffEb@Base 1.4.0
 _ZN7Konsole3Pty10writeReadyEv@Base 1.4.0
 _ZN7Konsole3Pty11bufferEmptyEv@Base 1.4.0
 _ZN7Konsole3Pty11qt_metacallEN11QMetaObject4CallEiPPv@Base 1.4.0
 _ZN7Konsole3Pty11qt_metacastEPKc@Base 1.4.0
 _ZN7Konsole3Pty11setUtf8ModeEb@Base 1.4.0
 _ZN7Konsole3Pty12dataReceivedEP9K3ProcessPci@Base 1.4.0
 _ZN7Konsole3Pty12receivedDataEPKci@Base 1.4.0
 _ZN7Konsole3Pty12setWriteableEb@Base 1.4.0
 _ZN7Konsole3Pty13appendSendJobEPKci@Base 1.4.0
 _ZN7Konsole3Pty13setWindowSizeEii@Base 1.4.0
 _ZN7Konsole3Pty16staticMetaObjectE@Base 1.4.0
 _ZN7Konsole3Pty23addEnvironmentVariablesERK11QStringList@Base 1.4.0
 _ZN7Konsole3Pty4doneEi@Base 1.4.0
 _ZN7Konsole3Pty5startERK7QStringRK11QStringListS6_mb@Base 1.4.0
 _ZN7Konsole3Pty7SendJobD1Ev@Base 1.4.0
 _ZN7Konsole3Pty7donePtyEv@Base 1.4.0
 _ZN7Konsole3Pty7lockPtyEb@Base 1.4.0
 _ZN7Konsole3Pty8sendDataEPKci@Base 1.4.0
 _ZN7Konsole3Pty8setEraseEc@Base 1.4.0
 _ZN7Konsole3PtyC1Ev@Base 1.4.0
 _ZN7Konsole3PtyC2Ev@Base 1.4.0
 _ZN7Konsole3PtyD0Ev@Base 1.4.0
 _ZN7Konsole3PtyD1Ev@Base 1.4.0
 _ZN7Konsole3PtyD2Ev@Base 1.4.0
 _ZN7Konsole6Filter10addHotSpotEPNS0_7HotSpotE@Base 1.4.0
 _ZN7Konsole6Filter13getLineColumnEiRiS1_@Base 1.4.0
 _ZN7Konsole6Filter5resetEv@Base 1.4.0
 _ZN7Konsole6Filter6bufferEv@Base 1.4.0
 _ZN7Konsole6Filter7HotSpot7actionsEv@Base 1.4.0
 _ZN7Konsole6Filter7HotSpot7setTypeENS1_4TypeE@Base 1.4.0
 _ZN7Konsole6Filter7HotSpotC1Eiiii@Base 1.4.0
 _ZN7Konsole6Filter7HotSpotC2Eiiii@Base 1.4.0
 _ZN7Konsole6Filter7HotSpotD0Ev@Base 1.4.0
 _ZN7Konsole6Filter7HotSpotD1Ev@Base 1.4.0
 _ZN7Konsole6Filter7HotSpotD2Ev@Base 1.4.0
 _ZN7Konsole6Filter9setBufferEPK7QStringPK5QListIiE@Base 1.4.0
 _ZN7Konsole6FilterC1Ev@Base 1.4.0
 _ZN7Konsole6FilterC2Ev@Base 1.4.0
 _ZN7Konsole6FilterD0Ev@Base 1.4.0
 _ZN7Konsole6FilterD1Ev@Base 1.4.0
 _ZN7Konsole6FilterD2Ev@Base 1.4.0
 _ZN7Konsole6Screen10clearImageEiic@Base 1.4.0
 _ZN7Konsole6Screen10cursorDownEi@Base 1.4.0
 _ZN7Konsole6Screen10cursorLeftEi@Base 1.4.0
 _ZN7Konsole6Screen10eraseCharsEi@Base 1.4.0
 _ZN7Konsole6Screen10saveCursorEv@Base 1.4.0
 _ZN7Konsole6Screen10scrollDownEi@Base 1.4.0
 _ZN7Konsole6Screen10scrollDownEii@Base 1.4.0
 _ZN7Konsole6Screen10setCursorXEi@Base 1.4.0
 _ZN7Konsole6Screen10setCursorYEi@Base 1.4.0
 _ZN7Konsole6Screen10setMarginsEii@Base 1.4.0
 _ZN7Konsole6Screen11addHistLineEv@Base 1.4.0
 _ZN7Konsole6Screen11cursorRightEi@Base 1.4.0
 _ZN7Konsole6Screen11defaultCharE@Base 1.4.0
 _ZN7Konsole6Screen11deleteCharsEi@Base 1.4.0
 _ZN7Konsole6Screen11deleteLinesEi@Base 1.4.0
 _ZN7Konsole6Screen11insertCharsEi@Base 1.4.0
 _ZN7Konsole6Screen11insertLinesEi@Base 1.4.0
 _ZN7Konsole6Screen11resizeImageEii@Base 1.4.0
 _ZN7Konsole6Screen11restoreModeEi@Base 1.4.0
 _ZN7Konsole6Screen11setCursorYXEii@Base 1.4.0
 _ZN7Konsole6Screen12backTabulateEi@Base 1.4.0
 _ZN7Konsole6Screen12getHistLinesEv@Base 1.4.0
 _ZN7Konsole6Screen12initTabStopsEv@Base 1.4.0
 _ZN7Konsole6Screen12reverseIndexEv@Base 1.4.0
 _ZN7Konsole6Screen12selectedTextEb@Base 1.4.0
 _ZN7Konsole6Screen12setBackColorEii@Base 1.4.0
 _ZN7Konsole6Screen12setForeColorEii@Base 1.4.0
 _ZN7Konsole6Screen12setRenditionEi@Base 1.4.0
 _ZN7Konsole6Screen13ShowCharacterEt@Base 1.4.0
 _ZN7Konsole6Screen13changeTabStopEb@Base 1.4.0
 _ZN7Konsole6Screen13clearTabStopsEv@Base 1.4.0
 _ZN7Konsole6Screen13restoreCursorEv@Base 1.4.0
 _ZN7Konsole6Screen13writeToStreamEPNS_24TerminalCharacterDecoderEii@Base 1.4.0
 _ZN7Konsole6Screen14checkSelectionEii@Base 1.4.0
 _ZN7Konsole6Screen14clearSelectionEv@Base 1.4.0
 _ZN7Konsole6Screen14getHistoryLineEi@Base 1.4.0
 _ZN7Konsole6Screen14resetRenditionEi@Base 1.4.0
 _ZN7Konsole6Screen15clearEntireLineEv@Base 1.4.0
 _ZN7Konsole6Screen15getSelectionEndERiS1_@Base 1.4.0
 _ZN7Konsole6Screen15setLinePropertyEhb@Base 1.4.0
 _ZN7Konsole6Screen15setSelectionEndEii@Base 1.4.0
 _ZN7Konsole6Screen16clearToEndOfLineEv@Base 1.4.0
 _ZN7Konsole6Screen16copyLineToStreamEiiiPNS_24TerminalCharacterDecoderEbb@Base 1.4.0
 _ZN7Konsole6Screen17clearEntireScreenEv@Base 1.4.0
 _ZN7Konsole6Screen17getSelectionStartERiS1_@Base 1.4.0
 _ZN7Konsole6Screen17resetDroppedLinesEv@Base 1.4.0
 _ZN7Konsole6Screen17setDefaultMarginsEv@Base 1.4.0
 _ZN7Konsole6Screen17setSelectionStartEiib@Base 1.4.0
 _ZN7Konsole6Screen18clearToBeginOfLineEv@Base 1.4.0
 _ZN7Konsole6Screen18clearToEndOfScreenEv@Base 1.4.0
 _ZN7Konsole6Screen18effectiveRenditionEv@Base 1.4.0
 _ZN7Konsole6Screen18resetScrolledLinesEv@Base 1.4.0
 _ZN7Konsole6Screen19fillWithDefaultCharEPNS_9CharacterEi@Base 1.4.0
 _ZN7Konsole6Screen19setDefaultRenditionEv@Base 1.4.0
 _ZN7Konsole6Screen20clearToBeginOfScreenEv@Base 1.4.0
 _ZN7Konsole6Screen22writeSelectionToStreamEPNS_24TerminalCharacterDecoderEb@Base 1.4.0
 _ZN7Konsole6Screen4homeEv@Base 1.4.0
 _ZN7Konsole6Screen5clearEv@Base 1.4.0
 _ZN7Konsole6Screen5indexEv@Base 1.4.0
 _ZN7Konsole6Screen5resetEb@Base 1.4.0
 _ZN7Konsole6Screen6ReturnEv@Base 1.4.0
 _ZN7Konsole6Screen7NewLineEv@Base 1.4.0
 _ZN7Konsole6Screen7composeERK7QString@Base 1.4.0
 _ZN7Konsole6Screen7setModeEi@Base 1.4.0
 _ZN7Konsole6Screen8NextLineEv@Base 1.4.0
 _ZN7Konsole6Screen8TabulateEi@Base 1.4.0
 _ZN7Konsole6Screen8cursorUpEi@Base 1.4.0
 _ZN7Konsole6Screen8saveModeEi@Base 1.4.0
 _ZN7Konsole6Screen8scrollUpEi@Base 1.4.0
 _ZN7Konsole6Screen8scrollUpEii@Base 1.4.0
 _ZN7Konsole6Screen9BackSpaceEv@Base 1.4.0
 _ZN7Konsole6Screen9getScrollEv@Base 1.4.0
 _ZN7Konsole6Screen9hasScrollEv@Base 1.4.0
 _ZN7Konsole6Screen9helpAlignEv@Base 1.4.0
 _ZN7Konsole6Screen9moveImageEiii@Base 1.4.0
 _ZN7Konsole6Screen9resetModeEi@Base 1.4.0
 _ZN7Konsole6Screen9setScrollERKNS_11HistoryTypeEb@Base 1.4.0
 _ZN7Konsole6ScreenC1Eii@Base 1.4.0
 _ZN7Konsole6ScreenC2Eii@Base 1.4.0
 _ZN7Konsole6ScreenD1Ev@Base 1.4.0
 _ZN7Konsole6ScreenD2Ev@Base 1.4.0
 _ZN7Konsole7Session10removeViewEPNS_15TerminalDisplayE@Base 1.4.0
 _ZN7Konsole7Session10sendSignalEi@Base 1.4.0
 _ZN7Konsole7Session10setProgramERK7QString@Base 1.4.0
 _ZN7Konsole7Session11bellRequestERK7QString@Base 1.4.0
 _ZN7Konsole7Session11qt_metacallEN11QMetaObject4CallEiPPv@Base 1.4.0
 _ZN7Konsole7Session11qt_metacastEPKc@Base 1.4.0
 _ZN7Konsole7Session11setIconNameERK7QString@Base 1.4.0
 _ZN7Konsole7Session11setIconTextERK7QString@Base 1.4.0
 _ZN7Konsole7Session12clearHistoryEv@Base 1.4.0
 _ZN7Konsole7Session12receivedDataERK7QString@Base 1.4.0
 _ZN7Konsole7Session12setAddToUtmpEb@Base 1.4.0
 _ZN7Konsole7Session12setArgumentsERK11QStringList@Base 1.4.0
 _ZN7Konsole7Session12setUserTitleEiRK7QString@Base 1.4.0
 _ZN7Konsole7Session12stateChangedEi@Base 1.4.0
 _ZN7Konsole7Session12titleChangedEv@Base 1.4.0
 _ZN7Konsole7Session13lastSessionIdE@Base 1.4.0
 _ZN7Konsole7Session13resizeRequestERK5QSize@Base 1.4.0
 _ZN7Konsole7Session13setProfileKeyERK7QString@Base 1.4.0
 _ZN7Konsole7Session13viewDestroyedEP7QObject@Base 1.4.0
 _ZN7Konsole7Session14onReceiveBlockEPKci@Base 1.4.0
 _ZN7Konsole7Session14openUrlRequestERK7QString@Base 1.4.0
 _ZN7Konsole7Session14profileChangedERK7QString@Base 1.4.0
 _ZN7Konsole7Session14setEnvironmentERK11QStringList@Base 1.4.0
 _ZN7Konsole7Session14setHistoryTypeERKNS_11HistoryTypeE@Base 1.4.0
 _ZN7Konsole7Session14setKeyBindingsERK7QString@Base 1.4.0
 _ZN7Konsole7Session16activityStateSetEi@Base 1.4.0
 _ZN7Konsole7Session16monitorTimerDoneEv@Base 1.4.0
 _ZN7Konsole7Session16onViewSizeChangeEii@Base 1.4.0
 _ZN7Konsole7Session16staticMetaObjectE@Base 1.4.0
 _ZN7Konsole7Session17setDarkBackgroundEb@Base 1.4.0
 _ZN7Konsole7Session17setMonitorSilenceEb@Base 1.4.0
 _ZN7Konsole7Session17setTabTitleFormatENS0_15TabTitleContextERK7QString@Base 1.4.0
 _ZN7Konsole7Session18setMonitorActivityEb@Base 1.4.0
 _ZN7Konsole7Session18updateTerminalSizeEv@Base 1.4.0
 _ZN7Konsole7Session21onEmulationSizeChangeEii@Base 1.4.0
 _ZN7Konsole7Session21setFlowControlEnabledEb@Base 1.4.0
 _ZN7Konsole7Session24setMonitorSilenceSecondsEi@Base 1.4.0
 _ZN7Konsole7Session25changeTabTextColorRequestEi@Base 1.4.0
 _ZN7Konsole7Session25flowControlEnabledChangedEb@Base 1.4.0
 _ZN7Konsole7Session26setInitialWorkingDirectoryERK7QString@Base 1.4.0
 _ZN7Konsole7Session28changeBackgroundColorRequestERK6QColor@Base 1.4.0
 _ZN7Konsole7Session28profileChangeCommandReceivedERK7QString@Base 1.4.0
 _ZN7Konsole7Session3runEv@Base 1.4.0
 _ZN7Konsole7Session4doneEi@Base 1.4.0
 _ZN7Konsole7Session4sizeEv@Base 1.4.0
 _ZN7Konsole7Session5closeEv@Base 1.4.0
 _ZN7Konsole7Session7addViewEPNS_15TerminalDisplayE@Base 1.4.0
 _ZN7Konsole7Session7refreshEv@Base 1.4.0
 _ZN7Konsole7Session7setSizeERK5QSize@Base 1.4.0
 _ZN7Konsole7Session7startedEv@Base 1.4.0
 _ZN7Konsole7Session8finishedEv@Base 1.4.0
 _ZN7Konsole7Session8setCodecEP10QTextCodec@Base 1.4.0
 _ZN7Konsole7Session8setTitleENS0_9TitleRoleERK7QString@Base 1.4.0
 _ZN7Konsole7SessionC1Ev@Base 1.4.0
 _ZN7Konsole7SessionC2Ev@Base 1.4.0
 _ZN7Konsole7SessionD0Ev@Base 1.4.0
 _ZN7Konsole7SessionD1Ev@Base 1.4.0
 _ZN7Konsole7SessionD2Ev@Base 1.4.0
 _ZN7Konsole9Emulation10sendStringEPKci@Base 1.4.0
 _ZN7Konsole9Emulation10setHistoryERKNS_11HistoryTypeE@Base 1.4.0
 _ZN7Konsole9Emulation11keyBindingsEv@Base 1.4.0
 _ZN7Konsole9Emulation11qt_metacallEN11QMetaObject4CallEiPPv@Base 1.4.0
 _ZN7Konsole9Emulation11qt_metacastEPKc@Base 1.4.0
 _ZN7Konsole9Emulation11receiveCharEi@Base 1.4.0
 _ZN7Konsole9Emulation11receiveDataEPKci@Base 1.4.0
 _ZN7Konsole9Emulation12clearHistoryEv@Base 1.4.0
 _ZN7Konsole9Emulation12createWindowEv@Base 1.4.0
 _ZN7Konsole9Emulation12sendKeyEventEP9QKeyEvent@Base 1.4.0
 _ZN7Konsole9Emulation12setImageSizeEii@Base 1.4.0
 _ZN7Konsole9Emulation12titleChangedEiRK7QString@Base 1.4.0
 _ZN7Konsole9Emulation13outputChangedEv@Base 1.4.0
 _ZN7Konsole9Emulation13writeToStreamEPNS_24TerminalCharacterDecoderEii@Base 1.4.0
 _ZN7Konsole9Emulation14bufferedUpdateEv@Base 1.4.0
 _ZN7Konsole9Emulation14lockPtyRequestEb@Base 1.4.0
 _ZN7Konsole9Emulation14sendMouseEventEiiii@Base 1.4.0
 _ZN7Konsole9Emulation14setKeyBindingsERK7QString@Base 1.4.0
 _ZN7Konsole9Emulation14useUtf8RequestEb@Base 1.4.0
 _ZN7Konsole9Emulation14zmodemDetectedEv@Base 1.4.0
 _ZN7Konsole9Emulation16imageSizeChangedEii@Base 1.4.0
 _ZN7Konsole9Emulation16staticMetaObjectE@Base 1.4.0
 _ZN7Konsole9Emulation16usesMouseChangedEb@Base 1.4.0
 _ZN7Konsole9Emulation23programUsesMouseChangedEb@Base 1.4.0
 _ZN7Konsole9Emulation25changeTabTextColorRequestEi@Base 1.4.0
 _ZN7Konsole9Emulation28profileChangeCommandReceivedERK7QString@Base 1.4.0
 _ZN7Konsole9Emulation7historyEv@Base 1.4.0
 _ZN7Konsole9Emulation8sendDataEPKci@Base 1.4.0
 _ZN7Konsole9Emulation8setCodecENS0_14EmulationCodecE@Base 1.4.0
 _ZN7Konsole9Emulation8setCodecEPK10QTextCodec@Base 1.4.0
 _ZN7Konsole9Emulation8showBulkEv@Base 1.4.0
 _ZN7Konsole9Emulation8stateSetEi@Base 1.4.0
 _ZN7Konsole9Emulation9imageSizeEv@Base 1.4.0
 _ZN7Konsole9Emulation9lineCountEv@Base 1.4.0
 _ZN7Konsole9Emulation9setScreenEi@Base 1.4.0
 _ZN7Konsole9EmulationC1Ev@Base 1.4.0
 _ZN7Konsole9EmulationC2Ev@Base 1.4.0
 _ZN7Konsole9EmulationD0Ev@Base 1.4.0
 _ZN7Konsole9EmulationD1Ev@Base 1.4.0
 _ZN7Konsole9EmulationD2Ev@Base 1.4.0
 _ZN7Konsole9UrlFilter10newHotSpotEiiii@Base 1.4.0
 _ZN7Konsole9UrlFilter13FullUrlRegExpE@Base 1.4.0
 _ZN7Konsole9UrlFilter17CompleteUrlRegExpE@Base 1.4.0
 _ZN7Konsole9UrlFilter18EmailAddressRegExpE@Base 1.4.0
 _ZN7Konsole9UrlFilter7HotSpot7actionsEv@Base 1.4.0
 _ZN7Konsole9UrlFilter7HotSpot8activateEP7QObject@Base 1.4.0
 _ZN7Konsole9UrlFilter7HotSpotC1Eiiii@Base 1.4.0
 _ZN7Konsole9UrlFilter7HotSpotC2Eiiii@Base 1.4.0
 _ZN7Konsole9UrlFilter7HotSpotD0Ev@Base 1.4.0
 _ZN7Konsole9UrlFilter7HotSpotD1Ev@Base 1.4.0
 _ZN7Konsole9UrlFilter7HotSpotD2Ev@Base 1.4.0
 _ZN7Konsole9UrlFilterC1Ev@Base 1.4.0
 _ZN7Konsole9UrlFilterC2Ev@Base 1.4.0
 _ZN7Konsole9UrlFilterD0Ev@Base 1.4.0
 _ZN7Konsole9UrlFilterD1Ev@Base 1.4.0
 _ZN7QObject2trEPKcS1_@Base 1.4.0
 _ZN7QString7prependEPKc@Base 1.4.0
 _ZN7QStringC1EPKc@Base 1.4.0
 _ZN7QStringC1ERKS_@Base 1.4.0
 _ZN7QStringD1Ev@Base 1.4.0
 _ZN7QStringaSEPKc@Base 1.4.0
 _ZN7QStringpLEPKc@Base 1.4.0
 _ZN7QVectorI5QRectE7reallocEii@Base 1.4.0
 _ZN7QVectorI5QRectED1Ev@Base 1.4.0
 _ZN7QVectorI6QPointE7reallocEii@Base 1.4.0
 _ZN7QVectorIN7Konsole9CharacterEE6insertEPS1_iRKS1_@Base 1.4.0
 _ZN7QVectorIN7Konsole9CharacterEE6resizeEi@Base 1.4.0
 _ZN7QVectorIN7Konsole9CharacterEE7reallocEii@Base 1.4.0
 _ZN7QVectorIN7Konsole9CharacterEED1Ev@Base 1.4.0
 _ZN7QVectorIN7Konsole9CharacterEEaSERKS2_@Base 1.4.0
 _ZN7QVectorIP17QgsGrassModelItemE7reallocEii@Base 1.4.0
 _ZN7QVectorIP17QgsGrassModelItemED1Ev@Base 1.4.0
 _ZN7QVectorIcE13detach_helperEv@Base 1.4.0
 _ZN7QVectorIhE13detach_helperEv@Base 1.4.0
 _ZN7QVectorIhE6resizeEi@Base 1.4.0
 _ZN7QVectorIhED1Ev@Base 1.4.0
 _ZN7QVectorIhEixEi@Base 1.4.0
 _ZN7QWidget2trEPKcS1_@Base 1.4.0
 _ZN7QWidget4showEv@Base 1.4.0
 _ZN8QPainter8drawLineEiiii@Base 1.4.0
 _ZN8QPolygonC1Ei@Base 1.4.0
 _ZN8QPolygonD1Ev@Base 1.4.0
 _ZN9K3Process10childErrorEi@Base 1.4.0
 _ZN9K3Process10closeStdinEv@Base 1.4.0
 _ZN9K3Process10writeStdinEPKci@Base 1.4.0
 _ZN9K3Process10wroteStdinEPS_@Base 1.4.0
 _ZN9K3Process11childOutputEi@Base 1.4.0
 _ZN9K3Process11closeStderrEv@Base 1.4.0
 _ZN9K3Process11closeStdoutEv@Base 1.4.0
 _ZN9K3Process11qt_metacallEN11QMetaObject4CallEiPPv@Base 1.4.0
 _ZN9K3Process11qt_metacastEPKc@Base 1.4.0
 _ZN9K3Process11setPriorityEi@Base 1.4.0
 _ZN9K3Process11setUseShellEbPKc@Base 1.4.0
 _ZN9K3Process12slotSendDataEi@Base 1.4.0
 _ZN9K3Process13processExitedEPS_@Base 1.4.0
 _ZN9K3Process14clearArgumentsEv@Base 1.4.0
 _ZN9K3Process14commSetupDoneCEv@Base 1.4.0
 _ZN9K3Process14commSetupDonePEv@Base 1.4.0
 _ZN9K3Process14receivedStderrEPS_Pci@Base 1.4.0
 _ZN9K3Process14receivedStdoutEPS_Pci@Base 1.4.0
 _ZN9K3Process14receivedStdoutEiRi@Base 1.4.0
 _ZN9K3Process14setEnvironmentERK7QStringS2_@Base 1.4.0
 _ZN9K3Process14slotChildErrorEi@Base 1.4.0
 _ZN9K3Process15slotChildOutputEi@Base 1.4.0
 _ZN9K3Process16processHasExitedEi@Base 1.4.0
 _ZN9K3Process16setRunPrivilegedEb@Base 1.4.0
 _ZN9K3Process16setupEnvironmentEv@Base 1.4.0
 _ZN9K3Process16staticMetaObjectE@Base 1.4.0
 _ZN9K3Process18setupCommunicationE6QFlagsINS_17CommunicationFlagEE@Base 1.4.0
 _ZN9K3Process19setBinaryExecutableEPKc@Base 1.4.0
 _ZN9K3Process19setWorkingDirectoryERK7QString@Base 1.4.0
 _ZN9K3Process4killEi@Base 1.4.0
 _ZN9K3Process4waitEi@Base 1.4.0
 _ZN9K3Process5quoteERK7QString@Base 1.4.0
 _ZN9K3Process5startENS_7RunModeE6QFlagsINS_17CommunicationFlagEE@Base 1.4.0
 _ZN9K3Process6detachEv@Base 1.4.0
 _ZN9K3Process6resumeEv@Base 1.4.0
 _ZN9K3Process7suspendEv@Base 1.4.0
 _ZN9K3Process8closeAllEv@Base 1.4.0
 _ZN9K3Process8closePtyEv@Base 1.4.0
 _ZN9K3Process9commCloseEv@Base 1.4.0
 _ZN9K3Process9setUsePtyE6QFlagsINS_17CommunicationFlagEEb@Base 1.4.0
 _ZN9K3ProcessC1EP7QObject@Base 1.4.0
 _ZN9K3ProcessC2EP7QObject@Base 1.4.0
 _ZN9K3ProcessD0Ev@Base 1.4.0
 _ZN9K3ProcessD1Ev@Base 1.4.0
 _ZN9K3ProcessD2Ev@Base 1.4.0
 _ZN9K3ProcesslsEPKc@Base 1.4.0
 _ZN9K3ProcesslsERK10QByteArray@Base 1.4.0
 _ZN9K3ProcesslsERK11QStringList@Base 1.4.0
 _ZN9K3ProcesslsERK7QString@Base 1.4.0
 _ZN9QBitArrayD1Ev@Base 1.4.0
 _ZN9QCheckBoxD2Ev@Base 1.4.0
 _ZN9QComboBox10insertItemEiRK7QStringRK8QVariant@Base 1.4.0
 _ZN9QComboBox7addItemERK7QStringRK8QVariant@Base 1.4.0
 _ZNK11QTermWidget10metaObjectEv@Base 1.4.0
 _ZNK11QTermWidget15minimumSizeHintEv@Base 1.4.0
 _ZNK11QTermWidget8sizeHintEv@Base 1.4.0
 _ZNK12QgsGrassEdit10metaObjectEv@Base 1.4.0
 _ZNK13QgsGrassModel10headerDataEiN2Qt11OrientationEi@Base 1.4.0
 _ZNK13QgsGrassModel10metaObjectEv@Base 1.4.0
 _ZNK13QgsGrassModel11columnCountERK11QModelIndex@Base 1.4.0
 _ZNK13QgsGrassModel3uriERK11QModelIndex@Base 1.4.0
 _ZNK13QgsGrassModel4dataERK11QModelIndexi@Base 1.4.0
 _ZNK13QgsGrassModel5flagsERK11QModelIndex@Base 1.4.0
 _ZNK13QgsGrassModel5indexEiiRK11QModelIndex@Base 1.4.0
 _ZNK13QgsGrassModel6parentERK11QModelIndex@Base 1.4.0
 _ZNK13QgsGrassModel8itemTypeERK11QModelIndex@Base 1.4.0
 _ZNK13QgsGrassModel8rowCountERK11QModelIndex@Base 1.4.0
 _ZNK13QgsGrassShell10metaObjectEv@Base 1.4.0
 _ZNK13QgsGrassTools10metaObjectEv@Base 1.4.0
 _ZNK14K3ShellProcess10metaObjectEv@Base 1.4.0
 _ZNK14QgsGrassModule10metaObjectEv@Base 1.4.0
 _ZNK14QgsGrassPlugin10metaObjectEv@Base 1.4.0
 _ZNK14QgsGrassRegion10metaObjectEv@Base 1.4.0
 _ZNK14QgsGrassSelect10metaObjectEv@Base 1.4.0
 _ZNK15QgsGrassBrowser10metaObjectEv@Base 1.4.0
 _ZNK15QgsGrassMapcalc10metaObjectEv@Base 1.4.0
 _ZNK16QgsGrassEditTool10metaObjectEv@Base 1.4.0
 _ZNK17QgsGrassEditLayer12boundingRectEv@Base 1.4.0
 _ZNK17QgsGrassNewMapset10metaObjectEv@Base 1.4.0
 _ZNK17QgsGrassNewMapset6nextIdEv@Base 1.4.0
 _ZNK18QgsGrassAttributes10metaObjectEv@Base 1.4.0
 _ZNK18QgsGrassModuleFile10metaObjectEv@Base 1.4.0
 _ZNK18QgsGrassModuleFlag10metaObjectEv@Base 1.4.0
 _ZNK19K3ProcessController10metaObjectEv@Base 1.4.0
 _ZNK19K3ProcessController10notifierFdEv@Base 1.4.0
 _ZNK19QgsGrassEditNewLine10metaObjectEv@Base 1.4.0
 _ZNK19QgsGrassMapcalcView10metaObjectEv@Base 1.4.0
 _ZNK19QgsGrassModuleField10metaObjectEv@Base 1.4.0
 _ZNK19QgsGrassModuleInput10metaObjectEv@Base 1.4.0
 _ZNK20QgsGrassEditMoveLine10metaObjectEv@Base 1.4.0
 _ZNK20QgsGrassEditNewPoint10metaObjectEv@Base 1.4.0
 _ZNK20QgsGrassModuleOption10metaObjectEv@Base 1.4.0
 _ZNK21QgsGrassEditAddVertex10metaObjectEv@Base 1.4.0
 _ZNK21QgsGrassEditSplitLine10metaObjectEv@Base 1.4.0
 _ZNK21QgsGrassElementDialog10metaObjectEv@Base 1.4.0
 _ZNK22QgsGrassEditAttributes10metaObjectEv@Base 1.4.0
 _ZNK22QgsGrassEditDeleteLine10metaObjectEv@Base 1.4.0
 _ZNK22QgsGrassEditMoveVertex10metaObjectEv@Base 1.4.0
 _ZNK22QgsGrassModuleCheckBox10metaObjectEv@Base 1.4.0
 _ZNK23QgsGrassModuleGdalInput10metaObjectEv@Base 1.4.0
 _ZNK23QgsGrassModuleSelection10metaObjectEv@Base 1.4.0
 _ZNK24QgsGrassEditDeleteVertex10metaObjectEv@Base 1.4.0
 _ZNK26QgsGrassAttributesKeyPress10metaObjectEv@Base 1.4.0
 _ZNK26QgsGrassModuleGroupBoxItem10metaObjectEv@Base 1.4.0
 _ZNK38QgsGrassEditAttributeTableItemDelegate12createEditorEP7QWidgetRK20QStyleOptionViewItemRK11QModelIndex@Base 1.4.0
 _ZNK38QgsGrassEditAttributeTableItemDelegate12setModelDataEP7QWidgetP18QAbstractItemModelRK11QModelIndex@Base 1.4.0
 _ZNK38QgsGrassEditAttributeTableItemDelegate13setEditorDataEP7QWidgetRK11QModelIndex@Base 1.4.0
 _ZNK4KPty7slaveFdEv@Base 1.4.0
 _ZNK4KPty7ttyNameEv@Base 1.4.0
 _ZNK4KPty8masterFdEv@Base 1.4.0
 _ZNK4KPty9tcGetAttrEP7termios@Base 1.4.0
 _ZNK5QHashI7QStringPN7Konsole18KeyboardTranslatorEE6valuesEv@Base 1.4.0
 _ZNK5QHashI7QStringPN7Konsole18KeyboardTranslatorEE8findNodeERKS0_Pj@Base 1.4.0
 _ZNK5QHashIPN7Konsole7SessionEbE4keysEv@Base 1.4.0
 _ZNK5QHashIPN7Konsole7SessionEbE8findNodeERKS2_Pj@Base 1.4.0
 _ZNK5QHashIi7QStringE8findNodeERKiPj@Base 1.4.0
 _ZNK5QHashIiN7Konsole18KeyboardTranslator5EntryEE8findNodeERKiPj@Base 1.4.0
 _ZNK5QHashIiPN7Konsole6Filter7HotSpotEE6valuesERKi@Base 1.4.0
 _ZNK5QHashIiPN7Konsole6Filter7HotSpotEE8findNodeERKiPj@Base 1.4.0
 _ZNK5QHashIimE8findNodeERKiPj@Base 1.4.0
 _ZNK5QHashItPtE8findNodeERKtPj@Base 1.4.0
 _ZNK5QListI7QStringE2atEi@Base 1.4.0
 _ZNK5QListIN7Konsole24KeyboardTranslatorReader5TokenEEixEi@Base 1.4.0
 _ZNK7Konsole10BlockArray3hasEm@Base 1.4.0
 _ZNK7Konsole10BlockArray9lastBlockEv@Base 1.4.0
 _ZNK7Konsole11FilterChain8hotSpotsEv@Base 1.4.0
 _ZNK7Konsole11FilterChain9hotSpotAtEii@Base 1.4.0
 _ZNK7Konsole12FilterObject10metaObjectEv@Base 1.4.0
 _ZNK7Konsole12RegExpFilter6regExpEv@Base 1.4.0
 _ZNK7Konsole12RegExpFilter7HotSpot13capturedTextsEv@Base 1.4.0
 _ZNK7Konsole12ScreenWindow10metaObjectEv@Base 1.4.0
 _ZNK7Konsole12ScreenWindow11columnCountEv@Base 1.4.0
 _ZNK7Konsole12ScreenWindow11currentLineEv@Base 1.4.0
 _ZNK7Konsole12ScreenWindow11scrollCountEv@Base 1.4.0
 _ZNK7Konsole12ScreenWindow11trackOutputEv@Base 1.4.0
 _ZNK7Konsole12ScreenWindow11windowLinesEv@Base 1.4.0
 _ZNK7Konsole12ScreenWindow12scrollRegionEv@Base 1.4.0
 _ZNK7Konsole12ScreenWindow12selectedTextEb@Base 1.4.0
 _ZNK7Konsole12ScreenWindow13atEndOfOutputEv@Base 1.4.0
 _ZNK7Konsole12ScreenWindow13endWindowLineEv@Base 1.4.0
 _ZNK7Konsole12ScreenWindow13windowColumnsEv@Base 1.4.0
 _ZNK7Konsole12ScreenWindow14cursorPositionEv@Base 1.4.0
 _ZNK7Konsole12ScreenWindow6screenEv@Base 1.4.0
 _ZNK7Konsole12ScreenWindow9lineCountEv@Base 1.4.0
 _ZNK7Konsole12SessionGroup10masterModeEv@Base 1.4.0
 _ZNK7Konsole12SessionGroup10metaObjectEv@Base 1.4.0
 _ZNK7Konsole12SessionGroup12masterStatusEPNS_7SessionE@Base 1.4.0
 _ZNK7Konsole12SessionGroup7mastersEv@Base 1.4.0
 _ZNK7Konsole12SessionGroup8sessionsEv@Base 1.4.0
 _ZNK7Konsole12ShellCommand11fullCommandEv@Base 1.4.0
 _ZNK7Konsole12ShellCommand11isAvailableEv@Base 1.4.0
 _ZNK7Konsole12ShellCommand13isRootCommandEv@Base 1.4.0
 _ZNK7Konsole12ShellCommand7commandEv@Base 1.4.0
 _ZNK7Konsole12ShellCommand9argumentsEv@Base 1.4.0
 _ZNK7Konsole14Vt102Emulation10metaObjectEv@Base 1.4.0
 _ZNK7Konsole14Vt102Emulation8getEraseEv@Base 1.4.0
 _ZNK7Konsole15HistoryTypeFile11getFileNameEv@Base 1.4.0
 _ZNK7Konsole15HistoryTypeFile16maximumLineCountEv@Base 1.4.0
 _ZNK7Konsole15HistoryTypeFile6scrollEPNS_13HistoryScrollE@Base 1.4.0
 _ZNK7Konsole15HistoryTypeFile9isEnabledEv@Base 1.4.0
 _ZNK7Konsole15HistoryTypeNone16maximumLineCountEv@Base 1.4.0
 _ZNK7Konsole15HistoryTypeNone6scrollEPNS_13HistoryScrollE@Base 1.4.0
 _ZNK7Konsole15HistoryTypeNone9isEnabledEv@Base 1.4.0
 _ZNK7Konsole15TerminalDisplay10colorTableEv@Base 1.4.0
 _ZNK7Konsole15TerminalDisplay10metaObjectEv@Base 1.4.0
 _ZNK7Konsole15TerminalDisplay10randomSeedEv@Base 1.4.0
 _ZNK7Konsole15TerminalDisplay11filterChainEv@Base 1.4.0
 _ZNK7Konsole15TerminalDisplay11lineSpacingEv@Base 1.4.0
 _ZNK7Konsole15TerminalDisplay11preeditRectEv@Base 1.4.0
 _ZNK7Konsole15TerminalDisplay12screenWindowEv@Base 1.4.0
 _ZNK7Konsole15TerminalDisplay13hotSpotRegionEv@Base 1.4.0
 _ZNK7Konsole15TerminalDisplay13imageToWidgetERK5QRect@Base 1.4.0
 _ZNK7Konsole15TerminalDisplay14cursorPositionEv@Base 1.4.0
 _ZNK7Konsole15TerminalDisplay16inputMethodQueryEN2Qt16InputMethodQueryE@Base 1.4.0
 _ZNK7Konsole15TerminalDisplay19keyboardCursorColorEv@Base 1.4.0
 _ZNK7Konsole15TerminalDisplay19keyboardCursorShapeEv@Base 1.4.0
 _ZNK7Konsole15TerminalDisplay20getCharacterPositionERK6QPointRiS4_@Base 1.4.0
 _ZNK7Konsole15TerminalDisplay8sizeHintEv@Base 1.4.0
 _ZNK7Konsole15TerminalDisplay9charClassEt@Base 1.4.0
 _ZNK7Konsole15TerminalDisplay9usesMouseEv@Base 1.4.0
 _ZNK7Konsole16PlainTextDecoder18trailingWhitespaceEv@Base 1.4.0
 _ZNK7Konsole17ExtendedCharTable16extendedCharHashEPtt@Base 1.4.0
 _ZNK7Konsole17ExtendedCharTable17extendedCharMatchEtPtt@Base 1.4.0
 _ZNK7Konsole17ExtendedCharTable18lookupExtendedCharEtRt@Base 1.4.0
 _ZNK7Konsole17HistoryTypeBuffer16maximumLineCountEv@Base 1.4.0
 _ZNK7Konsole17HistoryTypeBuffer6scrollEPNS_13HistoryScrollE@Base 1.4.0
 _ZNK7Konsole17HistoryTypeBuffer9isEnabledEv@Base 1.4.0
 _ZNK7Konsole18KeyboardTranslator11descriptionEv@Base 1.4.0
 _ZNK7Konsole18KeyboardTranslator4nameEv@Base 1.4.0
 _ZNK7Konsole18KeyboardTranslator5Entry11escapedTextEb6QFlagsIN2Qt16KeyboardModifierEE@Base 1.4.0
 _ZNK7Konsole18KeyboardTranslator5Entry11insertStateER7QStringi@Base 1.4.0
 _ZNK7Konsole18KeyboardTranslator5Entry14insertModifierER7QStringi@Base 1.4.0
 _ZNK7Konsole18KeyboardTranslator5Entry14resultToStringEb6QFlagsIN2Qt16KeyboardModifierEE@Base 1.4.0
 _ZNK7Konsole18KeyboardTranslator5Entry17conditionToStringEv@Base 1.4.0
 _ZNK7Konsole18KeyboardTranslator5Entry4textEb6QFlagsIN2Qt16KeyboardModifierEE@Base 1.4.0
 _ZNK7Konsole18KeyboardTranslator5Entry7matchesEi6QFlagsIN2Qt16KeyboardModifierEES2_INS0_5StateEE@Base 1.4.0
 _ZNK7Konsole18KeyboardTranslator5Entry8unescapeERK10QByteArray@Base 1.4.0
 _ZNK7Konsole18KeyboardTranslator5EntryeqERKS1_@Base 1.4.0
 _ZNK7Konsole18KeyboardTranslator7entriesEv@Base 1.4.0
 _ZNK7Konsole18KeyboardTranslator9findEntryEi6QFlagsIN2Qt16KeyboardModifierEES1_INS0_5StateEE@Base 1.4.0
 _ZNK7Konsole21HistoryTypeBlockArray16maximumLineCountEv@Base 1.4.0
 _ZNK7Konsole21HistoryTypeBlockArray6scrollEPNS_13HistoryScrollE@Base 1.4.0
 _ZNK7Konsole21HistoryTypeBlockArray9isEnabledEv@Base 1.4.0
 _ZNK7Konsole24KeyboardTranslatorReader11descriptionEv@Base 1.4.0
 _ZNK7Konsole3Pty10metaObjectEv@Base 1.4.0
 _ZNK7Konsole3Pty10windowSizeEv@Base 1.4.0
 _ZNK7Konsole3Pty22foregroundProcessGroupEv@Base 1.4.0
 _ZNK7Konsole3Pty5eraseEv@Base 1.4.0
 _ZNK7Konsole6Filter14hotSpotsAtLineEi@Base 1.4.0
 _ZNK7Konsole6Filter7HotSpot11startColumnEv@Base 1.4.0
 _ZNK7Konsole6Filter7HotSpot4typeEv@Base 1.4.0
 _ZNK7Konsole6Filter7HotSpot7endLineEv@Base 1.4.0
 _ZNK7Konsole6Filter7HotSpot7tooltipEv@Base 1.4.0
 _ZNK7Konsole6Filter7HotSpot9endColumnEv@Base 1.4.0
 _ZNK7Konsole6Filter7HotSpot9startLineEv@Base 1.4.0
 _ZNK7Konsole6Filter8hotSpotsEv@Base 1.4.0
 _ZNK7Konsole6Filter9hotSpotAtEii@Base 1.4.0
 _ZNK7Konsole6Screen10getCursorXEv@Base 1.4.0
 _ZNK7Konsole6Screen10getCursorYEv@Base 1.4.0
 _ZNK7Konsole6Screen10isSelectedEii@Base 1.4.0
 _ZNK7Konsole6Screen12bottomMarginEv@Base 1.4.0
 _ZNK7Konsole6Screen12droppedLinesEv@Base 1.4.0
 _ZNK7Konsole6Screen13scrolledLinesEv@Base 1.4.0
 _ZNK7Konsole6Screen14copyFromScreenEPNS_9CharacterEii@Base 1.4.0
 _ZNK7Konsole6Screen15copyFromHistoryEPNS_9CharacterEii@Base 1.4.0
 _ZNK7Konsole6Screen16isSelectionValidEv@Base 1.4.0
 _ZNK7Konsole6Screen16reverseRenditionERNS_9CharacterE@Base 1.4.0
 _ZNK7Konsole6Screen17getLinePropertiesEii@Base 1.4.0
 _ZNK7Konsole6Screen18lastScrolledRegionEv@Base 1.4.0
 _ZNK7Konsole6Screen7getModeEi@Base 1.4.0
 _ZNK7Konsole6Screen8getImageEPNS_9CharacterEiii@Base 1.4.0
 _ZNK7Konsole6Screen9topMarginEv@Base 1.4.0
 _ZNK7Konsole7Session10metaObjectEv@Base 1.4.0
 _ZNK7Konsole7Session10profileKeyEv@Base 1.4.0
 _ZNK7Konsole7Session11environmentEv@Base 1.4.0
 _ZNK7Konsole7Session11historyTypeEv@Base 1.4.0
 _ZNK7Konsole7Session11keyBindingsEv@Base 1.4.0
 _ZNK7Konsole7Session14tabTitleFormatENS0_15TabTitleContextE@Base 1.4.0
 _ZNK7Konsole7Session16isMonitorSilenceEv@Base 1.4.0
 _ZNK7Konsole7Session17hasDarkBackgroundEv@Base 1.4.0
 _ZNK7Konsole7Session17isMonitorActivityEv@Base 1.4.0
 _ZNK7Konsole7Session18flowControlEnabledEv@Base 1.4.0
 _ZNK7Konsole7Session19foregroundProcessIdEv@Base 1.4.0
 _ZNK7Konsole7Session5titleENS0_9TitleRoleE@Base 1.4.0
 _ZNK7Konsole7Session5viewsEv@Base 1.4.0
 _ZNK7Konsole7Session7programEv@Base 1.4.0
 _ZNK7Konsole7Session8iconNameEv@Base 1.4.0
 _ZNK7Konsole7Session8iconTextEv@Base 1.4.0
 _ZNK7Konsole7Session8sendTextERK7QString@Base 1.4.0
 _ZNK7Konsole7Session8windowIdEv@Base 1.4.0
 _ZNK7Konsole7Session9argumentsEv@Base 1.4.0
 _ZNK7Konsole7Session9emulationEv@Base 1.4.0
 _ZNK7Konsole7Session9isRunningEv@Base 1.4.0
 _ZNK7Konsole7Session9processIdEv@Base 1.4.0
 _ZNK7Konsole7Session9sessionIdEv@Base 1.4.0
 _ZNK7Konsole7Session9userTitleEv@Base 1.4.0
 _ZNK7Konsole9Emulation10metaObjectEv@Base 1.4.0
 _ZNK7Konsole9Emulation16programUsesMouseEv@Base 1.4.0
 _ZNK7Konsole9Emulation8getEraseEv@Base 1.4.0
 _ZNK7Konsole9UrlFilter7HotSpot7tooltipEv@Base 1.4.0
 _ZNK7Konsole9UrlFilter7HotSpot7urlTypeEv@Base 1.4.0
 _ZNK7QString3argEiiiRK5QChar@Base 1.4.0
 _ZNK7QStringeqEPKc@Base 1.4.0
 _ZNK9K3Process10coreDumpedEv@Base 1.4.0
 _ZNK9K3Process10exitSignalEv@Base 1.4.0
 _ZNK9K3Process10exitStatusEv@Base 1.4.0
 _ZNK9K3Process10metaObjectEv@Base 1.4.0
 _ZNK9K3Process10normalExitEv@Base 1.4.0
 _ZNK9K3Process13runPrivilegedEv@Base 1.4.0
 _ZNK9K3Process3pidEv@Base 1.4.0
 _ZNK9K3Process3ptyEv@Base 1.4.0
 _ZNK9K3Process9isRunningEv@Base 1.4.0
 _ZNK9K3Process9signalledEv@Base 1.4.0
 _ZNKSt6vectorI7QStringSaIS0_EE12_M_check_lenEmPKc@Base 1.4.0
 _ZNKSt6vectorIP11QgsMapLayerSaIS1_EE12_M_check_lenEmPKc@Base 1.4.0
 _ZNKSt6vectorIS_I8QgsFieldSaIS0_EESaIS2_EE12_M_check_lenEmPKc@Base 1.4.0
 _ZNSt12_Vector_baseI7QStringSaIS0_EE11_M_allocateEm@Base 1.4.0
 _ZNSt12_Vector_baseIP11QgsMapLayerSaIS1_EE11_M_allocateEm@Base 1.4.0
 _ZNSt12_Vector_baseISt6vectorI8QgsFieldSaIS1_EESaIS3_EE11_M_allocateEm@Base 1.4.0
 _ZNSt6vectorI23QgsGrassMapcalcFunctionSaIS0_EE13_M_insert_auxEN9__gnu_cxx17__normal_iteratorIPS0_S2_EERKS0_@Base 1.4.0
 _ZNSt6vectorI23QgsGrassMapcalcFunctionSaIS0_EED1Ev@Base 1.4.0
 _ZNSt6vectorI4QPenSaIS0_EE14_M_fill_insertEN9__gnu_cxx17__normal_iteratorIPS0_S2_EEmRKS0_@Base 1.4.0
 _ZNSt6vectorI4QPenSaIS0_EE6resizeEmS0_@Base 1.4.0
 _ZNSt6vectorI4QPenSaIS0_EED1Ev@Base 1.4.0
 _ZNSt6vectorI6MaxCatSaIS0_EE13_M_insert_auxEN9__gnu_cxx17__normal_iteratorIPS0_S2_EERKS0_@Base 1.4.0
 _ZNSt6vectorI6MaxCatSaIS0_EED1Ev@Base 1.4.0
 _ZNSt6vectorI6QPointSaIS0_EE14_M_fill_insertEN9__gnu_cxx17__normal_iteratorIPS0_S2_EEmRKS0_@Base 1.4.0
 _ZNSt6vectorI6QPointSaIS0_EED1Ev@Base 1.4.0
 _ZNSt6vectorI7QPixmapSaIS0_EE13_M_insert_auxEN9__gnu_cxx17__normal_iteratorIPS0_S2_EERKS0_@Base 1.4.0
 _ZNSt6vectorI7QPixmapSaIS0_EED1Ev@Base 1.4.0
 _ZNSt6vectorI7QStringSaIS0_EE13_M_insert_auxEN9__gnu_cxx17__normal_iteratorIPS0_S2_EERKS0_@Base 1.4.0
 _ZNSt6vectorI7QStringSaIS0_EE14_M_fill_insertEN9__gnu_cxx17__normal_iteratorIPS0_S2_EEmRKS0_@Base 1.4.0
 _ZNSt6vectorI7QStringSaIS0_EE9push_backERKS0_@Base 1.4.0
 _ZNSt6vectorI7QStringSaIS0_EED1Ev@Base 1.4.0
 _ZNSt6vectorI8QgsFieldSaIS0_EE13_M_insert_auxEN9__gnu_cxx17__normal_iteratorIPS0_S2_EERKS0_@Base 1.4.0
 _ZNSt6vectorI8QgsFieldSaIS0_EEC1ERKS2_@Base 1.4.0
 _ZNSt6vectorI8QgsFieldSaIS0_EED1Ev@Base 1.4.0
 _ZNSt6vectorI8QgsFieldSaIS0_EEaSERKS2_@Base 1.4.0
 _ZNSt6vectorI8QgsPointSaIS0_EE13_M_insert_auxEN9__gnu_cxx17__normal_iteratorIPS0_S2_EERKS0_@Base 1.4.0
 _ZNSt6vectorI8QgsPointSaIS0_EE14_M_fill_insertEN9__gnu_cxx17__normal_iteratorIPS0_S2_EEmRKS0_@Base 1.4.0
 _ZNSt6vectorI8QgsPointSaIS0_EE9push_backERKS0_@Base 1.4.0
 _ZNSt6vectorI8QgsPointSaIS0_EED1Ev@Base 1.4.0
 _ZNSt6vectorIP11QgsMapLayerSaIS1_EE13_M_insert_auxEN9__gnu_cxx17__normal_iteratorIPS1_S3_EERKS1_@Base 1.4.0
 _ZNSt6vectorIP11QgsMapLayerSaIS1_EE14_M_fill_insertEN9__gnu_cxx17__normal_iteratorIPS1_S3_EEmRKS1_@Base 1.4.0
 _ZNSt6vectorIP11QgsMapLayerSaIS1_EED1Ev@Base 1.4.0
 _ZNSt6vectorIP18QgsGrassModuleItemSaIS1_EE13_M_insert_auxEN9__gnu_cxx17__normal_iteratorIPS1_S3_EERKS1_@Base 1.4.0
 _ZNSt6vectorIP18QgsGrassModuleItemSaIS1_EE9push_backERKS1_@Base 1.4.0
 _ZNSt6vectorIP18QgsGrassModuleItemSaIS1_EED1Ev@Base 1.4.0
 _ZNSt6vectorIP21QgsGrassMapcalcObjectSaIS1_EE14_M_fill_insertEN9__gnu_cxx17__normal_iteratorIPS1_S3_EEmRKS1_@Base 1.4.0
 _ZNSt6vectorIP21QgsGrassMapcalcObjectSaIS1_EED1Ev@Base 1.4.0
 _ZNSt6vectorIP22QgsGrassModuleCheckBoxSaIS1_EE13_M_insert_auxEN9__gnu_cxx17__normal_iteratorIPS1_S3_EERKS1_@Base 1.4.0
 _ZNSt6vectorIP22QgsGrassModuleCheckBoxSaIS1_EED1Ev@Base 1.4.0
 _ZNSt6vectorIP24QgsGrassMapcalcConnectorSaIS1_EE14_M_fill_insertEN9__gnu_cxx17__normal_iteratorIPS1_S3_EEmRKS1_@Base 1.4.0
 _ZNSt6vectorIP24QgsGrassMapcalcConnectorSaIS1_EED1Ev@Base 1.4.0
 _ZNSt6vectorIP9QLineEditSaIS1_EE13_M_insert_auxEN9__gnu_cxx17__normal_iteratorIPS1_S3_EERKS1_@Base 1.4.0
 _ZNSt6vectorIP9QLineEditSaIS1_EED1Ev@Base 1.4.0
 _ZNSt6vectorIS_I8QgsFieldSaIS0_EESaIS2_EE13_M_insert_auxEN9__gnu_cxx17__normal_iteratorIPS2_S4_EERKS2_@Base 1.4.0
 _ZNSt6vectorIS_I8QgsFieldSaIS0_EESaIS2_EE14_M_fill_insertEN9__gnu_cxx17__normal_iteratorIPS2_S4_EEmRKS2_@Base 1.4.0
 _ZNSt6vectorIS_I8QgsFieldSaIS0_EESaIS2_EE6resizeEmS2_@Base 1.4.0
 _ZNSt6vectorIS_I8QgsFieldSaIS0_EESaIS2_EED1Ev@Base 1.4.0
 _ZNSt6vectorIbSaIbEE14_M_fill_insertESt13_Bit_iteratormb@Base 1.4.0
 _ZNSt6vectorIbSaIbEED1Ev@Base 1.4.0
 _ZNSt6vectorIiSaIiEE14_M_fill_insertEN9__gnu_cxx17__normal_iteratorIPiS1_EEmRKi@Base 1.4.0
 _ZNSt6vectorIiSaIiEED1Ev@Base 1.4.0
 _ZSt22__uninitialized_move_aIP4QPenS1_SaIS0_EET0_T_S4_S3_RT1_@Base 1.4.0
 _ZSt22__uninitialized_move_aIP7QStringS1_SaIS0_EET0_T_S4_S3_RT1_@Base 1.4.0
 _ZSt22__uninitialized_move_aIP8QgsPointS1_SaIS0_EET0_T_S4_S3_RT1_@Base 1.4.0
 _ZSt22__uninitialized_move_aIPP11QgsMapLayerS2_SaIS1_EET0_T_S5_S4_RT1_@Base 1.4.0
 _ZSt22__uninitialized_move_aIPP21QgsGrassMapcalcObjectS2_SaIS1_EET0_T_S5_S4_RT1_@Base 1.4.0
 _ZSt22__uninitialized_move_aIPP24QgsGrassMapcalcConnectorS2_SaIS1_EET0_T_S5_S4_RT1_@Base 1.4.0
 _ZSt22__uninitialized_move_aIPSt6vectorI8QgsFieldSaIS1_EES4_SaIS3_EET0_T_S7_S6_RT1_@Base 1.4.0
 _ZSt22__uninitialized_move_aIPiS0_SaIiEET0_T_S3_S2_RT1_@Base 1.4.0
 _ZSt24__uninitialized_fill_n_aIP4QPenmS0_S0_EvT_T0_RKT1_RSaIT2_E@Base 1.4.0
 _ZSt24__uninitialized_fill_n_aIP7QStringmS0_S0_EvT_T0_RKT1_RSaIT2_E@Base 1.4.0
 _ZSt24__uninitialized_fill_n_aIP8QgsPointmS0_S0_EvT_T0_RKT1_RSaIT2_E@Base 1.4.0
 _ZTI10QgisPlugin@Base 1.4.0
 _ZTI11QTermWidget@Base 1.4.0
 _ZTI12QgsException@Base 1.4.0
 _ZTI12QgsGrassEdit@Base 1.4.0
 _ZTI13QgsGrassModel@Base 1.4.0
 _ZTI13QgsGrassShell@Base 1.4.0
 _ZTI13QgsGrassTools@Base 1.4.0
 _ZTI14K3ShellProcess@Base 1.4.0
 _ZTI14QgsCsException@Base 1.4.0
 _ZTI14QgsGrassModule@Base 1.4.0
 _ZTI14QgsGrassPlugin@Base 1.4.0
 _ZTI14QgsGrassRegion@Base 1.4.0
 _ZTI14QgsGrassSelect@Base 1.4.0
 _ZTI15QgsGrassBrowser@Base 1.4.0
 _ZTI15QgsGrassMapcalc@Base 1.4.0
 _ZTI16QgsGrassEditTool@Base 1.4.0
 _ZTI17QgsGrassEditLayer@Base 1.4.0
 _ZTI17QgsGrassNewMapset@Base 1.4.0
 _ZTI18QgsGrassAttributes@Base 1.4.0
 _ZTI18QgsGrassModuleFile@Base 1.4.0
 _ZTI18QgsGrassModuleFlag@Base 1.4.0
 _ZTI18QgsGrassModuleItem@Base 1.4.0
 _ZTI18QgsGrassRegionEdit@Base 1.4.0
 _ZTI19K3ProcessController@Base 1.4.0
 _ZTI19QgsGrassEditNewLine@Base 1.4.0
 _ZTI19QgsGrassMapcalcItem@Base 1.4.0
 _ZTI19QgsGrassMapcalcView@Base 1.4.0
 _ZTI19QgsGrassModuleField@Base 1.4.0
 _ZTI19QgsGrassModuleInput@Base 1.4.0
 _ZTI19Ui_QgsGrassEditBase@Base 1.4.0
 _ZTI20QgsGrassEditMoveLine@Base 1.4.0
 _ZTI20QgsGrassEditNewPoint@Base 1.4.0
 _ZTI20QgsGrassModuleOption@Base 1.4.0
 _ZTI20Ui_QgsGrassToolsBase@Base 1.4.0
 _ZTI21QgsGrassEditAddVertex@Base 1.4.0
 _ZTI21QgsGrassEditSplitLine@Base 1.4.0
 _ZTI21QgsGrassElementDialog@Base 1.4.0
 _ZTI21QgsGrassMapcalcObject@Base 1.4.0
 _ZTI21QgsGrassModuleOptions@Base 1.4.0
 _ZTI21Ui_QgsGrassModuleBase@Base 1.4.0
 _ZTI21Ui_QgsGrassRegionBase@Base 1.4.0
 _ZTI21Ui_QgsGrassSelectBase@Base 1.4.0
 _ZTI22QgsGrassEditAttributes@Base 1.4.0
 _ZTI22QgsGrassEditDeleteLine@Base 1.4.0
 _ZTI22QgsGrassEditMoveVertex@Base 1.4.0
 _ZTI22QgsGrassModuleCheckBox@Base 1.4.0
 _ZTI22Ui_QgsGrassMapcalcBase@Base 1.4.0
 _ZTI23QgsGrassModuleGdalInput@Base 1.4.0
 _ZTI23QgsGrassModuleSelection@Base 1.4.0
 _ZTI24QgsGrassEditDeleteVertex@Base 1.4.0
 _ZTI24QgsGrassMapcalcConnector@Base 1.4.0
 _ZTI24Ui_QgsGrassNewMapsetBase@Base 1.4.0
 _ZTI25Ui_QgsGrassAttributesBase@Base 1.4.0
 _ZTI26QgsGrassAttributesKeyPress@Base 1.4.0
 _ZTI26QgsGrassModuleGroupBoxItem@Base 1.4.0
 _ZTI29QgsGrassModuleStandardOptions@Base 1.4.0
 _ZTI38QgsGrassEditAttributeTableItemDelegate@Base 1.4.0
 _ZTI5QListIPN7Konsole6FilterEE@Base 1.4.0
 _ZTI9K3Process@Base 1.4.0
 _ZTIN2Ui16QgsGrassEditBaseE@Base 1.4.0
 _ZTIN2Ui17QgsGrassToolsBaseE@Base 1.4.0
 _ZTIN2Ui18QgsGrassModuleBaseE@Base 1.4.0
 _ZTIN2Ui18QgsGrassRegionBaseE@Base 1.4.0
 _ZTIN2Ui18QgsGrassSelectBaseE@Base 1.4.0
 _ZTIN2Ui19QgsGrassMapcalcBaseE@Base 1.4.0
 _ZTIN2Ui21QgsGrassNewMapsetBaseE@Base 1.4.0
 _ZTIN2Ui22QgsGrassAttributesBaseE@Base 1.4.0
 _ZTIN7Konsole11FilterChainE@Base 1.4.0
 _ZTIN7Konsole11HTMLDecoderE@Base 1.4.0
 _ZTIN7Konsole11HistoryFileE@Base 1.4.0
 _ZTIN7Konsole11HistoryTypeE@Base 1.4.0
 _ZTIN7Konsole12FilterObjectE@Base 1.4.0
 _ZTIN7Konsole12RegExpFilter7HotSpotE@Base 1.4.0
 _ZTIN7Konsole12RegExpFilterE@Base 1.4.0
 _ZTIN7Konsole12ScreenWindowE@Base 1.4.0
 _ZTIN7Konsole12SessionGroupE@Base 1.4.0
 _ZTIN7Konsole13HistoryScrollE@Base 1.4.0
 _ZTIN7Konsole14Vt102EmulationE@Base 1.4.0
 _ZTIN7Konsole15HistoryTypeFileE@Base 1.4.0
 _ZTIN7Konsole15HistoryTypeNoneE@Base 1.4.0
 _ZTIN7Konsole15TerminalDisplayE@Base 1.4.0
 _ZTIN7Konsole16PlainTextDecoderE@Base 1.4.0
 _ZTIN7Konsole17HistoryScrollFileE@Base 1.4.0
 _ZTIN7Konsole17HistoryScrollNoneE@Base 1.4.0
 _ZTIN7Konsole17HistoryTypeBufferE@Base 1.4.0
 _ZTIN7Konsole19HistoryScrollBufferE@Base 1.4.0
 _ZTIN7Konsole21HistoryTypeBlockArrayE@Base 1.4.0
 _ZTIN7Konsole23HistoryScrollBlockArrayE@Base 1.4.0
 _ZTIN7Konsole24TerminalCharacterDecoderE@Base 1.4.0
 _ZTIN7Konsole24TerminalImageFilterChainE@Base 1.4.0
 _ZTIN7Konsole3PtyE@Base 1.4.0
 _ZTIN7Konsole6Filter7HotSpotE@Base 1.4.0
 _ZTIN7Konsole6FilterE@Base 1.4.0
 _ZTIN7Konsole7SessionE@Base 1.4.0
 _ZTIN7Konsole9EmulationE@Base 1.4.0
 _ZTIN7Konsole9UrlFilter7HotSpotE@Base 1.4.0
 _ZTIN7Konsole9UrlFilterE@Base 1.4.0
 _ZTIN8QgsGrass9ExceptionE@Base 1.4.0
 _ZTS10QgisPlugin@Base 1.4.0
 _ZTS11QTermWidget@Base 1.4.0
 _ZTS12QgsException@Base 1.4.0
 _ZTS12QgsGrassEdit@Base 1.4.0
 _ZTS13QgsGrassModel@Base 1.4.0
 _ZTS13QgsGrassShell@Base 1.4.0
 _ZTS13QgsGrassTools@Base 1.4.0
 _ZTS14K3ShellProcess@Base 1.4.0
 _ZTS14QgsCsException@Base 1.4.0
 _ZTS14QgsGrassModule@Base 1.4.0
 _ZTS14QgsGrassPlugin@Base 1.4.0
 _ZTS14QgsGrassRegion@Base 1.4.0
 _ZTS14QgsGrassSelect@Base 1.4.0
 _ZTS15QgsGrassBrowser@Base 1.4.0
 _ZTS15QgsGrassMapcalc@Base 1.4.0
 _ZTS16QgsGrassEditTool@Base 1.4.0
 _ZTS17QgsGrassEditLayer@Base 1.4.0
 _ZTS17QgsGrassNewMapset@Base 1.4.0
 _ZTS18QgsGrassAttributes@Base 1.4.0
 _ZTS18QgsGrassModuleFile@Base 1.4.0
 _ZTS18QgsGrassModuleFlag@Base 1.4.0
 _ZTS18QgsGrassModuleItem@Base 1.4.0
 _ZTS18QgsGrassRegionEdit@Base 1.4.0
 _ZTS19K3ProcessController@Base 1.4.0
 _ZTS19QgsGrassEditNewLine@Base 1.4.0
 _ZTS19QgsGrassMapcalcItem@Base 1.4.0
 _ZTS19QgsGrassMapcalcView@Base 1.4.0
 _ZTS19QgsGrassModuleField@Base 1.4.0
 _ZTS19QgsGrassModuleInput@Base 1.4.0
 _ZTS19Ui_QgsGrassEditBase@Base 1.4.0
 _ZTS20QgsGrassEditMoveLine@Base 1.4.0
 _ZTS20QgsGrassEditNewPoint@Base 1.4.0
 _ZTS20QgsGrassModuleOption@Base 1.4.0
 _ZTS20Ui_QgsGrassToolsBase@Base 1.4.0
 _ZTS21QgsGrassEditAddVertex@Base 1.4.0
 _ZTS21QgsGrassEditSplitLine@Base 1.4.0
 _ZTS21QgsGrassElementDialog@Base 1.4.0
 _ZTS21QgsGrassMapcalcObject@Base 1.4.0
 _ZTS21QgsGrassModuleOptions@Base 1.4.0
 _ZTS21Ui_QgsGrassModuleBase@Base 1.4.0
 _ZTS21Ui_QgsGrassRegionBase@Base 1.4.0
 _ZTS21Ui_QgsGrassSelectBase@Base 1.4.0
 _ZTS22QgsGrassEditAttributes@Base 1.4.0
 _ZTS22QgsGrassEditDeleteLine@Base 1.4.0
 _ZTS22QgsGrassEditMoveVertex@Base 1.4.0
 _ZTS22QgsGrassModuleCheckBox@Base 1.4.0
 _ZTS22Ui_QgsGrassMapcalcBase@Base 1.4.0
 _ZTS23QgsGrassModuleGdalInput@Base 1.4.0
 _ZTS23QgsGrassModuleSelection@Base 1.4.0
 _ZTS24QgsGrassEditDeleteVertex@Base 1.4.0
 _ZTS24QgsGrassMapcalcConnector@Base 1.4.0
 _ZTS24Ui_QgsGrassNewMapsetBase@Base 1.4.0
 _ZTS25Ui_QgsGrassAttributesBase@Base 1.4.0
 _ZTS26QgsGrassAttributesKeyPress@Base 1.4.0
 _ZTS26QgsGrassModuleGroupBoxItem@Base 1.4.0
 _ZTS29QgsGrassModuleStandardOptions@Base 1.4.0
 _ZTS38QgsGrassEditAttributeTableItemDelegate@Base 1.4.0
 _ZTS5QListIPN7Konsole6FilterEE@Base 1.4.0
 _ZTS9K3Process@Base 1.4.0
 _ZTSN2Ui16QgsGrassEditBaseE@Base 1.4.0
 _ZTSN2Ui17QgsGrassToolsBaseE@Base 1.4.0
 _ZTSN2Ui18QgsGrassModuleBaseE@Base 1.4.0
 _ZTSN2Ui18QgsGrassRegionBaseE@Base 1.4.0
 _ZTSN2Ui18QgsGrassSelectBaseE@Base 1.4.0
 _ZTSN2Ui19QgsGrassMapcalcBaseE@Base 1.4.0
 _ZTSN2Ui21QgsGrassNewMapsetBaseE@Base 1.4.0
 _ZTSN2Ui22QgsGrassAttributesBaseE@Base 1.4.0
 _ZTSN7Konsole11FilterChainE@Base 1.4.0
 _ZTSN7Konsole11HTMLDecoderE@Base 1.4.0
 _ZTSN7Konsole11HistoryFileE@Base 1.4.0
 _ZTSN7Konsole11HistoryTypeE@Base 1.4.0
 _ZTSN7Konsole12FilterObjectE@Base 1.4.0
 _ZTSN7Konsole12RegExpFilter7HotSpotE@Base 1.4.0
 _ZTSN7Konsole12RegExpFilterE@Base 1.4.0
 _ZTSN7Konsole12ScreenWindowE@Base 1.4.0
 _ZTSN7Konsole12SessionGroupE@Base 1.4.0
 _ZTSN7Konsole13HistoryScrollE@Base 1.4.0
 _ZTSN7Konsole14Vt102EmulationE@Base 1.4.0
 _ZTSN7Konsole15HistoryTypeFileE@Base 1.4.0
 _ZTSN7Konsole15HistoryTypeNoneE@Base 1.4.0
 _ZTSN7Konsole15TerminalDisplayE@Base 1.4.0
 _ZTSN7Konsole16PlainTextDecoderE@Base 1.4.0
 _ZTSN7Konsole17HistoryScrollFileE@Base 1.4.0
 _ZTSN7Konsole17HistoryScrollNoneE@Base 1.4.0
 _ZTSN7Konsole17HistoryTypeBufferE@Base 1.4.0
 _ZTSN7Konsole19HistoryScrollBufferE@Base 1.4.0
 _ZTSN7Konsole21HistoryTypeBlockArrayE@Base 1.4.0
 _ZTSN7Konsole23HistoryScrollBlockArrayE@Base 1.4.0
 _ZTSN7Konsole24TerminalCharacterDecoderE@Base 1.4.0
 _ZTSN7Konsole24TerminalImageFilterChainE@Base 1.4.0
 _ZTSN7Konsole3PtyE@Base 1.4.0
 _ZTSN7Konsole6Filter7HotSpotE@Base 1.4.0
 _ZTSN7Konsole6FilterE@Base 1.4.0
 _ZTSN7Konsole7SessionE@Base 1.4.0
 _ZTSN7Konsole9EmulationE@Base 1.4.0
 _ZTSN7Konsole9UrlFilter7HotSpotE@Base 1.4.0
 _ZTSN7Konsole9UrlFilterE@Base 1.4.0
 _ZTSN8QgsGrass9ExceptionE@Base 1.4.0
 _ZTV10QgisPlugin@Base 1.4.0
 _ZTV11QTermWidget@Base 1.4.0
 _ZTV12QgsGrassEdit@Base 1.4.0
 _ZTV13QgsGrassModel@Base 1.4.0
 _ZTV13QgsGrassShell@Base 1.4.0
 _ZTV13QgsGrassTools@Base 1.4.0
 _ZTV14K3ShellProcess@Base 1.4.0
 _ZTV14QgsGrassModule@Base 1.4.0
 _ZTV14QgsGrassPlugin@Base 1.4.0
 _ZTV14QgsGrassRegion@Base 1.4.0
 _ZTV14QgsGrassSelect@Base 1.4.0
 _ZTV15QgsGrassBrowser@Base 1.4.0
 _ZTV15QgsGrassMapcalc@Base 1.4.0
 _ZTV16QgsGrassEditTool@Base 1.4.0
 _ZTV17QgsGrassEditLayer@Base 1.4.0
 _ZTV17QgsGrassNewMapset@Base 1.4.0
 _ZTV18QgsGrassAttributes@Base 1.4.0
 _ZTV18QgsGrassModuleFile@Base 1.4.0
 _ZTV18QgsGrassModuleFlag@Base 1.4.0
 _ZTV18QgsGrassModuleItem@Base 1.4.0
 _ZTV18QgsGrassRegionEdit@Base 1.4.0
 _ZTV19K3ProcessController@Base 1.4.0
 _ZTV19QgsGrassEditNewLine@Base 1.4.0
 _ZTV19QgsGrassMapcalcItem@Base 1.4.0
 _ZTV19QgsGrassMapcalcView@Base 1.4.0
 _ZTV19QgsGrassModuleField@Base 1.4.0
 _ZTV19QgsGrassModuleInput@Base 1.4.0
 _ZTV20QgsGrassEditMoveLine@Base 1.4.0
 _ZTV20QgsGrassEditNewPoint@Base 1.4.0
 _ZTV20QgsGrassModuleOption@Base 1.4.0
 _ZTV21QgsGrassEditAddVertex@Base 1.4.0
 _ZTV21QgsGrassEditSplitLine@Base 1.4.0
 _ZTV21QgsGrassElementDialog@Base 1.4.0
 _ZTV21QgsGrassMapcalcObject@Base 1.4.0
 _ZTV21QgsGrassModuleOptions@Base 1.4.0
 _ZTV22QgsGrassEditAttributes@Base 1.4.0
 _ZTV22QgsGrassEditDeleteLine@Base 1.4.0
 _ZTV22QgsGrassEditMoveVertex@Base 1.4.0
 _ZTV22QgsGrassModuleCheckBox@Base 1.4.0
 _ZTV23QgsGrassModuleGdalInput@Base 1.4.0
 _ZTV23QgsGrassModuleSelection@Base 1.4.0
 _ZTV24QgsGrassEditDeleteVertex@Base 1.4.0
 _ZTV24QgsGrassMapcalcConnector@Base 1.4.0
 _ZTV26QgsGrassAttributesKeyPress@Base 1.4.0
 _ZTV26QgsGrassModuleGroupBoxItem@Base 1.4.0
 _ZTV29QgsGrassModuleStandardOptions@Base 1.4.0
 _ZTV38QgsGrassEditAttributeTableItemDelegate@Base 1.4.0
 _ZTV9K3Process@Base 1.4.0
 _ZTVN7Konsole11FilterChainE@Base 1.4.0
 _ZTVN7Konsole11HTMLDecoderE@Base 1.4.0
 _ZTVN7Konsole11HistoryFileE@Base 1.4.0
 _ZTVN7Konsole11HistoryTypeE@Base 1.4.0
 _ZTVN7Konsole12FilterObjectE@Base 1.4.0
 _ZTVN7Konsole12RegExpFilter7HotSpotE@Base 1.4.0
 _ZTVN7Konsole12RegExpFilterE@Base 1.4.0
 _ZTVN7Konsole12ScreenWindowE@Base 1.4.0
 _ZTVN7Konsole12SessionGroupE@Base 1.4.0
 _ZTVN7Konsole13HistoryScrollE@Base 1.4.0
 _ZTVN7Konsole14Vt102EmulationE@Base 1.4.0
 _ZTVN7Konsole15HistoryTypeFileE@Base 1.4.0
 _ZTVN7Konsole15HistoryTypeNoneE@Base 1.4.0
 _ZTVN7Konsole15TerminalDisplayE@Base 1.4.0
 _ZTVN7Konsole16PlainTextDecoderE@Base 1.4.0
 _ZTVN7Konsole17HistoryScrollFileE@Base 1.4.0
 _ZTVN7Konsole17HistoryScrollNoneE@Base 1.4.0
 _ZTVN7Konsole17HistoryTypeBufferE@Base 1.4.0
 _ZTVN7Konsole19HistoryScrollBufferE@Base 1.4.0
 _ZTVN7Konsole21HistoryTypeBlockArrayE@Base 1.4.0
 _ZTVN7Konsole23HistoryScrollBlockArrayE@Base 1.4.0
 _ZTVN7Konsole24TerminalCharacterDecoderE@Base 1.4.0
 _ZTVN7Konsole24TerminalImageFilterChainE@Base 1.4.0
 _ZTVN7Konsole3PtyE@Base 1.4.0
 _ZTVN7Konsole6Filter7HotSpotE@Base 1.4.0
 _ZTVN7Konsole6FilterE@Base 1.4.0
 _ZTVN7Konsole7SessionE@Base 1.4.0
 _ZTVN7Konsole9EmulationE@Base 1.4.0
 _ZTVN7Konsole9UrlFilter7HotSpotE@Base 1.4.0
 _ZTVN7Konsole9UrlFilterE@Base 1.4.0
 _ZThn144_N15QgsGrassMapcalc10usesRegionEv@Base 1.4.0
 _ZThn144_N15QgsGrassMapcalc11checkOutputEv@Base 1.4.0
 _ZThn144_N15QgsGrassMapcalc11checkRegionEv@Base 1.4.0
 _ZThn144_N15QgsGrassMapcalc11inputRegionEP9Cell_headb@Base 1.4.0
 _ZThn144_N15QgsGrassMapcalc14requestsRegionEv@Base 1.4.0
 _ZThn144_N15QgsGrassMapcalc5readyEv@Base 1.4.0
 _ZThn144_N15QgsGrassMapcalc6outputEi@Base 1.4.0
 _ZThn144_N15QgsGrassMapcalc9argumentsEv@Base 1.4.0
 _ZThn144_N15QgsGrassMapcalcD0Ev@Base 1.4.0
 _ZThn144_N15QgsGrassMapcalcD1Ev@Base 1.4.0
 _ZThn16_N11QTermWidgetD0Ev@Base 1.4.0
 _ZThn16_N11QTermWidgetD1Ev@Base 1.4.0
 _ZThn16_N12QgsGrassEditD0Ev@Base 1.4.0
 _ZThn16_N12QgsGrassEditD1Ev@Base 1.4.0
 _ZThn16_N13QgsGrassShellD0Ev@Base 1.4.0
 _ZThn16_N13QgsGrassShellD1Ev@Base 1.4.0
 _ZThn16_N13QgsGrassToolsD0Ev@Base 1.4.0
 _ZThn16_N13QgsGrassToolsD1Ev@Base 1.4.0
 _ZThn16_N14QgsGrassModuleD0Ev@Base 1.4.0
 _ZThn16_N14QgsGrassModuleD1Ev@Base 1.4.0
 _ZThn16_N14QgsGrassPlugin6unloadEv@Base 1.4.0
 _ZThn16_N14QgsGrassPlugin7initGuiEv@Base 1.4.0
 _ZThn16_N14QgsGrassPluginD0Ev@Base 1.4.0
 _ZThn16_N14QgsGrassPluginD1Ev@Base 1.4.0
 _ZThn16_N14QgsGrassRegionD0Ev@Base 1.4.0
 _ZThn16_N14QgsGrassRegionD1Ev@Base 1.4.0
 _ZThn16_N14QgsGrassSelectD0Ev@Base 1.4.0
 _ZThn16_N14QgsGrassSelectD1Ev@Base 1.4.0
 _ZThn16_N15QgsGrassBrowserD0Ev@Base 1.4.0
 _ZThn16_N15QgsGrassBrowserD1Ev@Base 1.4.0
 _ZThn16_N15QgsGrassMapcalcD0Ev@Base 1.4.0
 _ZThn16_N15QgsGrassMapcalcD1Ev@Base 1.4.0
 _ZThn16_N17QgsGrassNewMapsetD0Ev@Base 1.4.0
 _ZThn16_N17QgsGrassNewMapsetD1Ev@Base 1.4.0
 _ZThn16_N18QgsGrassAttributesD0Ev@Base 1.4.0
 _ZThn16_N18QgsGrassAttributesD1Ev@Base 1.4.0
 _ZThn16_N18QgsGrassModuleFileD0Ev@Base 1.4.0
 _ZThn16_N18QgsGrassModuleFileD1Ev@Base 1.4.0
 _ZThn16_N18QgsGrassModuleFlagD0Ev@Base 1.4.0
 _ZThn16_N18QgsGrassModuleFlagD1Ev@Base 1.4.0
 _ZThn16_N19QgsGrassMapcalcViewD0Ev@Base 1.4.0
 _ZThn16_N19QgsGrassMapcalcViewD1Ev@Base 1.4.0
 _ZThn16_N19QgsGrassModuleFieldD0Ev@Base 1.4.0
 _ZThn16_N19QgsGrassModuleFieldD1Ev@Base 1.4.0
 _ZThn16_N19QgsGrassModuleInputD0Ev@Base 1.4.0
 _ZThn16_N19QgsGrassModuleInputD1Ev@Base 1.4.0
 _ZThn16_N20QgsGrassModuleOptionD0Ev@Base 1.4.0
 _ZThn16_N20QgsGrassModuleOptionD1Ev@Base 1.4.0
 _ZThn16_N21QgsGrassMapcalcObject11setSelectedEb@Base 1.4.0
 _ZThn16_N21QgsGrassMapcalcObjectD0Ev@Base 1.4.0
 _ZThn16_N21QgsGrassMapcalcObjectD1Ev@Base 1.4.0
 _ZThn16_N22QgsGrassModuleCheckBoxD0Ev@Base 1.4.0
 _ZThn16_N22QgsGrassModuleCheckBoxD1Ev@Base 1.4.0
 _ZThn16_N23QgsGrassModuleGdalInputD0Ev@Base 1.4.0
 _ZThn16_N23QgsGrassModuleGdalInputD1Ev@Base 1.4.0
 _ZThn16_N23QgsGrassModuleSelectionD0Ev@Base 1.4.0
 _ZThn16_N23QgsGrassModuleSelectionD1Ev@Base 1.4.0
 _ZThn16_N24QgsGrassMapcalcConnector11setSelectedEb@Base 1.4.0
 _ZThn16_N24QgsGrassMapcalcConnectorD0Ev@Base 1.4.0
 _ZThn16_N24QgsGrassMapcalcConnectorD1Ev@Base 1.4.0
 _ZThn16_N26QgsGrassModuleGroupBoxItemD0Ev@Base 1.4.0
 _ZThn16_N26QgsGrassModuleGroupBoxItemD1Ev@Base 1.4.0
 _ZThn16_N7Konsole15TerminalDisplayD0Ev@Base 1.4.0
 _ZThn16_N7Konsole15TerminalDisplayD1Ev@Base 1.4.0
 _ZThn40_N18QgsGrassModuleFile5readyEv@Base 1.4.0
 _ZThn40_N18QgsGrassModuleFile7optionsEv@Base 1.4.0
 _ZThn40_N18QgsGrassModuleFileD0Ev@Base 1.4.0
 _ZThn40_N18QgsGrassModuleFileD1Ev@Base 1.4.0
 _ZThn40_N19QgsGrassModuleField7optionsEv@Base 1.4.0
 _ZThn40_N19QgsGrassModuleFieldD0Ev@Base 1.4.0
 _ZThn40_N19QgsGrassModuleFieldD1Ev@Base 1.4.0
 _ZThn40_N19QgsGrassModuleInput5readyEv@Base 1.4.0
 _ZThn40_N19QgsGrassModuleInput7optionsEv@Base 1.4.0
 _ZThn40_N19QgsGrassModuleInputD0Ev@Base 1.4.0
 _ZThn40_N19QgsGrassModuleInputD1Ev@Base 1.4.0
 _ZThn40_N20QgsGrassModuleOption5readyEv@Base 1.4.0
 _ZThn40_N20QgsGrassModuleOption7optionsEv@Base 1.4.0
 _ZThn40_N20QgsGrassModuleOptionD0Ev@Base 1.4.0
 _ZThn40_N20QgsGrassModuleOptionD1Ev@Base 1.4.0
 _ZThn40_N23QgsGrassModuleGdalInput5readyEv@Base 1.4.0
 _ZThn40_N23QgsGrassModuleGdalInput7optionsEv@Base 1.4.0
 _ZThn40_N23QgsGrassModuleGdalInputD0Ev@Base 1.4.0
 _ZThn40_N23QgsGrassModuleGdalInputD1Ev@Base 1.4.0
 _ZThn40_N23QgsGrassModuleSelection7optionsEv@Base 1.4.0
 _ZThn40_N23QgsGrassModuleSelectionD0Ev@Base 1.4.0
 _ZThn40_N23QgsGrassModuleSelectionD1Ev@Base 1.4.0
 _ZThn40_N26QgsGrassModuleGroupBoxItemD0Ev@Base 1.4.0
 _ZThn40_N26QgsGrassModuleGroupBoxItemD1Ev@Base 1.4.0
 _ZThn56_N18QgsGrassModuleFlag7optionsEv@Base 1.4.0
 _ZThn56_N18QgsGrassModuleFlagD0Ev@Base 1.4.0
 _ZThn56_N18QgsGrassModuleFlagD1Ev@Base 1.4.0
 _ZThn56_N29QgsGrassModuleStandardOptionsD0Ev@Base 1.4.0
 _ZThn56_N29QgsGrassModuleStandardOptionsD1Ev@Base 1.4.0
 _ZThn72_N29QgsGrassModuleStandardOptionsD0Ev@Base 1.4.0
 _ZThn72_N29QgsGrassModuleStandardOptionsD1Ev@Base 1.4.0
 _ZZN11QMetaTypeIdI19QgsDetailedItemDataE14qt_metatype_idEvE11metatype_id@Base 1.4.0
 _ZplPKcRK7QString@Base 1.4.0
 _ZplRK7QStringPKc@Base 1.4.0
 _ZplRK7QStringS1_@Base 1.4.0
 _ZplRK7QStringc@Base 1.4.0
 classFactory@Base 1.4.0
 createTermWidget@Base 1.4.0
 description@Base 1.4.0
 name@Base 1.4.0
 qCleanupResources_qgsgrass_plugin__dest_instance__@Base 1.4.0
 type@Base 1.4.0
 unload@Base 1.4.0
 version@Base 1.4.0
libgrassprovider.so qgis-plugin-grass #MINVER#
 _ZN7QStringD1Ev@Base 1.4.0
 classFactory@Base 1.4.0
 description@Base 1.4.0
 isProvider@Base 1.4.0
 providerKey@Base 1.4.0
libqgisgrass.so.1.4.0 qgis-plugin-grass #MINVER#
 _ZN10QByteArray4dataEv@Base 1.4.0
 _ZN10QByteArrayD1Ev@Base 1.4.0
 _ZN11QStringListD1Ev@Base 1.4.0
 _ZN15QgsDataProvider12subsetStringEv@Base 1.4.0
 _ZN15QgsDataProvider13setLayerOrderE11QStringList@Base 1.4.0
 _ZN15QgsDataProvider13updateExtentsEv@Base 1.4.0
 _ZN15QgsDataProvider15setSubsetStringE7QString@Base 1.4.0
 _ZN15QgsDataProvider16setDataSourceUriERK7QString@Base 1.4.0
 _ZN15QgsDataProvider20supportsSubsetStringEv@Base 1.4.0
 _ZN15QgsDataProvider21setSubLayerVisibilityE7QStringb@Base 1.4.0
 _ZN16QgsGrassProvider10attributesEii@Base 1.4.0
 _ZN16QgsGrassProvider10closeLayerEi@Base 1.4.0
 _ZN16QgsGrassProvider10deleteLineEi@Base 1.4.0
 _ZN16QgsGrassProvider10executeSqlEiRK7QString@Base 1.4.0
 _ZN16QgsGrassProvider10grassLayerE7QString@Base 1.4.0
 _ZN16QgsGrassProvider10grassLayerEv@Base 1.4.0
 _ZN16QgsGrassProvider10nodeNLinesEi@Base 1.4.0
 _ZN16QgsGrassProvider10numDbLinksEv@Base 1.4.0
 _ZN16QgsGrassProvider11createTableEiRK7QStringS2_@Base 1.4.0
 _ZN16QgsGrassProvider11dbLinkFieldEi@Base 1.4.0
 _ZN16QgsGrassProvider11mapOutdatedEi@Base 1.4.0
 _ZN16QgsGrassProvider11nextFeatureER10QgsFeature@Base 1.4.0
 _ZN16QgsGrassProvider11rewriteLineEiiP9line_pntsP9line_cats@Base 1.4.0
 _ZN16QgsGrassProvider11updatedLineEi@Base 1.4.0
 _ZN16QgsGrassProvider11updatedNodeEi@Base 1.4.0
 _ZN16QgsGrassProvider12centroidAreaEi@Base 1.4.0
 _ZN16QgsGrassProvider12minimumValueEi@Base 1.4.0
 _ZN16QgsGrassProvider13cidxGetMaxCatEi@Base 1.4.0
 _ZN16QgsGrassProvider14grassLayerTypeE7QString@Base 1.4.0
 _ZN16QgsGrassProvider14loadAttributesER6GLAYER@Base 1.4.0
 _ZN16QgsGrassProvider14resetSelectionEb@Base 1.4.0
 _ZN16QgsGrassProvider15isGrassEditableEv@Base 1.4.0
 _ZN16QgsGrassProvider15numUpdatedLinesEv@Base 1.4.0
 _ZN16QgsGrassProvider15numUpdatedNodesEv@Base 1.4.0
 _ZN16QgsGrassProvider16cidxGetNumFieldsEv@Base 1.4.0
 _ZN16QgsGrassProvider16deleteAttributesEii@Base 1.4.0
 _ZN16QgsGrassProvider16insertAttributesEii@Base 1.4.0
 _ZN16QgsGrassProvider16updateAttributesEiiRK7QString@Base 1.4.0
 _ZN16QgsGrassProvider17allocateSelectionEP8Map_infoPPc@Base 1.4.0
 _ZN16QgsGrassProvider18attributesOutdatedEi@Base 1.4.0
 _ZN16QgsGrassProvider18cidxGetFieldNumberEi@Base 1.4.0
 _ZN16QgsGrassProvider20setFeatureAttributesEiiP10QgsFeature@Base 1.4.0
 _ZN16QgsGrassProvider20setFeatureAttributesEiiP10QgsFeatureRK5QListIiE@Base 1.4.0
 _ZN16QgsGrassProvider23loadLayerSourcesFromMapER6GLAYER@Base 1.4.0
 _ZN16QgsGrassProvider3crsEv@Base 1.4.0
 _ZN16QgsGrassProvider3keyEi@Base 1.4.0
 _ZN16QgsGrassProvider4thawEv@Base 1.4.0
 _ZN16QgsGrassProvider5mMapsE@Base 1.4.0
 _ZN16QgsGrassProvider6extentEv@Base 1.4.0
 _ZN16QgsGrassProvider6freezeEv@Base 1.4.0
 _ZN16QgsGrassProvider6rewindEv@Base 1.4.0
 _ZN16QgsGrassProvider6selectE5QListIiE12QgsRectanglebb@Base 1.4.0
 _ZN16QgsGrassProvider6updateEv@Base 1.4.0
 _ZN16QgsGrassProvider7columnsEi@Base 1.4.0
 _ZN16QgsGrassProvider7isValidEv@Base 1.4.0
 _ZN16QgsGrassProvider7mLayersE@Base 1.4.0
 _ZN16QgsGrassProvider7openMapE7QStringS0_S0_S0_@Base 1.4.0
 _ZN16QgsGrassProvider8closeMapEi@Base 1.4.0
 _ZN16QgsGrassProvider8findLineEddid@Base 1.4.0
 _ZN16QgsGrassProvider8findNodeEddd@Base 1.4.0
 _ZN16QgsGrassProvider8isEditedEv@Base 1.4.0
 _ZN16QgsGrassProvider8isFrozenEv@Base 1.4.0
 _ZN16QgsGrassProvider8isOrphanEiiPi@Base 1.4.0
 _ZN16QgsGrassProvider8keyFieldEv@Base 1.4.0
 _ZN16QgsGrassProvider8layerMapEi@Base 1.4.0
 _ZN16QgsGrassProvider8maxValueEi@Base 1.4.0
 _ZN16QgsGrassProvider8nodeCoorEiPdS0_@Base 1.4.0
 _ZN16QgsGrassProvider8nodeLineEii@Base 1.4.0
 _ZN16QgsGrassProvider8numLinesEv@Base 1.4.0
 _ZN16QgsGrassProvider8numNodesEv@Base 1.4.0
 _ZN16QgsGrassProvider8readLineEP9line_pntsP9line_catsi@Base 1.4.0
 _ZN16QgsGrassProvider9addColumnEiRK7QString@Base 1.4.0
 _ZN16QgsGrassProvider9closeEditEb@Base 1.4.0
 _ZN16QgsGrassProvider9lineAliveEi@Base 1.4.0
 _ZN16QgsGrassProvider9lineAreasEiPiS0_@Base 1.4.0
 _ZN16QgsGrassProvider9lineNodesEiPiS0_@Base 1.4.0
 _ZN16QgsGrassProvider9nodeAliveEi@Base 1.4.0
 _ZN16QgsGrassProvider9openLayerE7QStringS0_S0_S0_i@Base 1.4.0
 _ZN16QgsGrassProvider9reopenMapEv@Base 1.4.0
 _ZN16QgsGrassProvider9startEditEv@Base 1.4.0
 _ZN16QgsGrassProvider9updateMapEi@Base 1.4.0
 _ZN16QgsGrassProvider9writeLineEiP9line_pntsP9line_cats@Base 1.4.0
 _ZN16QgsGrassProviderC1E7QString@Base 1.4.0
 _ZN16QgsGrassProviderC2E7QString@Base 1.4.0
 _ZN16QgsGrassProviderD0Ev@Base 1.4.0
 _ZN16QgsGrassProviderD1Ev@Base 1.4.0
 _ZN16QgsGrassProviderD2Ev@Base 1.4.0
 _ZN21QgsVectorDataProvider10enumValuesEiR11QStringList@Base 1.4.0
 _ZN4GMAPC1ERKS_@Base 1.4.0
 _ZN4GMAPD1Ev@Base 1.4.0
 _ZN4QMapIi8QgsFieldE11node_createEP8QMapDataPPNS2_4NodeERKiRKS0_@Base 1.4.0
 _ZN4QMapIi8QgsFieldE13detach_helperEv@Base 1.4.0
 _ZN4QMapIi8QgsFieldE5clearEv@Base 1.4.0
 _ZN4QMapIi8QgsFieldE8freeDataEP8QMapData@Base 1.4.0
 _ZN5QListI7QStringE4freeEPN9QListData4DataE@Base 1.4.0
 _ZN5QListI7QStringE5clearEv@Base 1.4.0
 _ZN5QListI7QStringE6appendERKS0_@Base 1.4.0
 _ZN6GLAYERD1Ev@Base 1.4.0
 _ZN7QObject2trEPKcS1_@Base 1.4.0
 _ZN7QStringC1EPKc@Base 1.4.0
 _ZN7QStringC1ERKS_@Base 1.4.0
 _ZN7QStringD1Ev@Base 1.4.0
 _ZN8QgsGrass10activeModeEv@Base 1.4.0
 _ZN8QgsGrass10openMapsetE7QStringS0_S0_@Base 1.4.0
 _ZN8QgsGrass10resetErrorEv@Base 1.4.0
 _ZN8QgsGrass11closeMapsetEv@Base 1.4.0
 _ZN8QgsGrass11initializedE@Base 1.4.0
 _ZN8QgsGrass11mMapsetLockE@Base 1.4.0
 _ZN8QgsGrass11setLocationE7QStringS0_@Base 1.4.0
 _ZN8QgsGrass11writeRegionE7QStringS0_S0_P9Cell_head@Base 1.4.0
 _ZN8QgsGrass12errorMessageEv@Base 1.4.0
 _ZN8QgsGrass12extendRegionEP9Cell_headS1_@Base 1.4.0
 _ZN8QgsGrass12lockFilePathEv@Base 1.4.0
 _ZN8QgsGrass12regionStringEP9Cell_head@Base 1.4.0
 _ZN8QgsGrass12versionMajorEv@Base 1.4.0
 _ZN8QgsGrass12versionMinorEv@Base 1.4.0
 _ZN8QgsGrass13defaultMapsetE@Base 1.4.0
 _ZN8QgsGrass13error_messageE@Base 1.4.0
 _ZN8QgsGrass13error_routineEPKci@Base 1.4.0
 _ZN8QgsGrass13error_routineEPci@Base 1.4.0
 _ZN8QgsGrass13versionStringEv@Base 1.4.0
 _ZN8QgsGrass14versionReleaseEv@Base 1.4.0
 _ZN8QgsGrass15defaultGisdbaseE@Base 1.4.0
 _ZN8QgsGrass15defaultLocationE@Base 1.4.0
 _ZN8QgsGrass16copyRegionExtentEP9Cell_headS1_@Base 1.4.0
 _ZN8QgsGrass16getDefaultMapsetEv@Base 1.4.0
 _ZN8QgsGrass18getDefaultGisdbaseEv@Base 1.4.0
 _ZN8QgsGrass18getDefaultLocationEv@Base 1.4.0
 _ZN8QgsGrass19isValidGrassBaseDirE7QString@Base 1.4.0
 _ZN8QgsGrass20copyRegionResolutionEP9Cell_headS1_@Base 1.4.0
 _ZN8QgsGrass4initEv@Base 1.4.0
 _ZN8QgsGrass4mTmpE@Base 1.4.0
 _ZN8QgsGrass5errorEv@Base 1.4.0
 _ZN8QgsGrass6activeE@Base 1.4.0
 _ZN8QgsGrass6mGisrcE@Base 1.4.0
 _ZN8QgsGrass6regionE7QStringS0_S0_P9Cell_head@Base 1.4.0
 _ZN8QgsGrass7mapsetsE7QString@Base 1.4.0
 _ZN8QgsGrass7mapsetsE7QStringS0_@Base 1.4.0
 _ZN8QgsGrass7rastersE7QString@Base 1.4.0
 _ZN8QgsGrass7rastersE7QStringS0_S0_@Base 1.4.0
 _ZN8QgsGrass7vectorsE7QString@Base 1.4.0
 _ZN8QgsGrass7vectorsE7QStringS0_S0_@Base 1.4.0
 _ZN8QgsGrass8elementsE7QStringS0_@Base 1.4.0
 _ZN8QgsGrass8elementsE7QStringS0_S0_S0_@Base 1.4.0
 _ZN8QgsGrass8isMapsetE7QString@Base 1.4.0
 _ZN8QgsGrass9ExceptionD0Ev@Base 1.4.0
 _ZN8QgsGrass9ExceptionD1Ev@Base 1.4.0
 _ZN8QgsGrass9lastErrorE@Base 1.4.0
 _ZN8QgsGrass9locationsE7QString@Base 1.4.0
 _ZN8QgsGrass9mapRegionEi7QStringS0_S0_S0_P9Cell_head@Base 1.4.0
 _ZN8QgsGrass9setMapsetE7QStringS0_S0_@Base 1.4.0
 _ZNK15QgsDataProvider13dataSourceUriEv@Base 1.4.0
 _ZNK15QgsDataProvider13subLayerCountEv@Base 1.4.0
 _ZNK15QgsDataProvider14subLayerStylesEv@Base 1.4.0
 _ZNK15QgsDataProvider17fileRasterFiltersEv@Base 1.4.0
 _ZNK15QgsDataProvider17fileVectorFiltersEv@Base 1.4.0
 _ZNK15QgsDataProvider9subLayersEv@Base 1.4.0
 _ZNK16QgsGrassProvider10fieldCountEv@Base 1.4.0
 _ZNK16QgsGrassProvider11descriptionEv@Base 1.4.0
 _ZNK16QgsGrassProvider11storageTypeEv@Base 1.4.0
 _ZNK16QgsGrassProvider12featureCountEv@Base 1.4.0
 _ZNK16QgsGrassProvider12geometryTypeEv@Base 1.4.0
 _ZNK16QgsGrassProvider4nameEv@Base 1.4.0
 _ZNK16QgsGrassProvider6fieldsEv@Base 1.4.0
 _ZNK21QgsVectorDataProvider26doesStrictFeatureTypeCheckEv@Base 1.4.0
 _ZNSt6vectorI4GMAPSaIS0_EE13_M_insert_auxEN9__gnu_cxx17__normal_iteratorIPS0_S2_EERKS0_@Base 1.4.0
 _ZNSt6vectorI4GMAPSaIS0_EED1Ev@Base 1.4.0
 _ZNSt6vectorI6GLAYERSaIS0_EE13_M_insert_auxEN9__gnu_cxx17__normal_iteratorIPS0_S2_EERKS0_@Base 1.4.0
 _ZNSt6vectorI6GLAYERSaIS0_EED1Ev@Base 1.4.0
 _ZNSt6vectorI8QgsFieldSaIS0_EE13_M_insert_auxEN9__gnu_cxx17__normal_iteratorIPS0_S2_EERKS0_@Base 1.4.0
 _ZTI16QgsGrassProvider@Base 1.4.0
 _ZTIN8QgsGrass9ExceptionE@Base 1.4.0
 _ZTS16QgsGrassProvider@Base 1.4.0
 _ZTSN8QgsGrass9ExceptionE@Base 1.4.0
 _ZTV16QgsGrassProvider@Base 1.4.0
 _ZTVN8QgsGrass9ExceptionE@Base 1.4.0
 _ZplPKcRK7QString@Base 1.4.0
 _ZplRK7QStringPKc@Base 1.4.0
 _ZplRK7QStringS1_@Base 1.4.0
